   1              		.syntax unified
   2              		.cpu cortex-m3
   3              		.fpu softvfp
   4              		.eabi_attribute 20, 1
   5              		.eabi_attribute 21, 1
   6              		.eabi_attribute 23, 3
   7              		.eabi_attribute 24, 1
   8              		.eabi_attribute 25, 1
   9              		.eabi_attribute 26, 1
  10              		.eabi_attribute 30, 4
  11              		.eabi_attribute 34, 0
  12              		.eabi_attribute 18, 4
  13              		.thumb
  14              		.file	"usb_prop.c"
  15              		.text
  16              	.Ltext0:
  17              		.cfi_sections	.debug_frame
  18              		.section	.text.nxinit,"ax",%progbits
  19              		.align	1
  20              		.global	nxinit
  21              		.thumb
  22              		.thumb_func
  24              	nxinit:
  25              	.LFB56:
  26              		.file 1 "lib/USB_Functions/usb_prop.c"
   1:lib/USB_Functions/usb_prop.c **** /********************************************************************************/
   2:lib/USB_Functions/usb_prop.c **** /*!
   3:lib/USB_Functions/usb_prop.c **** 	@file			usb_prop.c
   4:lib/USB_Functions/usb_prop.c **** 	@author         Nemui Trinomius (http://nemuisan.blog.bai.ne.jp)
   5:lib/USB_Functions/usb_prop.c ****     @version        1.00
   6:lib/USB_Functions/usb_prop.c ****     @date           2012.01.30
   7:lib/USB_Functions/usb_prop.c **** 	@brief          USB Endpoint Wrappers.
   8:lib/USB_Functions/usb_prop.c **** 
   9:lib/USB_Functions/usb_prop.c ****     @section HISTORY
  10:lib/USB_Functions/usb_prop.c **** 		2012.01.30	V1.00	Start Here
  11:lib/USB_Functions/usb_prop.c **** 
  12:lib/USB_Functions/usb_prop.c ****     @section LICENSE
  13:lib/USB_Functions/usb_prop.c **** 		BSD License. See Copyright.txt
  14:lib/USB_Functions/usb_prop.c **** */
  15:lib/USB_Functions/usb_prop.c **** /********************************************************************************/
  16:lib/USB_Functions/usb_prop.c **** 
  17:lib/USB_Functions/usb_prop.c **** /* Includes ------------------------------------------------------------------*/
  18:lib/USB_Functions/usb_prop.c **** #include "usb_prop.h"
  19:lib/USB_Functions/usb_prop.c **** 
  20:lib/USB_Functions/usb_prop.c **** /* Defines -------------------------------------------------------------------*/
  21:lib/USB_Functions/usb_prop.c **** 
  22:lib/USB_Functions/usb_prop.c **** /* Variables -----------------------------------------------------------------*/
  23:lib/USB_Functions/usb_prop.c **** void (*xinit)(void);
  24:lib/USB_Functions/usb_prop.c **** void (*xReset)(void);
  25:lib/USB_Functions/usb_prop.c **** void (*xStatus_In)(void);
  26:lib/USB_Functions/usb_prop.c **** void (*xStatus_Out)(void);
  27:lib/USB_Functions/usb_prop.c **** RESULT (*xData_Setup)(uint8_t RequestNo);
  28:lib/USB_Functions/usb_prop.c **** RESULT (*xNoData_Setup)(uint8_t RequestNo);
  29:lib/USB_Functions/usb_prop.c **** RESULT (*xGet_Interface_Setting)(uint8_t Interface, uint8_t AlternateSetting);
  30:lib/USB_Functions/usb_prop.c **** uint8_t* (*xGetDeviceDescriptor)(uint16_t Length);
  31:lib/USB_Functions/usb_prop.c **** uint8_t* (*xGetConfigDescriptor)(uint16_t Length);
  32:lib/USB_Functions/usb_prop.c **** uint8_t* (*xGetStringDescriptor)(uint16_t Length);
  33:lib/USB_Functions/usb_prop.c **** 
  34:lib/USB_Functions/usb_prop.c **** void (*xGetConfiguration)(void);
  35:lib/USB_Functions/usb_prop.c **** void (*xSetConfiguration)(void);
  36:lib/USB_Functions/usb_prop.c **** void (*xGetInterface)(void);
  37:lib/USB_Functions/usb_prop.c **** void (*xSetInterface)(void);
  38:lib/USB_Functions/usb_prop.c **** void (*xGetStatus)(void);
  39:lib/USB_Functions/usb_prop.c **** void (*xClearFeature)(void);
  40:lib/USB_Functions/usb_prop.c **** void (*xSetEndPointFeature)(void);
  41:lib/USB_Functions/usb_prop.c **** void (*xSetDeviceFeature)(void);
  42:lib/USB_Functions/usb_prop.c **** void (*xSetDeviceAddress)(void);
  43:lib/USB_Functions/usb_prop.c **** 
  44:lib/USB_Functions/usb_prop.c **** /* Constants -----------------------------------------------------------------*/
  45:lib/USB_Functions/usb_prop.c **** DEVICE Device_Table =
  46:lib/USB_Functions/usb_prop.c ****   {
  47:lib/USB_Functions/usb_prop.c ****     3,
  48:lib/USB_Functions/usb_prop.c ****     1
  49:lib/USB_Functions/usb_prop.c ****   };
  50:lib/USB_Functions/usb_prop.c **** 
  51:lib/USB_Functions/usb_prop.c **** DEVICE_PROP Device_Property =
  52:lib/USB_Functions/usb_prop.c ****   {
  53:lib/USB_Functions/usb_prop.c ****   	nxinit,
  54:lib/USB_Functions/usb_prop.c ****   	nxReset,
  55:lib/USB_Functions/usb_prop.c ****   	nxStatus_In,
  56:lib/USB_Functions/usb_prop.c ****   	nxStatus_Out,
  57:lib/USB_Functions/usb_prop.c ****   	nxData_Setup,
  58:lib/USB_Functions/usb_prop.c ****   	nxNoData_Setup,
  59:lib/USB_Functions/usb_prop.c ****   	nxGet_Interface_Setting,
  60:lib/USB_Functions/usb_prop.c ****   	nxGetDeviceDescriptor,
  61:lib/USB_Functions/usb_prop.c ****   	nxGetConfigDescriptor,
  62:lib/USB_Functions/usb_prop.c ****   	nxGetStringDescriptor,
  63:lib/USB_Functions/usb_prop.c ****     0,
  64:lib/USB_Functions/usb_prop.c ****     0x40 /*MAX PACKET SIZE*/
  65:lib/USB_Functions/usb_prop.c ****   };
  66:lib/USB_Functions/usb_prop.c **** 
  67:lib/USB_Functions/usb_prop.c **** USER_STANDARD_REQUESTS User_Standard_Requests =
  68:lib/USB_Functions/usb_prop.c ****   {
  69:lib/USB_Functions/usb_prop.c ****   	nxGetConfiguration,
  70:lib/USB_Functions/usb_prop.c ****   	nxSetConfiguration,
  71:lib/USB_Functions/usb_prop.c ****   	nxGetInterface,
  72:lib/USB_Functions/usb_prop.c ****   	nxSetInterface,
  73:lib/USB_Functions/usb_prop.c ****   	nxGetStatus,
  74:lib/USB_Functions/usb_prop.c ****   	nxClearFeature,
  75:lib/USB_Functions/usb_prop.c ****   	nxSetEndPointFeature,
  76:lib/USB_Functions/usb_prop.c ****   	nxSetDeviceFeature,
  77:lib/USB_Functions/usb_prop.c ****   	nxSetDeviceAddress
  78:lib/USB_Functions/usb_prop.c ****   };
  79:lib/USB_Functions/usb_prop.c **** 
  80:lib/USB_Functions/usb_prop.c **** /* Function prototypes -------------------------------------------------------*/
  81:lib/USB_Functions/usb_prop.c **** 
  82:lib/USB_Functions/usb_prop.c **** /* Functions -----------------------------------------------------------------*/
  83:lib/USB_Functions/usb_prop.c **** 
  84:lib/USB_Functions/usb_prop.c **** /**************************************************************************/
  85:lib/USB_Functions/usb_prop.c **** /*! 
  86:lib/USB_Functions/usb_prop.c ****     init wrapper
  87:lib/USB_Functions/usb_prop.c **** */
  88:lib/USB_Functions/usb_prop.c **** /**************************************************************************/
  89:lib/USB_Functions/usb_prop.c **** void nxinit(void)
  90:lib/USB_Functions/usb_prop.c **** {
  27              		.loc 1 90 0
  28              		.cfi_startproc
  29              		@ args = 0, pretend = 0, frame = 0
  30              		@ frame_needed = 0, uses_anonymous_args = 0
  31 0000 08B5     		push	{r3, lr}
  32              	.LCFI0:
  33              		.cfi_def_cfa_offset 8
  34              		.cfi_offset 3, -8
  35              		.cfi_offset 14, -4
  91:lib/USB_Functions/usb_prop.c **** 	xinit();
  36              		.loc 1 91 0
  37 0002 024B     		ldr	r3, .L2
  38 0004 1868     		ldr	r0, [r3, #0]
  39 0006 8047     		blx	r0
  40              	.LVL0:
  41 0008 08BD     		pop	{r3, pc}
  42              	.L3:
  43 000a 00BF     		.align	2
  44              	.L2:
  45 000c 00000000 		.word	.LANCHOR0
  46              		.cfi_endproc
  47              	.LFE56:
  49              		.section	.text.nxReset,"ax",%progbits
  50              		.align	1
  51              		.global	nxReset
  52              		.thumb
  53              		.thumb_func
  55              	nxReset:
  56              	.LFB57:
  92:lib/USB_Functions/usb_prop.c **** }
  93:lib/USB_Functions/usb_prop.c **** 
  94:lib/USB_Functions/usb_prop.c **** /**************************************************************************/
  95:lib/USB_Functions/usb_prop.c **** /*! 
  96:lib/USB_Functions/usb_prop.c ****     Reset wrapper
  97:lib/USB_Functions/usb_prop.c **** */
  98:lib/USB_Functions/usb_prop.c **** /**************************************************************************/
  99:lib/USB_Functions/usb_prop.c **** void nxReset(void)
 100:lib/USB_Functions/usb_prop.c **** {
  57              		.loc 1 100 0
  58              		.cfi_startproc
  59              		@ args = 0, pretend = 0, frame = 0
  60              		@ frame_needed = 0, uses_anonymous_args = 0
  61 0000 08B5     		push	{r3, lr}
  62              	.LCFI1:
  63              		.cfi_def_cfa_offset 8
  64              		.cfi_offset 3, -8
  65              		.cfi_offset 14, -4
 101:lib/USB_Functions/usb_prop.c **** 	xReset();
  66              		.loc 1 101 0
  67 0002 024B     		ldr	r3, .L5
  68 0004 1868     		ldr	r0, [r3, #0]
  69 0006 8047     		blx	r0
  70              	.LVL1:
  71 0008 08BD     		pop	{r3, pc}
  72              	.L6:
  73 000a 00BF     		.align	2
  74              	.L5:
  75 000c 00000000 		.word	.LANCHOR1
  76              		.cfi_endproc
  77              	.LFE57:
  79              		.section	.text.nxStatus_In,"ax",%progbits
  80              		.align	1
  81              		.global	nxStatus_In
  82              		.thumb
  83              		.thumb_func
  85              	nxStatus_In:
  86              	.LFB58:
 102:lib/USB_Functions/usb_prop.c **** }
 103:lib/USB_Functions/usb_prop.c **** 
 104:lib/USB_Functions/usb_prop.c **** 
 105:lib/USB_Functions/usb_prop.c **** /**************************************************************************/
 106:lib/USB_Functions/usb_prop.c **** /*! 
 107:lib/USB_Functions/usb_prop.c ****     Status_In wrapper
 108:lib/USB_Functions/usb_prop.c **** */
 109:lib/USB_Functions/usb_prop.c **** /**************************************************************************/
 110:lib/USB_Functions/usb_prop.c **** void nxStatus_In(void)
 111:lib/USB_Functions/usb_prop.c **** {
  87              		.loc 1 111 0
  88              		.cfi_startproc
  89              		@ args = 0, pretend = 0, frame = 0
  90              		@ frame_needed = 0, uses_anonymous_args = 0
  91 0000 08B5     		push	{r3, lr}
  92              	.LCFI2:
  93              		.cfi_def_cfa_offset 8
  94              		.cfi_offset 3, -8
  95              		.cfi_offset 14, -4
 112:lib/USB_Functions/usb_prop.c **** 	xStatus_In();
  96              		.loc 1 112 0
  97 0002 024B     		ldr	r3, .L8
  98 0004 1868     		ldr	r0, [r3, #0]
  99 0006 8047     		blx	r0
 100              	.LVL2:
 101 0008 08BD     		pop	{r3, pc}
 102              	.L9:
 103 000a 00BF     		.align	2
 104              	.L8:
 105 000c 00000000 		.word	.LANCHOR2
 106              		.cfi_endproc
 107              	.LFE58:
 109              		.section	.text.nxStatus_Out,"ax",%progbits
 110              		.align	1
 111              		.global	nxStatus_Out
 112              		.thumb
 113              		.thumb_func
 115              	nxStatus_Out:
 116              	.LFB59:
 113:lib/USB_Functions/usb_prop.c **** }
 114:lib/USB_Functions/usb_prop.c **** 
 115:lib/USB_Functions/usb_prop.c **** 
 116:lib/USB_Functions/usb_prop.c **** /**************************************************************************/
 117:lib/USB_Functions/usb_prop.c **** /*! 
 118:lib/USB_Functions/usb_prop.c ****     Status_Out wrapper
 119:lib/USB_Functions/usb_prop.c **** */
 120:lib/USB_Functions/usb_prop.c **** /**************************************************************************/
 121:lib/USB_Functions/usb_prop.c **** void nxStatus_Out(void)
 122:lib/USB_Functions/usb_prop.c **** {
 117              		.loc 1 122 0
 118              		.cfi_startproc
 119              		@ args = 0, pretend = 0, frame = 0
 120              		@ frame_needed = 0, uses_anonymous_args = 0
 121 0000 08B5     		push	{r3, lr}
 122              	.LCFI3:
 123              		.cfi_def_cfa_offset 8
 124              		.cfi_offset 3, -8
 125              		.cfi_offset 14, -4
 123:lib/USB_Functions/usb_prop.c **** 	xStatus_Out();
 126              		.loc 1 123 0
 127 0002 024B     		ldr	r3, .L11
 128 0004 1868     		ldr	r0, [r3, #0]
 129 0006 8047     		blx	r0
 130              	.LVL3:
 131 0008 08BD     		pop	{r3, pc}
 132              	.L12:
 133 000a 00BF     		.align	2
 134              	.L11:
 135 000c 00000000 		.word	.LANCHOR3
 136              		.cfi_endproc
 137              	.LFE59:
 139              		.section	.text.nxData_Setup,"ax",%progbits
 140              		.align	1
 141              		.global	nxData_Setup
 142              		.thumb
 143              		.thumb_func
 145              	nxData_Setup:
 146              	.LFB60:
 124:lib/USB_Functions/usb_prop.c **** }
 125:lib/USB_Functions/usb_prop.c **** 
 126:lib/USB_Functions/usb_prop.c **** 
 127:lib/USB_Functions/usb_prop.c **** /**************************************************************************/
 128:lib/USB_Functions/usb_prop.c **** /*! 
 129:lib/USB_Functions/usb_prop.c ****     Data_Setup Wrapper
 130:lib/USB_Functions/usb_prop.c **** */
 131:lib/USB_Functions/usb_prop.c **** /**************************************************************************/
 132:lib/USB_Functions/usb_prop.c **** RESULT nxData_Setup(uint8_t RequestNo)
 133:lib/USB_Functions/usb_prop.c **** {
 147              		.loc 1 133 0
 148              		.cfi_startproc
 149              		@ args = 0, pretend = 0, frame = 0
 150              		@ frame_needed = 0, uses_anonymous_args = 0
 151              	.LVL4:
 152 0000 08B5     		push	{r3, lr}
 153              	.LCFI4:
 154              		.cfi_def_cfa_offset 8
 155              		.cfi_offset 3, -8
 156              		.cfi_offset 14, -4
 134:lib/USB_Functions/usb_prop.c **** 	return xData_Setup(RequestNo);
 157              		.loc 1 134 0
 158 0002 024B     		ldr	r3, .L14
 159 0004 1968     		ldr	r1, [r3, #0]
 160 0006 8847     		blx	r1
 161              	.LVL5:
 135:lib/USB_Functions/usb_prop.c **** }
 162              		.loc 1 135 0
 163 0008 08BD     		pop	{r3, pc}
 164              	.L15:
 165 000a 00BF     		.align	2
 166              	.L14:
 167 000c 00000000 		.word	.LANCHOR4
 168              		.cfi_endproc
 169              	.LFE60:
 171              		.section	.text.nxNoData_Setup,"ax",%progbits
 172              		.align	1
 173              		.global	nxNoData_Setup
 174              		.thumb
 175              		.thumb_func
 177              	nxNoData_Setup:
 178              	.LFB61:
 136:lib/USB_Functions/usb_prop.c **** 
 137:lib/USB_Functions/usb_prop.c **** /**************************************************************************/
 138:lib/USB_Functions/usb_prop.c **** /*! 
 139:lib/USB_Functions/usb_prop.c ****     NoData_Setup wrapper
 140:lib/USB_Functions/usb_prop.c **** */
 141:lib/USB_Functions/usb_prop.c **** /**************************************************************************/
 142:lib/USB_Functions/usb_prop.c **** RESULT nxNoData_Setup(uint8_t RequestNo)
 143:lib/USB_Functions/usb_prop.c **** {
 179              		.loc 1 143 0
 180              		.cfi_startproc
 181              		@ args = 0, pretend = 0, frame = 0
 182              		@ frame_needed = 0, uses_anonymous_args = 0
 183              	.LVL6:
 184 0000 08B5     		push	{r3, lr}
 185              	.LCFI5:
 186              		.cfi_def_cfa_offset 8
 187              		.cfi_offset 3, -8
 188              		.cfi_offset 14, -4
 144:lib/USB_Functions/usb_prop.c **** 	return xNoData_Setup(RequestNo);
 189              		.loc 1 144 0
 190 0002 024B     		ldr	r3, .L17
 191 0004 1968     		ldr	r1, [r3, #0]
 192 0006 8847     		blx	r1
 193              	.LVL7:
 145:lib/USB_Functions/usb_prop.c **** }
 194              		.loc 1 145 0
 195 0008 08BD     		pop	{r3, pc}
 196              	.L18:
 197 000a 00BF     		.align	2
 198              	.L17:
 199 000c 00000000 		.word	.LANCHOR5
 200              		.cfi_endproc
 201              	.LFE61:
 203              		.section	.text.nxGet_Interface_Setting,"ax",%progbits
 204              		.align	1
 205              		.global	nxGet_Interface_Setting
 206              		.thumb
 207              		.thumb_func
 209              	nxGet_Interface_Setting:
 210              	.LFB62:
 146:lib/USB_Functions/usb_prop.c **** 
 147:lib/USB_Functions/usb_prop.c **** /**************************************************************************/
 148:lib/USB_Functions/usb_prop.c **** /*! 
 149:lib/USB_Functions/usb_prop.c ****     Get_Interface_Setting wrapper
 150:lib/USB_Functions/usb_prop.c **** */
 151:lib/USB_Functions/usb_prop.c **** /**************************************************************************/
 152:lib/USB_Functions/usb_prop.c **** RESULT nxGet_Interface_Setting(uint8_t Interface, uint8_t AlternateSetting)
 153:lib/USB_Functions/usb_prop.c **** {
 211              		.loc 1 153 0
 212              		.cfi_startproc
 213              		@ args = 0, pretend = 0, frame = 0
 214              		@ frame_needed = 0, uses_anonymous_args = 0
 215              	.LVL8:
 216 0000 08B5     		push	{r3, lr}
 217              	.LCFI6:
 218              		.cfi_def_cfa_offset 8
 219              		.cfi_offset 3, -8
 220              		.cfi_offset 14, -4
 154:lib/USB_Functions/usb_prop.c **** 	return xGet_Interface_Setting(Interface,AlternateSetting);
 221              		.loc 1 154 0
 222 0002 024B     		ldr	r3, .L20
 223 0004 1A68     		ldr	r2, [r3, #0]
 224 0006 9047     		blx	r2
 225              	.LVL9:
 155:lib/USB_Functions/usb_prop.c **** }
 226              		.loc 1 155 0
 227 0008 08BD     		pop	{r3, pc}
 228              	.L21:
 229 000a 00BF     		.align	2
 230              	.L20:
 231 000c 00000000 		.word	.LANCHOR6
 232              		.cfi_endproc
 233              	.LFE62:
 235              		.section	.text.nxGetDeviceDescriptor,"ax",%progbits
 236              		.align	1
 237              		.global	nxGetDeviceDescriptor
 238              		.thumb
 239              		.thumb_func
 241              	nxGetDeviceDescriptor:
 242              	.LFB63:
 156:lib/USB_Functions/usb_prop.c **** 
 157:lib/USB_Functions/usb_prop.c **** /**************************************************************************/
 158:lib/USB_Functions/usb_prop.c **** /*! 
 159:lib/USB_Functions/usb_prop.c ****     GetDeviceDescriptor wrapper
 160:lib/USB_Functions/usb_prop.c **** */
 161:lib/USB_Functions/usb_prop.c **** /**************************************************************************/
 162:lib/USB_Functions/usb_prop.c **** uint8_t *nxGetDeviceDescriptor(uint16_t Length)
 163:lib/USB_Functions/usb_prop.c **** {
 243              		.loc 1 163 0
 244              		.cfi_startproc
 245              		@ args = 0, pretend = 0, frame = 0
 246              		@ frame_needed = 0, uses_anonymous_args = 0
 247              	.LVL10:
 248 0000 08B5     		push	{r3, lr}
 249              	.LCFI7:
 250              		.cfi_def_cfa_offset 8
 251              		.cfi_offset 3, -8
 252              		.cfi_offset 14, -4
 164:lib/USB_Functions/usb_prop.c **** 	return xGetDeviceDescriptor(Length);
 253              		.loc 1 164 0
 254 0002 024B     		ldr	r3, .L23
 255 0004 1968     		ldr	r1, [r3, #0]
 256 0006 8847     		blx	r1
 257              	.LVL11:
 165:lib/USB_Functions/usb_prop.c **** }
 258              		.loc 1 165 0
 259 0008 08BD     		pop	{r3, pc}
 260              	.L24:
 261 000a 00BF     		.align	2
 262              	.L23:
 263 000c 00000000 		.word	.LANCHOR7
 264              		.cfi_endproc
 265              	.LFE63:
 267              		.section	.text.nxGetConfigDescriptor,"ax",%progbits
 268              		.align	1
 269              		.global	nxGetConfigDescriptor
 270              		.thumb
 271              		.thumb_func
 273              	nxGetConfigDescriptor:
 274              	.LFB64:
 166:lib/USB_Functions/usb_prop.c **** 
 167:lib/USB_Functions/usb_prop.c **** /**************************************************************************/
 168:lib/USB_Functions/usb_prop.c **** /*! 
 169:lib/USB_Functions/usb_prop.c ****     GetConfigDescriptor wrapper
 170:lib/USB_Functions/usb_prop.c **** */
 171:lib/USB_Functions/usb_prop.c **** /**************************************************************************/
 172:lib/USB_Functions/usb_prop.c **** uint8_t *nxGetConfigDescriptor(uint16_t Length)
 173:lib/USB_Functions/usb_prop.c **** {
 275              		.loc 1 173 0
 276              		.cfi_startproc
 277              		@ args = 0, pretend = 0, frame = 0
 278              		@ frame_needed = 0, uses_anonymous_args = 0
 279              	.LVL12:
 280 0000 08B5     		push	{r3, lr}
 281              	.LCFI8:
 282              		.cfi_def_cfa_offset 8
 283              		.cfi_offset 3, -8
 284              		.cfi_offset 14, -4
 174:lib/USB_Functions/usb_prop.c **** 	return xGetConfigDescriptor(Length);
 285              		.loc 1 174 0
 286 0002 024B     		ldr	r3, .L26
 287 0004 1968     		ldr	r1, [r3, #0]
 288 0006 8847     		blx	r1
 289              	.LVL13:
 175:lib/USB_Functions/usb_prop.c **** }
 290              		.loc 1 175 0
 291 0008 08BD     		pop	{r3, pc}
 292              	.L27:
 293 000a 00BF     		.align	2
 294              	.L26:
 295 000c 00000000 		.word	.LANCHOR8
 296              		.cfi_endproc
 297              	.LFE64:
 299              		.section	.text.nxGetStringDescriptor,"ax",%progbits
 300              		.align	1
 301              		.global	nxGetStringDescriptor
 302              		.thumb
 303              		.thumb_func
 305              	nxGetStringDescriptor:
 306              	.LFB65:
 176:lib/USB_Functions/usb_prop.c **** 
 177:lib/USB_Functions/usb_prop.c **** /**************************************************************************/
 178:lib/USB_Functions/usb_prop.c **** /*! 
 179:lib/USB_Functions/usb_prop.c ****     GetStringDescriptor wrapper
 180:lib/USB_Functions/usb_prop.c **** */
 181:lib/USB_Functions/usb_prop.c **** /**************************************************************************/
 182:lib/USB_Functions/usb_prop.c **** uint8_t *nxGetStringDescriptor(uint16_t Length)
 183:lib/USB_Functions/usb_prop.c **** {
 307              		.loc 1 183 0
 308              		.cfi_startproc
 309              		@ args = 0, pretend = 0, frame = 0
 310              		@ frame_needed = 0, uses_anonymous_args = 0
 311              	.LVL14:
 312 0000 08B5     		push	{r3, lr}
 313              	.LCFI9:
 314              		.cfi_def_cfa_offset 8
 315              		.cfi_offset 3, -8
 316              		.cfi_offset 14, -4
 184:lib/USB_Functions/usb_prop.c **** 	return xGetStringDescriptor(Length);
 317              		.loc 1 184 0
 318 0002 024B     		ldr	r3, .L29
 319 0004 1968     		ldr	r1, [r3, #0]
 320 0006 8847     		blx	r1
 321              	.LVL15:
 185:lib/USB_Functions/usb_prop.c **** }
 322              		.loc 1 185 0
 323 0008 08BD     		pop	{r3, pc}
 324              	.L30:
 325 000a 00BF     		.align	2
 326              	.L29:
 327 000c 00000000 		.word	.LANCHOR9
 328              		.cfi_endproc
 329              	.LFE65:
 331              		.section	.text.nxGetConfiguration,"ax",%progbits
 332              		.align	1
 333              		.global	nxGetConfiguration
 334              		.thumb
 335              		.thumb_func
 337              	nxGetConfiguration:
 338              	.LFB66:
 186:lib/USB_Functions/usb_prop.c **** 
 187:lib/USB_Functions/usb_prop.c **** /**************************************************************************/
 188:lib/USB_Functions/usb_prop.c **** /*! 
 189:lib/USB_Functions/usb_prop.c ****     GetConfiguration wrapper
 190:lib/USB_Functions/usb_prop.c **** */
 191:lib/USB_Functions/usb_prop.c **** /**************************************************************************/
 192:lib/USB_Functions/usb_prop.c **** void nxGetConfiguration(void){
 339              		.loc 1 192 0
 340              		.cfi_startproc
 341              		@ args = 0, pretend = 0, frame = 0
 342              		@ frame_needed = 0, uses_anonymous_args = 0
 343 0000 08B5     		push	{r3, lr}
 344              	.LCFI10:
 345              		.cfi_def_cfa_offset 8
 346              		.cfi_offset 3, -8
 347              		.cfi_offset 14, -4
 193:lib/USB_Functions/usb_prop.c **** 	xGetConfiguration();
 348              		.loc 1 193 0
 349 0002 024B     		ldr	r3, .L32
 350 0004 1868     		ldr	r0, [r3, #0]
 351 0006 8047     		blx	r0
 352              	.LVL16:
 353 0008 08BD     		pop	{r3, pc}
 354              	.L33:
 355 000a 00BF     		.align	2
 356              	.L32:
 357 000c 00000000 		.word	.LANCHOR10
 358              		.cfi_endproc
 359              	.LFE66:
 361              		.section	.text.nxSetConfiguration,"ax",%progbits
 362              		.align	1
 363              		.global	nxSetConfiguration
 364              		.thumb
 365              		.thumb_func
 367              	nxSetConfiguration:
 368              	.LFB67:
 194:lib/USB_Functions/usb_prop.c **** }
 195:lib/USB_Functions/usb_prop.c **** 
 196:lib/USB_Functions/usb_prop.c **** /**************************************************************************/
 197:lib/USB_Functions/usb_prop.c **** /*! 
 198:lib/USB_Functions/usb_prop.c ****     GetConfiguration wrapper
 199:lib/USB_Functions/usb_prop.c **** */
 200:lib/USB_Functions/usb_prop.c **** /**************************************************************************/
 201:lib/USB_Functions/usb_prop.c **** void nxSetConfiguration(void){
 369              		.loc 1 201 0
 370              		.cfi_startproc
 371              		@ args = 0, pretend = 0, frame = 0
 372              		@ frame_needed = 0, uses_anonymous_args = 0
 373 0000 08B5     		push	{r3, lr}
 374              	.LCFI11:
 375              		.cfi_def_cfa_offset 8
 376              		.cfi_offset 3, -8
 377              		.cfi_offset 14, -4
 202:lib/USB_Functions/usb_prop.c **** 	xSetConfiguration();
 378              		.loc 1 202 0
 379 0002 024B     		ldr	r3, .L35
 380 0004 1868     		ldr	r0, [r3, #0]
 381 0006 8047     		blx	r0
 382              	.LVL17:
 383 0008 08BD     		pop	{r3, pc}
 384              	.L36:
 385 000a 00BF     		.align	2
 386              	.L35:
 387 000c 00000000 		.word	.LANCHOR11
 388              		.cfi_endproc
 389              	.LFE67:
 391              		.section	.text.nxGetInterface,"ax",%progbits
 392              		.align	1
 393              		.global	nxGetInterface
 394              		.thumb
 395              		.thumb_func
 397              	nxGetInterface:
 398              	.LFB68:
 203:lib/USB_Functions/usb_prop.c **** }
 204:lib/USB_Functions/usb_prop.c **** 
 205:lib/USB_Functions/usb_prop.c **** /**************************************************************************/
 206:lib/USB_Functions/usb_prop.c **** /*! 
 207:lib/USB_Functions/usb_prop.c ****     GetConfiguration wrapper
 208:lib/USB_Functions/usb_prop.c **** */
 209:lib/USB_Functions/usb_prop.c **** /**************************************************************************/
 210:lib/USB_Functions/usb_prop.c **** void nxGetInterface(void){
 399              		.loc 1 210 0
 400              		.cfi_startproc
 401              		@ args = 0, pretend = 0, frame = 0
 402              		@ frame_needed = 0, uses_anonymous_args = 0
 403 0000 08B5     		push	{r3, lr}
 404              	.LCFI12:
 405              		.cfi_def_cfa_offset 8
 406              		.cfi_offset 3, -8
 407              		.cfi_offset 14, -4
 211:lib/USB_Functions/usb_prop.c **** 	xGetInterface();
 408              		.loc 1 211 0
 409 0002 024B     		ldr	r3, .L38
 410 0004 1868     		ldr	r0, [r3, #0]
 411 0006 8047     		blx	r0
 412              	.LVL18:
 413 0008 08BD     		pop	{r3, pc}
 414              	.L39:
 415 000a 00BF     		.align	2
 416              	.L38:
 417 000c 00000000 		.word	.LANCHOR12
 418              		.cfi_endproc
 419              	.LFE68:
 421              		.section	.text.nxSetInterface,"ax",%progbits
 422              		.align	1
 423              		.global	nxSetInterface
 424              		.thumb
 425              		.thumb_func
 427              	nxSetInterface:
 428              	.LFB69:
 212:lib/USB_Functions/usb_prop.c **** }
 213:lib/USB_Functions/usb_prop.c **** 
 214:lib/USB_Functions/usb_prop.c **** /**************************************************************************/
 215:lib/USB_Functions/usb_prop.c **** /*! 
 216:lib/USB_Functions/usb_prop.c ****     SetInterface wrapper
 217:lib/USB_Functions/usb_prop.c **** */
 218:lib/USB_Functions/usb_prop.c **** /**************************************************************************/
 219:lib/USB_Functions/usb_prop.c **** void nxSetInterface(){
 429              		.loc 1 219 0
 430              		.cfi_startproc
 431              		@ args = 0, pretend = 0, frame = 0
 432              		@ frame_needed = 0, uses_anonymous_args = 0
 433 0000 08B5     		push	{r3, lr}
 434              	.LCFI13:
 435              		.cfi_def_cfa_offset 8
 436              		.cfi_offset 3, -8
 437              		.cfi_offset 14, -4
 220:lib/USB_Functions/usb_prop.c **** 	xSetInterface();
 438              		.loc 1 220 0
 439 0002 024B     		ldr	r3, .L41
 440 0004 1868     		ldr	r0, [r3, #0]
 441 0006 8047     		blx	r0
 442              	.LVL19:
 443 0008 08BD     		pop	{r3, pc}
 444              	.L42:
 445 000a 00BF     		.align	2
 446              	.L41:
 447 000c 00000000 		.word	.LANCHOR13
 448              		.cfi_endproc
 449              	.LFE69:
 451              		.section	.text.nxGetStatus,"ax",%progbits
 452              		.align	1
 453              		.global	nxGetStatus
 454              		.thumb
 455              		.thumb_func
 457              	nxGetStatus:
 458              	.LFB70:
 221:lib/USB_Functions/usb_prop.c **** }
 222:lib/USB_Functions/usb_prop.c **** 
 223:lib/USB_Functions/usb_prop.c **** /**************************************************************************/
 224:lib/USB_Functions/usb_prop.c **** /*! 
 225:lib/USB_Functions/usb_prop.c ****     GetStatus wrapper
 226:lib/USB_Functions/usb_prop.c **** */
 227:lib/USB_Functions/usb_prop.c **** /**************************************************************************/
 228:lib/USB_Functions/usb_prop.c **** void nxGetStatus(void){
 459              		.loc 1 228 0
 460              		.cfi_startproc
 461              		@ args = 0, pretend = 0, frame = 0
 462              		@ frame_needed = 0, uses_anonymous_args = 0
 463 0000 08B5     		push	{r3, lr}
 464              	.LCFI14:
 465              		.cfi_def_cfa_offset 8
 466              		.cfi_offset 3, -8
 467              		.cfi_offset 14, -4
 229:lib/USB_Functions/usb_prop.c **** 	xGetStatus();
 468              		.loc 1 229 0
 469 0002 024B     		ldr	r3, .L44
 470 0004 1868     		ldr	r0, [r3, #0]
 471 0006 8047     		blx	r0
 472              	.LVL20:
 473 0008 08BD     		pop	{r3, pc}
 474              	.L45:
 475 000a 00BF     		.align	2
 476              	.L44:
 477 000c 00000000 		.word	.LANCHOR14
 478              		.cfi_endproc
 479              	.LFE70:
 481              		.section	.text.nxClearFeature,"ax",%progbits
 482              		.align	1
 483              		.global	nxClearFeature
 484              		.thumb
 485              		.thumb_func
 487              	nxClearFeature:
 488              	.LFB71:
 230:lib/USB_Functions/usb_prop.c **** }
 231:lib/USB_Functions/usb_prop.c **** 
 232:lib/USB_Functions/usb_prop.c **** /**************************************************************************/
 233:lib/USB_Functions/usb_prop.c **** /*! 
 234:lib/USB_Functions/usb_prop.c ****     ClearFeature wrapper
 235:lib/USB_Functions/usb_prop.c **** */
 236:lib/USB_Functions/usb_prop.c **** /**************************************************************************/
 237:lib/USB_Functions/usb_prop.c **** void nxClearFeature(void){
 489              		.loc 1 237 0
 490              		.cfi_startproc
 491              		@ args = 0, pretend = 0, frame = 0
 492              		@ frame_needed = 0, uses_anonymous_args = 0
 493 0000 08B5     		push	{r3, lr}
 494              	.LCFI15:
 495              		.cfi_def_cfa_offset 8
 496              		.cfi_offset 3, -8
 497              		.cfi_offset 14, -4
 238:lib/USB_Functions/usb_prop.c **** 	xClearFeature();
 498              		.loc 1 238 0
 499 0002 024B     		ldr	r3, .L47
 500 0004 1868     		ldr	r0, [r3, #0]
 501 0006 8047     		blx	r0
 502              	.LVL21:
 503 0008 08BD     		pop	{r3, pc}
 504              	.L48:
 505 000a 00BF     		.align	2
 506              	.L47:
 507 000c 00000000 		.word	.LANCHOR15
 508              		.cfi_endproc
 509              	.LFE71:
 511              		.section	.text.nxSetEndPointFeature,"ax",%progbits
 512              		.align	1
 513              		.global	nxSetEndPointFeature
 514              		.thumb
 515              		.thumb_func
 517              	nxSetEndPointFeature:
 518              	.LFB72:
 239:lib/USB_Functions/usb_prop.c **** }
 240:lib/USB_Functions/usb_prop.c **** 
 241:lib/USB_Functions/usb_prop.c **** /**************************************************************************/
 242:lib/USB_Functions/usb_prop.c **** /*! 
 243:lib/USB_Functions/usb_prop.c ****     SetEndPointFeature wrapper
 244:lib/USB_Functions/usb_prop.c **** */
 245:lib/USB_Functions/usb_prop.c **** /**************************************************************************/
 246:lib/USB_Functions/usb_prop.c **** void nxSetEndPointFeature(void){
 519              		.loc 1 246 0
 520              		.cfi_startproc
 521              		@ args = 0, pretend = 0, frame = 0
 522              		@ frame_needed = 0, uses_anonymous_args = 0
 523 0000 08B5     		push	{r3, lr}
 524              	.LCFI16:
 525              		.cfi_def_cfa_offset 8
 526              		.cfi_offset 3, -8
 527              		.cfi_offset 14, -4
 247:lib/USB_Functions/usb_prop.c **** 	xSetEndPointFeature();
 528              		.loc 1 247 0
 529 0002 024B     		ldr	r3, .L50
 530 0004 1868     		ldr	r0, [r3, #0]
 531 0006 8047     		blx	r0
 532              	.LVL22:
 533 0008 08BD     		pop	{r3, pc}
 534              	.L51:
 535 000a 00BF     		.align	2
 536              	.L50:
 537 000c 00000000 		.word	.LANCHOR16
 538              		.cfi_endproc
 539              	.LFE72:
 541              		.section	.text.nxSetDeviceFeature,"ax",%progbits
 542              		.align	1
 543              		.global	nxSetDeviceFeature
 544              		.thumb
 545              		.thumb_func
 547              	nxSetDeviceFeature:
 548              	.LFB73:
 248:lib/USB_Functions/usb_prop.c **** }
 249:lib/USB_Functions/usb_prop.c **** 
 250:lib/USB_Functions/usb_prop.c **** /**************************************************************************/
 251:lib/USB_Functions/usb_prop.c **** /*! 
 252:lib/USB_Functions/usb_prop.c ****     SetDeviceFeature wrapper
 253:lib/USB_Functions/usb_prop.c **** */
 254:lib/USB_Functions/usb_prop.c **** /**************************************************************************/
 255:lib/USB_Functions/usb_prop.c **** void nxSetDeviceFeature(void){
 549              		.loc 1 255 0
 550              		.cfi_startproc
 551              		@ args = 0, pretend = 0, frame = 0
 552              		@ frame_needed = 0, uses_anonymous_args = 0
 553 0000 08B5     		push	{r3, lr}
 554              	.LCFI17:
 555              		.cfi_def_cfa_offset 8
 556              		.cfi_offset 3, -8
 557              		.cfi_offset 14, -4
 256:lib/USB_Functions/usb_prop.c **** 	xSetDeviceFeature();
 558              		.loc 1 256 0
 559 0002 024B     		ldr	r3, .L53
 560 0004 1868     		ldr	r0, [r3, #0]
 561 0006 8047     		blx	r0
 562              	.LVL23:
 563 0008 08BD     		pop	{r3, pc}
 564              	.L54:
 565 000a 00BF     		.align	2
 566              	.L53:
 567 000c 00000000 		.word	.LANCHOR17
 568              		.cfi_endproc
 569              	.LFE73:
 571              		.section	.text.nxSetDeviceAddress,"ax",%progbits
 572              		.align	1
 573              		.global	nxSetDeviceAddress
 574              		.thumb
 575              		.thumb_func
 577              	nxSetDeviceAddress:
 578              	.LFB74:
 257:lib/USB_Functions/usb_prop.c **** }
 258:lib/USB_Functions/usb_prop.c **** 
 259:lib/USB_Functions/usb_prop.c **** /**************************************************************************/
 260:lib/USB_Functions/usb_prop.c **** /*! 
 261:lib/USB_Functions/usb_prop.c ****     SetDeviceAddress wrapper
 262:lib/USB_Functions/usb_prop.c **** */
 263:lib/USB_Functions/usb_prop.c **** /**************************************************************************/
 264:lib/USB_Functions/usb_prop.c **** void nxSetDeviceAddress(void){
 579              		.loc 1 264 0
 580              		.cfi_startproc
 581              		@ args = 0, pretend = 0, frame = 0
 582              		@ frame_needed = 0, uses_anonymous_args = 0
 583 0000 08B5     		push	{r3, lr}
 584              	.LCFI18:
 585              		.cfi_def_cfa_offset 8
 586              		.cfi_offset 3, -8
 587              		.cfi_offset 14, -4
 265:lib/USB_Functions/usb_prop.c **** 	xSetDeviceFeature();
 588              		.loc 1 265 0
 589 0002 024B     		ldr	r3, .L56
 590 0004 1868     		ldr	r0, [r3, #0]
 591 0006 8047     		blx	r0
 592              	.LVL24:
 593 0008 08BD     		pop	{r3, pc}
 594              	.L57:
 595 000a 00BF     		.align	2
 596              	.L56:
 597 000c 00000000 		.word	.LANCHOR17
 598              		.cfi_endproc
 599              	.LFE74:
 601              		.global	User_Standard_Requests
 602              		.global	Device_Property
 603              		.global	Device_Table
 604              		.global	xSetDeviceAddress
 605              		.global	xSetDeviceFeature
 606              		.global	xSetEndPointFeature
 607              		.global	xClearFeature
 608              		.global	xGetStatus
 609              		.global	xSetInterface
 610              		.global	xGetInterface
 611              		.global	xSetConfiguration
 612              		.global	xGetConfiguration
 613              		.global	xGetStringDescriptor
 614              		.global	xGetConfigDescriptor
 615              		.global	xGetDeviceDescriptor
 616              		.global	xGet_Interface_Setting
 617              		.global	xNoData_Setup
 618              		.global	xData_Setup
 619              		.global	xStatus_Out
 620              		.global	xStatus_In
 621              		.global	xReset
 622              		.global	xinit
 623              		.section	.bss.xGet_Interface_Setting,"aw",%nobits
 624              		.align	2
 625              		.set	.LANCHOR6,. + 0
 628              	xGet_Interface_Setting:
 629 0000 00000000 		.space	4
 630              		.section	.bss.xGetInterface,"aw",%nobits
 631              		.align	2
 632              		.set	.LANCHOR12,. + 0
 635              	xGetInterface:
 636 0000 00000000 		.space	4
 637              		.section	.bss.xReset,"aw",%nobits
 638              		.align	2
 639              		.set	.LANCHOR1,. + 0
 642              	xReset:
 643 0000 00000000 		.space	4
 644              		.section	.bss.xGetStatus,"aw",%nobits
 645              		.align	2
 646              		.set	.LANCHOR14,. + 0
 649              	xGetStatus:
 650 0000 00000000 		.space	4
 651              		.section	.bss.xNoData_Setup,"aw",%nobits
 652              		.align	2
 653              		.set	.LANCHOR5,. + 0
 656              	xNoData_Setup:
 657 0000 00000000 		.space	4
 658              		.section	.bss.xGetConfiguration,"aw",%nobits
 659              		.align	2
 660              		.set	.LANCHOR10,. + 0
 663              	xGetConfiguration:
 664 0000 00000000 		.space	4
 665              		.section	.bss.xGetDeviceDescriptor,"aw",%nobits
 666              		.align	2
 667              		.set	.LANCHOR7,. + 0
 670              	xGetDeviceDescriptor:
 671 0000 00000000 		.space	4
 672              		.section	.bss.xGetConfigDescriptor,"aw",%nobits
 673              		.align	2
 674              		.set	.LANCHOR8,. + 0
 677              	xGetConfigDescriptor:
 678 0000 00000000 		.space	4
 679              		.section	.bss.xGetStringDescriptor,"aw",%nobits
 680              		.align	2
 681              		.set	.LANCHOR9,. + 0
 684              	xGetStringDescriptor:
 685 0000 00000000 		.space	4
 686              		.section	.bss.xData_Setup,"aw",%nobits
 687              		.align	2
 688              		.set	.LANCHOR4,. + 0
 691              	xData_Setup:
 692 0000 00000000 		.space	4
 693              		.section	.bss.xSetDeviceAddress,"aw",%nobits
 694              		.align	2
 697              	xSetDeviceAddress:
 698 0000 00000000 		.space	4
 699              		.section	.bss.xSetDeviceFeature,"aw",%nobits
 700              		.align	2
 701              		.set	.LANCHOR17,. + 0
 704              	xSetDeviceFeature:
 705 0000 00000000 		.space	4
 706              		.section	.bss.xClearFeature,"aw",%nobits
 707              		.align	2
 708              		.set	.LANCHOR15,. + 0
 711              	xClearFeature:
 712 0000 00000000 		.space	4
 713              		.section	.bss.xSetConfiguration,"aw",%nobits
 714              		.align	2
 715              		.set	.LANCHOR11,. + 0
 718              	xSetConfiguration:
 719 0000 00000000 		.space	4
 720              		.section	.bss.xStatus_In,"aw",%nobits
 721              		.align	2
 722              		.set	.LANCHOR2,. + 0
 725              	xStatus_In:
 726 0000 00000000 		.space	4
 727              		.section	.data.User_Standard_Requests,"aw",%progbits
 728              		.align	2
 731              	User_Standard_Requests:
 732 0000 00000000 		.word	nxGetConfiguration
 733 0004 00000000 		.word	nxSetConfiguration
 734 0008 00000000 		.word	nxGetInterface
 735 000c 00000000 		.word	nxSetInterface
 736 0010 00000000 		.word	nxGetStatus
 737 0014 00000000 		.word	nxClearFeature
 738 0018 00000000 		.word	nxSetEndPointFeature
 739 001c 00000000 		.word	nxSetDeviceFeature
 740 0020 00000000 		.word	nxSetDeviceAddress
 741              		.section	.bss.xSetEndPointFeature,"aw",%nobits
 742              		.align	2
 743              		.set	.LANCHOR16,. + 0
 746              	xSetEndPointFeature:
 747 0000 00000000 		.space	4
 748              		.section	.data.Device_Property,"aw",%progbits
 749              		.align	2
 752              	Device_Property:
 753 0000 00000000 		.word	nxinit
 754 0004 00000000 		.word	nxReset
 755 0008 00000000 		.word	nxStatus_In
 756 000c 00000000 		.word	nxStatus_Out
 757 0010 00000000 		.word	nxData_Setup
 758 0014 00000000 		.word	nxNoData_Setup
 759 0018 00000000 		.word	nxGet_Interface_Setting
 760 001c 00000000 		.word	nxGetDeviceDescriptor
 761 0020 00000000 		.word	nxGetConfigDescriptor
 762 0024 00000000 		.word	nxGetStringDescriptor
 763 0028 00000000 		.word	0
 764 002c 40       		.byte	64
 765 002d 000000   		.space	3
 766              		.section	.bss.xSetInterface,"aw",%nobits
 767              		.align	2
 768              		.set	.LANCHOR13,. + 0
 771              	xSetInterface:
 772 0000 00000000 		.space	4
 773              		.section	.data.Device_Table,"aw",%progbits
 776              	Device_Table:
 777 0000 03       		.byte	3
 778 0001 01       		.byte	1
 779              		.section	.bss.xinit,"aw",%nobits
 780              		.align	2
 781              		.set	.LANCHOR0,. + 0
 784              	xinit:
 785 0000 00000000 		.space	4
 786              		.section	.bss.xStatus_Out,"aw",%nobits
 787              		.align	2
 788              		.set	.LANCHOR3,. + 0
 791              	xStatus_Out:
 792 0000 00000000 		.space	4
 793              		.text
 794              	.Letext0:
 795              		.file 2 "c:\\devz\\arm\\launchpad\\bin\\../lib/gcc/arm-none-eabi/4.7.3/include/stdint-gcc.h"
 796              		.file 3 "./lib/STM32_USB-FS-Device_Driver/inc/usb_core.h"
 797              		.file 4 "./lib/CMSIS/Include/core_cm3.h"