Archive member included because of file (symbol)

STM32F103VET6_lib.a(misc.o)   src/cdc_support.o (NVIC_PriorityGroupConfig)
STM32F103VET6_lib.a(stm32f10x_gpio.o)
                              src/hw_config.o (GPIO_Init)
STM32F103VET6_lib.a(stm32f10x_fsmc.o)
                              lib/display/mcu_depend/src/display_if_basis.o (FSMC_NORSRAMInit)
STM32F103VET6_lib.a(stm32f10x_rcc.o)
                              src/hw_config.o (RCC_PLLConfig)
STM32F103VET6_lib.a(stm32f10x_adc.o)
                              src/adc_support.o (ADC_Init)
STM32F103VET6_lib.a(stm32f10x_dma.o)
                              src/adc_support.o (DMA_DeInit)
STM32F103VET6_lib.a(stm32f10x_tim.o)
                              src/systick.o (TIM_TimeBaseInit)
STM32F103VET6_lib.a(stm32f10x_rtc.o)
                              src/rtc_support.o (RTC_ITConfig)
STM32F103VET6_lib.a(stm32f10x_sdio.o)
                              lib/ff/sdio_stm32f1.o (SDIO_DeInit)
STM32F103VET6_lib.a(stm32f10x_usart.o)
                              src/cdc_support.o (USART_Init)
STM32F103VET6_lib.a(stm32f10x_bkp.o)
                              src/rtc_support.o (BKP_DeInit)
STM32F103VET6_lib.a(stm32f10x_pwr.o)
                              src/rtc_support.o (PWR_BackupAccessCmd)
STM32F103VET6_lib.a(usb_core.o)
                              lib/USB_Functions/cdc/src/usb_cdc_prop.o (Standard_GetDescriptorData)
STM32F103VET6_lib.a(usb_init.o)
                              src/cdc_support.o (USB_Init)
STM32F103VET6_lib.a(usb_int.o)
                              lib/USB_Functions/usb_istr.o (CTR_LP)
STM32F103VET6_lib.a(usb_mem.o)
                              src/cdc_support.o (UserToPMABufferCopy)
STM32F103VET6_lib.a(usb_regs.o)
                              lib/USB_Functions/cdc/src/usb_cdc_prop.o (SetBTABLE)
STM32F103VET6_lib.a(usb_sil.o)
                              lib/USB_Functions/cdc/src/usb_cdc_prop.o (USB_SIL_Init)
STM32F103VET6_lib.a(startup_stm32f10x_hd.o)
                              (g_pfnVectors)
c:/devz/arm/launchpad/bin/../lib/gcc/arm-none-eabi/4.7.3/armv7-m\libgcc.a(_arm_addsubdf3.o)
                              lib/display/abstract/src/display_if_support.o (__aeabi_dadd)
c:/devz/arm/launchpad/bin/../lib/gcc/arm-none-eabi/4.7.3/armv7-m\libgcc.a(_arm_muldivdf3.o)
                              lib/display/abstract/src/display_if_support.o (__aeabi_dmul)
c:/devz/arm/launchpad/bin/../lib/gcc/arm-none-eabi/4.7.3/armv7-m\libgcc.a(_arm_cmpdf2.o)
                              lib/display/abstract/src/display_if_support.o (__aeabi_dcmpeq)
c:/devz/arm/launchpad/bin/../lib/gcc/arm-none-eabi/4.7.3/armv7-m\libgcc.a(_arm_fixdfsi.o)
                              lib/display/abstract/src/display_if_support.o (__aeabi_d2iz)
c:/devz/arm/launchpad/bin/../lib/gcc/arm-none-eabi/4.7.3/../../../../arm-none-eabi/lib/armv7-m\libc_s.a(lib_a-errno.o)
                              src/syscalls.o (__errno)
c:/devz/arm/launchpad/bin/../lib/gcc/arm-none-eabi/4.7.3/../../../../arm-none-eabi/lib/armv7-m\libc_s.a(lib_a-impure.o)
                              c:/devz/arm/launchpad/bin/../lib/gcc/arm-none-eabi/4.7.3/../../../../arm-none-eabi/lib/armv7-m\libc_s.a(lib_a-errno.o) (_impure_ptr)
c:/devz/arm/launchpad/bin/../lib/gcc/arm-none-eabi/4.7.3/../../../../arm-none-eabi/lib/armv7-m\libc_s.a(lib_a-lcltime.o)
                              src/rtc_support.o (localtime)
c:/devz/arm/launchpad/bin/../lib/gcc/arm-none-eabi/4.7.3/../../../../arm-none-eabi/lib/armv7-m\libc_s.a(lib_a-lcltime_r.o)
                              c:/devz/arm/launchpad/bin/../lib/gcc/arm-none-eabi/4.7.3/../../../../arm-none-eabi/lib/armv7-m\libc_s.a(lib_a-lcltime.o) (localtime_r)
c:/devz/arm/launchpad/bin/../lib/gcc/arm-none-eabi/4.7.3/../../../../arm-none-eabi/lib/armv7-m\libc_s.a(lib_a-malloc.o)
                              c:/devz/arm/launchpad/bin/../lib/gcc/arm-none-eabi/4.7.3/../../../../arm-none-eabi/lib/armv7-m\libc_s.a(lib_a-lcltime.o) (malloc)
c:/devz/arm/launchpad/bin/../lib/gcc/arm-none-eabi/4.7.3/../../../../arm-none-eabi/lib/armv7-m\libc_s.a(lib_a-mallocr.o)
                              c:/devz/arm/launchpad/bin/../lib/gcc/arm-none-eabi/4.7.3/../../../../arm-none-eabi/lib/armv7-m\libc_s.a(lib_a-malloc.o) (_malloc_r)
c:/devz/arm/launchpad/bin/../lib/gcc/arm-none-eabi/4.7.3/../../../../arm-none-eabi/lib/armv7-m\libc_s.a(lib_a-memcpy.o)
                              lib/ff/diskio_sdio.o (memcpy)
c:/devz/arm/launchpad/bin/../lib/gcc/arm-none-eabi/4.7.3/../../../../arm-none-eabi/lib/armv7-m\libc_s.a(lib_a-memset.o)
                              src/uart_support_gps.o (memset)
c:/devz/arm/launchpad/bin/../lib/gcc/arm-none-eabi/4.7.3/../../../../arm-none-eabi/lib/armv7-m\libc_s.a(lib_a-mktime.o)
                              src/rtc_support.o (mktime)
c:/devz/arm/launchpad/bin/../lib/gcc/arm-none-eabi/4.7.3/../../../../arm-none-eabi/lib/armv7-m\libc_s.a(lib_a-mktm_r.o)
                              c:/devz/arm/launchpad/bin/../lib/gcc/arm-none-eabi/4.7.3/../../../../arm-none-eabi/lib/armv7-m\libc_s.a(lib_a-mktime.o) (__tzcalc_limits)
c:/devz/arm/launchpad/bin/../lib/gcc/arm-none-eabi/4.7.3/../../../../arm-none-eabi/lib/armv7-m\libc_s.a(lib_a-tzlock.o)
                              c:/devz/arm/launchpad/bin/../lib/gcc/arm-none-eabi/4.7.3/../../../../arm-none-eabi/lib/armv7-m\libc_s.a(lib_a-mktm_r.o) (__tz_lock)
c:/devz/arm/launchpad/bin/../lib/gcc/arm-none-eabi/4.7.3/../../../../arm-none-eabi/lib/armv7-m\libc_s.a(lib_a-tzvars.o)
                              c:/devz/arm/launchpad/bin/../lib/gcc/arm-none-eabi/4.7.3/../../../../arm-none-eabi/lib/armv7-m\libc_s.a(lib_a-mktime.o) (_daylight)
c:/devz/arm/launchpad/bin/../lib/gcc/arm-none-eabi/4.7.3/../../../../arm-none-eabi/lib/armv7-m\libc_s.a(lib_a-div.o)
                              c:/devz/arm/launchpad/bin/../lib/gcc/arm-none-eabi/4.7.3/../../../../arm-none-eabi/lib/armv7-m\libc_s.a(lib_a-mktime.o) (div)
c:/devz/arm/launchpad/bin/../lib/gcc/arm-none-eabi/4.7.3/../../../../arm-none-eabi/lib/armv7-m\libc_s.a(lib_a-freer.o)
                              c:/devz/arm/launchpad/bin/../lib/gcc/arm-none-eabi/4.7.3/../../../../arm-none-eabi/lib/armv7-m\libc_s.a(lib_a-malloc.o) (_free_r)
c:/devz/arm/launchpad/bin/../lib/gcc/arm-none-eabi/4.7.3/../../../../arm-none-eabi/lib/armv7-m\libc_s.a(lib_a-gettzinfo.o)
                              c:/devz/arm/launchpad/bin/../lib/gcc/arm-none-eabi/4.7.3/../../../../arm-none-eabi/lib/armv7-m\libc_s.a(lib_a-mktime.o) (__gettzinfo)

Discarded input sections

 .text          0x00000000        0x0 src/main.o
 .data          0x00000000        0x0 src/main.o
 .bss           0x00000000        0x0 src/main.o
 .text          0x00000000        0x0 src/sysinit_primer2.o
 .data          0x00000000        0x0 src/sysinit_primer2.o
 .bss           0x00000000        0x0 src/sysinit_primer2.o
 .text          0x00000000        0x0 src/systick.o
 .data          0x00000000        0x0 src/systick.o
 .bss           0x00000000        0x0 src/systick.o
 .text._delay_us
                0x00000000       0x28 src/systick.o
 .text.Delay    0x00000000       0x1e src/systick.o
 .text          0x00000000        0x0 src/syscalls.o
 .data          0x00000000        0x0 src/syscalls.o
 .bss           0x00000000        0x0 src/syscalls.o
 .text._read_r  0x00000000       0x34 src/syscalls.o
 .text._write_r
                0x00000000       0x28 src/syscalls.o
 .text._fini    0x00000000        0x2 src/syscalls.o
 .text._close_r
                0x00000000        0x4 src/syscalls.o
 .text._lseek_r
                0x00000000        0x4 src/syscalls.o
 .text._fstat_r
                0x00000000        0xa src/syscalls.o
 .text.isatty   0x00000000        0x4 src/syscalls.o
 .text._exit    0x00000000        0x2 src/syscalls.o
 .text._getpid  0x00000000        0x4 src/syscalls.o
 .text._sbrk    0x00000000       0x34 src/syscalls.o
 .text._open    0x00000000        0x8 src/syscalls.o
 .text._close   0x00000000        0x4 src/syscalls.o
 .text._fstat   0x00000000        0xa src/syscalls.o
 .text._isatty  0x00000000        0x4 src/syscalls.o
 .text._lseek   0x00000000        0x4 src/syscalls.o
 .text._read    0x00000000        0xe src/syscalls.o
 .text._write   0x00000000       0x1a src/syscalls.o
 .text._times   0x00000000        0x6 src/syscalls.o
 .text._link    0x00000000       0x10 src/syscalls.o
 .text._unlink  0x00000000       0x10 src/syscalls.o
 .text._wait    0x00000000       0x10 src/syscalls.o
 .text._execve  0x00000000       0x10 src/syscalls.o
 .text._fork    0x00000000       0x10 src/syscalls.o
 .text._kill    0x00000000       0x10 src/syscalls.o
 .text          0x00000000        0x0 src/stm32f10x_it.o
 .data          0x00000000        0x0 src/stm32f10x_it.o
 .bss           0x00000000        0x0 src/stm32f10x_it.o
 .text          0x00000000        0x0 src/hw_config.o
 .data          0x00000000        0x0 src/hw_config.o
 .bss           0x00000000        0x0 src/hw_config.o
 .text.JoyInp_Chk
                0x00000000       0x60 src/hw_config.o
 .text.Enter_LowPowerMode
                0x00000000        0xc src/hw_config.o
 .text.Leave_LowPowerMode
                0x00000000       0x1c src/hw_config.o
 .bss.now.8848  0x00000000        0x4 src/hw_config.o
 .bss.keycounts.8846
                0x00000000        0x4 src/hw_config.o
 .bss.prev.8847
                0x00000000        0x4 src/hw_config.o
 .text          0x00000000        0x0 src/power.o
 .data          0x00000000        0x0 src/power.o
 .bss           0x00000000        0x0 src/power.o
 .text.GetTemp  0x00000000       0x68 src/power.o
 .text          0x00000000        0x0 src/adc_support.o
 .data          0x00000000        0x0 src/adc_support.o
 .bss           0x00000000        0x0 src/adc_support.o
 .text          0x00000000        0x0 src/rtc_support.o
 .data          0x00000000        0x0 src/rtc_support.o
 .bss           0x00000000        0x0 src/rtc_support.o
 .text.Time_ConvCalendarToUnix
                0x00000000       0x20 src/rtc_support.o
 .text.Time_GetUnixTime
                0x00000000        0x4 src/rtc_support.o
 .bss.current_time
                0x00000000        0x4 src/rtc_support.o
 .bss.TimeDisplay
                0x00000000        0x4 src/rtc_support.o
 .text          0x00000000        0x0 src/gps_support.o
 .data          0x00000000        0x0 src/gps_support.o
 .bss           0x00000000        0x0 src/gps_support.o
 .text.ff_support_timerproc
                0x00000000       0x10 src/gps_support.o
 .bss.Dir       0x00000000       0x1c src/gps_support.o
 .bss.Timer     0x00000000        0x4 src/gps_support.o
 .text          0x00000000        0x0 src/cdc_support.o
 .data          0x00000000        0x0 src/cdc_support.o
 .bss           0x00000000        0x0 src/cdc_support.o
 .text          0x00000000        0x0 src/msc_support.o
 .data          0x00000000        0x0 src/msc_support.o
 .bss           0x00000000        0x0 src/msc_support.o
 .text          0x00000000        0x0 src/uart_support_gps.o
 .data          0x00000000        0x0 src/uart_support_gps.o
 .bss           0x00000000        0x0 src/uart_support_gps.o
 .text.USART_TXBuffer_FreeSpace
                0x00000000       0x18 src/uart_support_gps.o
 .text.USART_RXBufferData_Available
                0x00000000       0x14 src/uart_support_gps.o
 .text.keypressed
                0x00000000       0x1c src/uart_support_gps.o
 .text.cputs    0x00000000       0x12 src/uart_support_gps.o
 .text.cgets    0x00000000       0x6a src/uart_support_gps.o
 .text          0x00000000        0x0 src/term_io.o
 .data          0x00000000        0x0 src/term_io.o
 .bss           0x00000000        0x0 src/term_io.o
 .text          0x00000000        0x0 src/xprintf.o
 .data          0x00000000        0x0 src/xprintf.o
 .bss           0x00000000        0x0 src/xprintf.o
 .text.xfputs   0x00000000       0x24 src/xprintf.o
 .text.xfprintf
                0x00000000       0x28 src/xprintf.o
 .text.put_dump
                0x00000000       0x88 src/xprintf.o
 .text.xgets    0x00000000       0x58 src/xprintf.o
 .text.xfgets   0x00000000       0x18 src/xprintf.o
 .text.xatoi    0x00000000       0xa6 src/xprintf.o
 .rodata.str1.1
                0x00000000       0x1a src/xprintf.o
 .text          0x00000000        0x0 lib/display/mcu_depend/src/display_if_basis.o
 .data          0x00000000        0x0 lib/display/mcu_depend/src/display_if_basis.o
 .bss           0x00000000        0x0 lib/display/mcu_depend/src/display_if_basis.o
 .text          0x00000000        0x0 lib/display/abstract/src/display_if_support.o
 .data          0x00000000        0x0 lib/display/abstract/src/display_if_support.o
 .bss           0x00000000        0x0 lib/display/abstract/src/display_if_support.o
 .text.Display_ChrCol
                0x00000000       0x10 lib/display/abstract/src/display_if_support.o
 .text.PutPixel
                0x00000000       0x12 lib/display/abstract/src/display_if_support.o
 .text.Display_FillRect_If
                0x00000000       0x3c lib/display/abstract/src/display_if_support.o
 .text.Display_DrawLine_If
                0x00000000       0xb8 lib/display/abstract/src/display_if_support.o
 .text.Display_DrawCircle_If
                0x00000000      0x4b4 lib/display/abstract/src/display_if_support.o
 .text.Display_FillCircle_If
                0x00000000       0xfc lib/display/abstract/src/display_if_support.o
 .text.Display_DrawRect_If
                0x00000000       0x94 lib/display/abstract/src/display_if_support.o
 .text.Display_Puts_If_Ex
                0x00000000       0xa0 lib/display/abstract/src/display_if_support.o
 .text          0x00000000        0x0 lib/display/drivers/src/st7732.o
 .data          0x00000000        0x0 lib/display/drivers/src/st7732.o
 .bss           0x00000000        0x0 lib/display/drivers/src/st7732.o
 .text.ST7732_wr_cmd
                0x00000000        0xa lib/display/drivers/src/st7732.o
 .text.ST7732_wr_dat
                0x00000000        0xc lib/display/drivers/src/st7732.o
 .text.ST7732_wr_block
                0x00000000       0x4c lib/display/drivers/src/st7732.o
 .text.ST7732_draw_bmp
                0x00000000      0x12e lib/display/drivers/src/st7732.o
 .text          0x00000000        0x0 lib/FONTX2/src/font_if_datatable.o
 .data          0x00000000        0x0 lib/FONTX2/src/font_if_datatable.o
 .bss           0x00000000        0x0 lib/FONTX2/src/font_if_datatable.o
 .text          0x00000000        0x0 lib/FONTX2/src/font_if.o
 .data          0x00000000        0x0 lib/FONTX2/src/font_if.o
 .bss           0x00000000        0x0 lib/FONTX2/src/font_if.o
 .text.InitFont_Kanji
                0x00000000       0x54 lib/FONTX2/src/font_if.o
 .text.ChangeCurrentKanji
                0x00000000        0xc lib/FONTX2/src/font_if.o
 .text          0x00000000        0x0 lib/ff/ff.o
 .data          0x00000000        0x0 lib/ff/ff.o
 .bss           0x00000000        0x0 lib/ff/ff.o
 .text.get_fileinfo
                0x00000000       0x64 lib/ff/ff.o
 .text.dir_remove
                0x00000000       0x24 lib/ff/ff.o
 .text.dir_read
                0x00000000       0x5a lib/ff/ff.o
 .text.f_read   0x00000000      0x138 lib/ff/ff.o
 .text.f_chdrive
                0x00000000       0x10 lib/ff/ff.o
 .text.f_chdir  0x00000000       0x5c lib/ff/ff.o
 .text.f_getcwd
                0x00000000      0x128 lib/ff/ff.o
 .text.f_opendir
                0x00000000       0x66 lib/ff/ff.o
 .text.f_readdir
                0x00000000       0x52 lib/ff/ff.o
 .text.f_stat   0x00000000       0x40 lib/ff/ff.o
 .text.f_getfree
                0x00000000       0xc2 lib/ff/ff.o
 .text.f_truncate
                0x00000000       0x8e lib/ff/ff.o
 .text.f_unlink
                0x00000000       0xd6 lib/ff/ff.o
 .text.f_mkdir  0x00000000      0x152 lib/ff/ff.o
 .text.f_chmod  0x00000000       0x5c lib/ff/ff.o
 .text.f_utime  0x00000000       0x50 lib/ff/ff.o
 .text.f_rename
                0x00000000      0x10e lib/ff/ff.o
 .text.f_getlabel
                0x00000000       0x7e lib/ff/ff.o
 .text.f_setlabel
                0x00000000      0x17c lib/ff/ff.o
 .text.f_forward
                0x00000000       0xdc lib/ff/ff.o
 .text.f_mkfs   0x00000000      0x460 lib/ff/ff.o
 .text.f_gets   0x00000000       0x44 lib/ff/ff.o
 .text.f_putc   0x00000000       0x22 lib/ff/ff.o
 .text.f_puts   0x00000000       0x22 lib/ff/ff.o
 .text.f_printf
                0x00000000      0x260 lib/ff/ff.o
 .rodata.cst.4341
                0x00000000       0x16 lib/ff/ff.o
 .rodata.vst.4340
                0x00000000       0x16 lib/ff/ff.o
 .text          0x00000000        0x0 lib/ff/sdio_stm32f1.o
 .data          0x00000000        0x0 lib/ff/sdio_stm32f1.o
 .bss           0x00000000        0x0 lib/ff/sdio_stm32f1.o
 .text.SD_DeInit
                0x00000000       0x4c lib/ff/sdio_stm32f1.o
 .text.SD_Detect
                0x00000000       0x10 lib/ff/sdio_stm32f1.o
 .text.SD_PowerOFF
                0x00000000        0xc lib/ff/sdio_stm32f1.o
 .text.SD_GetTransferState
                0x00000000       0x14 lib/ff/sdio_stm32f1.o
 .text.SD_Erase
                0x00000000       0xf4 lib/ff/sdio_stm32f1.o
 .text.SD_SendStatus
                0x00000000       0x4c lib/ff/sdio_stm32f1.o
 .text.SD_GetState
                0x00000000       0x2a lib/ff/sdio_stm32f1.o
 .text.SD_GetStatus
                0x00000000       0x18 lib/ff/sdio_stm32f1.o
 .text          0x00000000        0x0 lib/ff/diskio_sdio.o
 .data          0x00000000        0x0 lib/ff/diskio_sdio.o
 .bss           0x00000000        0x0 lib/ff/diskio_sdio.o
 .bss.Timer1    0x00000000        0x4 lib/ff/diskio_sdio.o
 .bss.Timer2    0x00000000        0x4 lib/ff/diskio_sdio.o
 .data.Stat     0x00000000        0x1 lib/ff/diskio_sdio.o
 .text          0x00000000        0x0 lib/ff/ff_rtc_if.o
 .data          0x00000000        0x0 lib/ff/ff_rtc_if.o
 .bss           0x00000000        0x0 lib/ff/ff_rtc_if.o
 .text.rtc_settime
                0x00000000       0x40 lib/ff/ff_rtc_if.o
 .text          0x00000000        0x0 lib/ff/option/unicode.o
 .data          0x00000000        0x0 lib/ff/option/unicode.o
 .bss           0x00000000        0x0 lib/ff/option/unicode.o
 .text          0x00000000        0x0 lib/USB_Functions/usb_pwr.o
 .data          0x00000000        0x0 lib/USB_Functions/usb_pwr.o
 .bss           0x00000000        0x0 lib/USB_Functions/usb_pwr.o
 .text.PowerOff
                0x00000000       0x24 lib/USB_Functions/usb_pwr.o
 .text.Suspend  0x00000000       0x20 lib/USB_Functions/usb_pwr.o
 .text.Resume_Init
                0x00000000       0x20 lib/USB_Functions/usb_pwr.o
 .text.Resume   0x00000000       0x88 lib/USB_Functions/usb_pwr.o
 .bss.ResumeS   0x00000000        0x2 lib/USB_Functions/usb_pwr.o
 .data.fSuspendEnabled
                0x00000000        0x1 lib/USB_Functions/usb_pwr.o
 .text          0x00000000        0x0 lib/USB_Functions/usb_istr.o
 .data          0x00000000        0x0 lib/USB_Functions/usb_istr.o
 .bss           0x00000000        0x0 lib/USB_Functions/usb_istr.o
 .text          0x00000000        0x0 lib/USB_Functions/usb_conf.o
 .data          0x00000000        0x0 lib/USB_Functions/usb_conf.o
 .bss           0x00000000        0x0 lib/USB_Functions/usb_conf.o
 .text          0x00000000        0x0 lib/USB_Functions/usb_prop.o
 .data          0x00000000        0x0 lib/USB_Functions/usb_prop.o
 .bss           0x00000000        0x0 lib/USB_Functions/usb_prop.o
 .text          0x00000000        0x0 lib/USB_Functions/cdc/src/usb_cdc_desc.o
 .data          0x00000000        0x0 lib/USB_Functions/cdc/src/usb_cdc_desc.o
 .bss           0x00000000        0x0 lib/USB_Functions/cdc/src/usb_cdc_desc.o
 .text          0x00000000        0x0 lib/USB_Functions/cdc/src/usb_cdc_prop.o
 .data          0x00000000        0x0 lib/USB_Functions/cdc/src/usb_cdc_prop.o
 .bss           0x00000000        0x0 lib/USB_Functions/cdc/src/usb_cdc_prop.o
 .text          0x00000000        0x0 lib/USB_Functions/cdc/src/usb_cdc_endp.o
 .data          0x00000000        0x0 lib/USB_Functions/cdc/src/usb_cdc_endp.o
 .bss           0x00000000        0x0 lib/USB_Functions/cdc/src/usb_cdc_endp.o
 .text          0x00000000        0x0 lib/USB_Functions/msc/src/usb_msc_mass_mal.o
 .data          0x00000000        0x0 lib/USB_Functions/msc/src/usb_msc_mass_mal.o
 .bss           0x00000000        0x0 lib/USB_Functions/msc/src/usb_msc_mass_mal.o
 .text          0x00000000        0x0 lib/USB_Functions/msc/src/usb_msc_memory.o
 .data          0x00000000        0x0 lib/USB_Functions/msc/src/usb_msc_memory.o
 .bss           0x00000000        0x0 lib/USB_Functions/msc/src/usb_msc_memory.o
 .text          0x00000000        0x0 lib/USB_Functions/msc/src/usb_msc_scsi_data.o
 .data          0x00000000        0x0 lib/USB_Functions/msc/src/usb_msc_scsi_data.o
 .bss           0x00000000        0x0 lib/USB_Functions/msc/src/usb_msc_scsi_data.o
 .text          0x00000000        0x0 lib/USB_Functions/msc/src/usb_msc_scsi.o
 .data          0x00000000        0x0 lib/USB_Functions/msc/src/usb_msc_scsi.o
 .bss           0x00000000        0x0 lib/USB_Functions/msc/src/usb_msc_scsi.o
 .text.SCSI_Valid_Cmd
                0x00000000       0x30 lib/USB_Functions/msc/src/usb_msc_scsi.o
 .text          0x00000000        0x0 lib/USB_Functions/msc/src/usb_msc_bot.o
 .data          0x00000000        0x0 lib/USB_Functions/msc/src/usb_msc_bot.o
 .bss           0x00000000        0x0 lib/USB_Functions/msc/src/usb_msc_bot.o
 .text          0x00000000        0x0 lib/USB_Functions/msc/src/usb_msc_desc.o
 .data          0x00000000        0x0 lib/USB_Functions/msc/src/usb_msc_desc.o
 .bss           0x00000000        0x0 lib/USB_Functions/msc/src/usb_msc_desc.o
 .text          0x00000000        0x0 lib/USB_Functions/msc/src/usb_msc_prop.o
 .data          0x00000000        0x0 lib/USB_Functions/msc/src/usb_msc_prop.o
 .bss           0x00000000        0x0 lib/USB_Functions/msc/src/usb_msc_prop.o
 .text          0x00000000        0x0 STM32F103VET6_lib.a(misc.o)
 .data          0x00000000        0x0 STM32F103VET6_lib.a(misc.o)
 .bss           0x00000000        0x0 STM32F103VET6_lib.a(misc.o)
 .text.NVIC_SystemLPConfig
                0x00000000       0x18 STM32F103VET6_lib.a(misc.o)
 .text          0x00000000        0x0 STM32F103VET6_lib.a(stm32f10x_gpio.o)
 .data          0x00000000        0x0 STM32F103VET6_lib.a(stm32f10x_gpio.o)
 .bss           0x00000000        0x0 STM32F103VET6_lib.a(stm32f10x_gpio.o)
 .text.GPIO_DeInit
                0x00000000       0xac STM32F103VET6_lib.a(stm32f10x_gpio.o)
 .text.GPIO_AFIODeInit
                0x00000000       0x16 STM32F103VET6_lib.a(stm32f10x_gpio.o)
 .text.GPIO_StructInit
                0x00000000       0x10 STM32F103VET6_lib.a(stm32f10x_gpio.o)
 .text.GPIO_ReadInputData
                0x00000000        0x6 STM32F103VET6_lib.a(stm32f10x_gpio.o)
 .text.GPIO_ReadOutputDataBit
                0x00000000        0xc STM32F103VET6_lib.a(stm32f10x_gpio.o)
 .text.GPIO_ReadOutputData
                0x00000000        0x6 STM32F103VET6_lib.a(stm32f10x_gpio.o)
 .text.GPIO_WriteBit
                0x00000000        0xa STM32F103VET6_lib.a(stm32f10x_gpio.o)
 .text.GPIO_Write
                0x00000000        0x4 STM32F103VET6_lib.a(stm32f10x_gpio.o)
 .text.GPIO_PinLockConfig
                0x00000000       0x10 STM32F103VET6_lib.a(stm32f10x_gpio.o)
 .text.GPIO_EventOutputConfig
                0x00000000       0x1c STM32F103VET6_lib.a(stm32f10x_gpio.o)
 .text.GPIO_EventOutputCmd
                0x00000000        0xc STM32F103VET6_lib.a(stm32f10x_gpio.o)
 .text.GPIO_PinRemapConfig
                0x00000000       0x64 STM32F103VET6_lib.a(stm32f10x_gpio.o)
 .text.GPIO_EXTILineConfig
                0x00000000       0x34 STM32F103VET6_lib.a(stm32f10x_gpio.o)
 .text.GPIO_ETH_MediaInterfaceConfig
                0x00000000        0xc STM32F103VET6_lib.a(stm32f10x_gpio.o)
 .text          0x00000000        0x0 STM32F103VET6_lib.a(stm32f10x_fsmc.o)
 .data          0x00000000        0x0 STM32F103VET6_lib.a(stm32f10x_fsmc.o)
 .bss           0x00000000        0x0 STM32F103VET6_lib.a(stm32f10x_fsmc.o)
 .text.FSMC_NORSRAMDeInit
                0x00000000       0x2e STM32F103VET6_lib.a(stm32f10x_fsmc.o)
 .text.FSMC_NANDDeInit
                0x00000000       0x28 STM32F103VET6_lib.a(stm32f10x_fsmc.o)
 .text.FSMC_PCCARDDeInit
                0x00000000       0x1c STM32F103VET6_lib.a(stm32f10x_fsmc.o)
 .text.FSMC_NANDInit
                0x00000000       0x6c STM32F103VET6_lib.a(stm32f10x_fsmc.o)
 .text.FSMC_PCCARDInit
                0x00000000       0x68 STM32F103VET6_lib.a(stm32f10x_fsmc.o)
 .text.FSMC_NORSRAMStructInit
                0x00000000       0x66 STM32F103VET6_lib.a(stm32f10x_fsmc.o)
 .text.FSMC_NANDStructInit
                0x00000000       0x36 STM32F103VET6_lib.a(stm32f10x_fsmc.o)
 .text.FSMC_PCCARDStructInit
                0x00000000       0x3c STM32F103VET6_lib.a(stm32f10x_fsmc.o)
 .text.FSMC_NANDCmd
                0x00000000       0x34 STM32F103VET6_lib.a(stm32f10x_fsmc.o)
 .text.FSMC_PCCARDCmd
                0x00000000       0x20 STM32F103VET6_lib.a(stm32f10x_fsmc.o)
 .text.FSMC_NANDECCCmd
                0x00000000       0x34 STM32F103VET6_lib.a(stm32f10x_fsmc.o)
 .text.FSMC_GetECC
                0x00000000       0x14 STM32F103VET6_lib.a(stm32f10x_fsmc.o)
 .text.FSMC_ITConfig
                0x00000000       0x4c STM32F103VET6_lib.a(stm32f10x_fsmc.o)
 .text.FSMC_GetFlagStatus
                0x00000000       0x2c STM32F103VET6_lib.a(stm32f10x_fsmc.o)
 .text.FSMC_ClearFlag
                0x00000000       0x30 STM32F103VET6_lib.a(stm32f10x_fsmc.o)
 .text.FSMC_GetITStatus
                0x00000000       0x34 STM32F103VET6_lib.a(stm32f10x_fsmc.o)
 .text.FSMC_ClearITPendingBit
                0x00000000       0x34 STM32F103VET6_lib.a(stm32f10x_fsmc.o)
 .text          0x00000000        0x0 STM32F103VET6_lib.a(stm32f10x_rcc.o)
 .data          0x00000000        0x0 STM32F103VET6_lib.a(stm32f10x_rcc.o)
 .bss           0x00000000        0x0 STM32F103VET6_lib.a(stm32f10x_rcc.o)
 .text.RCC_DeInit
                0x00000000       0x40 STM32F103VET6_lib.a(stm32f10x_rcc.o)
 .text.RCC_HSEConfig
                0x00000000       0x34 STM32F103VET6_lib.a(stm32f10x_rcc.o)
 .text.RCC_AdjustHSICalibrationValue
                0x00000000       0x14 STM32F103VET6_lib.a(stm32f10x_rcc.o)
 .text.RCC_HSICmd
                0x00000000        0xc STM32F103VET6_lib.a(stm32f10x_rcc.o)
 .text.RCC_HCLKConfig
                0x00000000       0x14 STM32F103VET6_lib.a(stm32f10x_rcc.o)
 .text.RCC_PCLK1Config
                0x00000000       0x14 STM32F103VET6_lib.a(stm32f10x_rcc.o)
 .text.RCC_PCLK2Config
                0x00000000       0x14 STM32F103VET6_lib.a(stm32f10x_rcc.o)
 .text.RCC_ITConfig
                0x00000000       0x18 STM32F103VET6_lib.a(stm32f10x_rcc.o)
 .text.RCC_ADCCLKConfig
                0x00000000       0x14 STM32F103VET6_lib.a(stm32f10x_rcc.o)
 .text.RCC_LSICmd
                0x00000000        0xc STM32F103VET6_lib.a(stm32f10x_rcc.o)
 .text.RCC_APB2PeriphResetCmd
                0x00000000       0x18 STM32F103VET6_lib.a(stm32f10x_rcc.o)
 .text.RCC_APB1PeriphResetCmd
                0x00000000       0x18 STM32F103VET6_lib.a(stm32f10x_rcc.o)
 .text.RCC_ClockSecuritySystemCmd
                0x00000000        0xc STM32F103VET6_lib.a(stm32f10x_rcc.o)
 .text.RCC_MCOConfig
                0x00000000        0xc STM32F103VET6_lib.a(stm32f10x_rcc.o)
 .text.RCC_WaitForHSEStartUp
                0x00000000       0x2c STM32F103VET6_lib.a(stm32f10x_rcc.o)
 .text.RCC_ClearFlag
                0x00000000       0x10 STM32F103VET6_lib.a(stm32f10x_rcc.o)
 .text.RCC_GetITStatus
                0x00000000       0x14 STM32F103VET6_lib.a(stm32f10x_rcc.o)
 .text.RCC_ClearITPendingBit
                0x00000000        0xc STM32F103VET6_lib.a(stm32f10x_rcc.o)
 .text          0x00000000        0x0 STM32F103VET6_lib.a(stm32f10x_adc.o)
 .data          0x00000000        0x0 STM32F103VET6_lib.a(stm32f10x_adc.o)
 .bss           0x00000000        0x0 STM32F103VET6_lib.a(stm32f10x_adc.o)
 .text.ADC_DeInit
                0x00000000       0x5c STM32F103VET6_lib.a(stm32f10x_adc.o)
 .text.ADC_StructInit
                0x00000000       0x12 STM32F103VET6_lib.a(stm32f10x_adc.o)
 .text.ADC_ITConfig
                0x00000000       0x12 STM32F103VET6_lib.a(stm32f10x_adc.o)
 .text.ADC_GetSoftwareStartConvStatus
                0x00000000        0x8 STM32F103VET6_lib.a(stm32f10x_adc.o)
 .text.ADC_DiscModeChannelCountConfig
                0x00000000       0x10 STM32F103VET6_lib.a(stm32f10x_adc.o)
 .text.ADC_DiscModeCmd
                0x00000000       0x12 STM32F103VET6_lib.a(stm32f10x_adc.o)
 .text.ADC_GetConversionValue
                0x00000000        0x6 STM32F103VET6_lib.a(stm32f10x_adc.o)
 .text.ADC_GetDualModeConversionValue
                0x00000000        0xc STM32F103VET6_lib.a(stm32f10x_adc.o)
 .text.ADC_AutoInjectedConvCmd
                0x00000000       0x12 STM32F103VET6_lib.a(stm32f10x_adc.o)
 .text.ADC_InjectedDiscModeCmd
                0x00000000       0x12 STM32F103VET6_lib.a(stm32f10x_adc.o)
 .text.ADC_ExternalTrigInjectedConvConfig
                0x00000000        0xc STM32F103VET6_lib.a(stm32f10x_adc.o)
 .text.ADC_ExternalTrigInjectedConvCmd
                0x00000000       0x12 STM32F103VET6_lib.a(stm32f10x_adc.o)
 .text.ADC_SoftwareStartInjectedConvCmd
                0x00000000       0x12 STM32F103VET6_lib.a(stm32f10x_adc.o)
 .text.ADC_GetSoftwareStartInjectedConvCmdStatus
                0x00000000        0x8 STM32F103VET6_lib.a(stm32f10x_adc.o)
 .text.ADC_InjectedChannelConfig
                0x00000000       0x60 STM32F103VET6_lib.a(stm32f10x_adc.o)
 .text.ADC_InjectedSequencerLengthConfig
                0x00000000       0x10 STM32F103VET6_lib.a(stm32f10x_adc.o)
 .text.ADC_SetInjectedOffset
                0x00000000       0x16 STM32F103VET6_lib.a(stm32f10x_adc.o)
 .text.ADC_GetInjectedConversionValue
                0x00000000       0x1a STM32F103VET6_lib.a(stm32f10x_adc.o)
 .text.ADC_AnalogWatchdogCmd
                0x00000000       0x10 STM32F103VET6_lib.a(stm32f10x_adc.o)
 .text.ADC_AnalogWatchdogThresholdsConfig
                0x00000000        0x6 STM32F103VET6_lib.a(stm32f10x_adc.o)
 .text.ADC_AnalogWatchdogSingleChannelConfig
                0x00000000        0xc STM32F103VET6_lib.a(stm32f10x_adc.o)
 .text.ADC_GetFlagStatus
                0x00000000        0xc STM32F103VET6_lib.a(stm32f10x_adc.o)
 .text.ADC_ClearFlag
                0x00000000        0x6 STM32F103VET6_lib.a(stm32f10x_adc.o)
 .text.ADC_GetITStatus
                0x00000000       0x16 STM32F103VET6_lib.a(stm32f10x_adc.o)
 .text.ADC_ClearITPendingBit
                0x00000000        0x8 STM32F103VET6_lib.a(stm32f10x_adc.o)
 .text          0x00000000        0x0 STM32F103VET6_lib.a(stm32f10x_dma.o)
 .data          0x00000000        0x0 STM32F103VET6_lib.a(stm32f10x_dma.o)
 .bss           0x00000000        0x0 STM32F103VET6_lib.a(stm32f10x_dma.o)
 .text.DMA_StructInit
                0x00000000       0x1a STM32F103VET6_lib.a(stm32f10x_dma.o)
 .text.DMA_ITConfig
                0x00000000       0x10 STM32F103VET6_lib.a(stm32f10x_dma.o)
 .text.DMA_SetCurrDataCounter
                0x00000000        0x4 STM32F103VET6_lib.a(stm32f10x_dma.o)
 .text.DMA_GetCurrDataCounter
                0x00000000        0x6 STM32F103VET6_lib.a(stm32f10x_dma.o)
 .text.DMA_GetITStatus
                0x00000000       0x1c STM32F103VET6_lib.a(stm32f10x_dma.o)
 .text.DMA_ClearITPendingBit
                0x00000000       0x14 STM32F103VET6_lib.a(stm32f10x_dma.o)
 .text          0x00000000        0x0 STM32F103VET6_lib.a(stm32f10x_tim.o)
 .data          0x00000000        0x0 STM32F103VET6_lib.a(stm32f10x_tim.o)
 .bss           0x00000000        0x0 STM32F103VET6_lib.a(stm32f10x_tim.o)
 .text.TI1_Config
                0x00000000       0x68 STM32F103VET6_lib.a(stm32f10x_tim.o)
 .text.TI2_Config
                0x00000000       0x78 STM32F103VET6_lib.a(stm32f10x_tim.o)
 .text.TIM_DeInit
                0x00000000      0x1ac STM32F103VET6_lib.a(stm32f10x_tim.o)
 .text.TIM_OC1Init
                0x00000000       0x88 STM32F103VET6_lib.a(stm32f10x_tim.o)
 .text.TIM_OC2Init
                0x00000000       0x88 STM32F103VET6_lib.a(stm32f10x_tim.o)
 .text.TIM_OC3Init
                0x00000000       0x84 STM32F103VET6_lib.a(stm32f10x_tim.o)
 .text.TIM_OC4Init
                0x00000000       0x68 STM32F103VET6_lib.a(stm32f10x_tim.o)
 .text.TIM_BDTRConfig
                0x00000000       0x22 STM32F103VET6_lib.a(stm32f10x_tim.o)
 .text.TIM_OCStructInit
                0x00000000       0x14 STM32F103VET6_lib.a(stm32f10x_tim.o)
 .text.TIM_ICStructInit
                0x00000000       0x10 STM32F103VET6_lib.a(stm32f10x_tim.o)
 .text.TIM_BDTRStructInit
                0x00000000       0x12 STM32F103VET6_lib.a(stm32f10x_tim.o)
 .text.TIM_CtrlPWMOutputs
                0x00000000       0x1c STM32F103VET6_lib.a(stm32f10x_tim.o)
 .text.TIM_ITConfig
                0x00000000       0x12 STM32F103VET6_lib.a(stm32f10x_tim.o)
 .text.TIM_GenerateEvent
                0x00000000        0x4 STM32F103VET6_lib.a(stm32f10x_tim.o)
 .text.TIM_DMAConfig
                0x00000000        0x8 STM32F103VET6_lib.a(stm32f10x_tim.o)
 .text.TIM_DMACmd
                0x00000000       0x12 STM32F103VET6_lib.a(stm32f10x_tim.o)
 .text.TIM_InternalClockConfig
                0x00000000        0xe STM32F103VET6_lib.a(stm32f10x_tim.o)
 .text.TIM_ITRxExternalClockConfig
                0x00000000       0x1a STM32F103VET6_lib.a(stm32f10x_tim.o)
 .text.TIM_TIxExternalClockConfig
                0x00000000       0x34 STM32F103VET6_lib.a(stm32f10x_tim.o)
 .text.TIM_ETRConfig
                0x00000000       0x14 STM32F103VET6_lib.a(stm32f10x_tim.o)
 .text.TIM_ETRClockMode2Config
                0x00000000       0x14 STM32F103VET6_lib.a(stm32f10x_tim.o)
 .text.TIM_ETRClockMode1Config
                0x00000000       0x1a STM32F103VET6_lib.a(stm32f10x_tim.o)
 .text.TIM_PrescalerConfig
                0x00000000        0x6 STM32F103VET6_lib.a(stm32f10x_tim.o)
 .text.TIM_CounterModeConfig
                0x00000000       0x10 STM32F103VET6_lib.a(stm32f10x_tim.o)
 .text.TIM_SelectInputTrigger
                0x00000000       0x10 STM32F103VET6_lib.a(stm32f10x_tim.o)
 .text.TIM_EncoderInterfaceConfig
                0x00000000       0x3c STM32F103VET6_lib.a(stm32f10x_tim.o)
 .text.TIM_ForcedOC1Config
                0x00000000       0x10 STM32F103VET6_lib.a(stm32f10x_tim.o)
 .text.TIM_ForcedOC2Config
                0x00000000       0x14 STM32F103VET6_lib.a(stm32f10x_tim.o)
 .text.TIM_ForcedOC3Config
                0x00000000       0x10 STM32F103VET6_lib.a(stm32f10x_tim.o)
 .text.TIM_ForcedOC4Config
                0x00000000       0x14 STM32F103VET6_lib.a(stm32f10x_tim.o)
 .text.TIM_ARRPreloadConfig
                0x00000000       0x18 STM32F103VET6_lib.a(stm32f10x_tim.o)
 .text.TIM_SelectCOM
                0x00000000       0x18 STM32F103VET6_lib.a(stm32f10x_tim.o)
 .text.TIM_SelectCCDMA
                0x00000000       0x18 STM32F103VET6_lib.a(stm32f10x_tim.o)
 .text.TIM_CCPreloadControl
                0x00000000       0x18 STM32F103VET6_lib.a(stm32f10x_tim.o)
 .text.TIM_OC1PreloadConfig
                0x00000000       0x10 STM32F103VET6_lib.a(stm32f10x_tim.o)
 .text.TIM_OC2PreloadConfig
                0x00000000       0x14 STM32F103VET6_lib.a(stm32f10x_tim.o)
 .text.TIM_OC3PreloadConfig
                0x00000000       0x10 STM32F103VET6_lib.a(stm32f10x_tim.o)
 .text.TIM_OC4PreloadConfig
                0x00000000       0x14 STM32F103VET6_lib.a(stm32f10x_tim.o)
 .text.TIM_OC1FastConfig
                0x00000000       0x10 STM32F103VET6_lib.a(stm32f10x_tim.o)
 .text.TIM_OC2FastConfig
                0x00000000       0x14 STM32F103VET6_lib.a(stm32f10x_tim.o)
 .text.TIM_OC3FastConfig
                0x00000000       0x10 STM32F103VET6_lib.a(stm32f10x_tim.o)
 .text.TIM_OC4FastConfig
                0x00000000       0x14 STM32F103VET6_lib.a(stm32f10x_tim.o)
 .text.TIM_ClearOC1Ref
                0x00000000       0x10 STM32F103VET6_lib.a(stm32f10x_tim.o)
 .text.TIM_ClearOC2Ref
                0x00000000       0x10 STM32F103VET6_lib.a(stm32f10x_tim.o)
 .text.TIM_ClearOC3Ref
                0x00000000       0x10 STM32F103VET6_lib.a(stm32f10x_tim.o)
 .text.TIM_ClearOC4Ref
                0x00000000       0x10 STM32F103VET6_lib.a(stm32f10x_tim.o)
 .text.TIM_OC1PolarityConfig
                0x00000000       0x10 STM32F103VET6_lib.a(stm32f10x_tim.o)
 .text.TIM_OC1NPolarityConfig
                0x00000000       0x10 STM32F103VET6_lib.a(stm32f10x_tim.o)
 .text.TIM_OC2PolarityConfig
                0x00000000       0x14 STM32F103VET6_lib.a(stm32f10x_tim.o)
 .text.TIM_OC2NPolarityConfig
                0x00000000       0x14 STM32F103VET6_lib.a(stm32f10x_tim.o)
 .text.TIM_OC3PolarityConfig
                0x00000000       0x14 STM32F103VET6_lib.a(stm32f10x_tim.o)
 .text.TIM_OC3NPolarityConfig
                0x00000000       0x14 STM32F103VET6_lib.a(stm32f10x_tim.o)
 .text.TIM_OC4PolarityConfig
                0x00000000       0x14 STM32F103VET6_lib.a(stm32f10x_tim.o)
 .text.TIM_CCxCmd
                0x00000000       0x22 STM32F103VET6_lib.a(stm32f10x_tim.o)
 .text.TIM_CCxNCmd
                0x00000000       0x22 STM32F103VET6_lib.a(stm32f10x_tim.o)
 .text.TIM_SelectOCxM
                0x00000000       0x44 STM32F103VET6_lib.a(stm32f10x_tim.o)
 .text.TIM_UpdateDisableConfig
                0x00000000       0x18 STM32F103VET6_lib.a(stm32f10x_tim.o)
 .text.TIM_UpdateRequestConfig
                0x00000000       0x18 STM32F103VET6_lib.a(stm32f10x_tim.o)
 .text.TIM_SelectHallSensor
                0x00000000       0x18 STM32F103VET6_lib.a(stm32f10x_tim.o)
 .text.TIM_SelectOnePulseMode
                0x00000000       0x16 STM32F103VET6_lib.a(stm32f10x_tim.o)
 .text.TIM_SelectOutputTrigger
                0x00000000       0x16 STM32F103VET6_lib.a(stm32f10x_tim.o)
 .text.TIM_SelectSlaveMode
                0x00000000       0x16 STM32F103VET6_lib.a(stm32f10x_tim.o)
 .text.TIM_SelectMasterSlaveMode
                0x00000000       0x16 STM32F103VET6_lib.a(stm32f10x_tim.o)
 .text.TIM_SetCounter
                0x00000000        0x4 STM32F103VET6_lib.a(stm32f10x_tim.o)
 .text.TIM_SetAutoreload
                0x00000000        0x4 STM32F103VET6_lib.a(stm32f10x_tim.o)
 .text.TIM_SetCompare1
                0x00000000        0x4 STM32F103VET6_lib.a(stm32f10x_tim.o)
 .text.TIM_SetCompare2
                0x00000000        0x4 STM32F103VET6_lib.a(stm32f10x_tim.o)
 .text.TIM_SetCompare3
                0x00000000        0x4 STM32F103VET6_lib.a(stm32f10x_tim.o)
 .text.TIM_SetCompare4
                0x00000000        0x6 STM32F103VET6_lib.a(stm32f10x_tim.o)
 .text.TIM_SetIC1Prescaler
                0x00000000       0x16 STM32F103VET6_lib.a(stm32f10x_tim.o)
 .text.TIM_SetIC2Prescaler
                0x00000000       0x1a STM32F103VET6_lib.a(stm32f10x_tim.o)
 .text.TIM_PWMIConfig
                0x00000000       0x6e STM32F103VET6_lib.a(stm32f10x_tim.o)
 .text.TIM_SetIC3Prescaler
                0x00000000       0x16 STM32F103VET6_lib.a(stm32f10x_tim.o)
 .text.TIM_SetIC4Prescaler
                0x00000000       0x1a STM32F103VET6_lib.a(stm32f10x_tim.o)
 .text.TIM_ICInit
                0x00000000      0x134 STM32F103VET6_lib.a(stm32f10x_tim.o)
 .text.TIM_SetClockDivision
                0x00000000       0x16 STM32F103VET6_lib.a(stm32f10x_tim.o)
 .text.TIM_GetCapture1
                0x00000000        0x6 STM32F103VET6_lib.a(stm32f10x_tim.o)
 .text.TIM_GetCapture2
                0x00000000        0x6 STM32F103VET6_lib.a(stm32f10x_tim.o)
 .text.TIM_GetCapture3
                0x00000000        0x6 STM32F103VET6_lib.a(stm32f10x_tim.o)
 .text.TIM_GetCapture4
                0x00000000        0x8 STM32F103VET6_lib.a(stm32f10x_tim.o)
 .text.TIM_GetCounter
                0x00000000        0x6 STM32F103VET6_lib.a(stm32f10x_tim.o)
 .text.TIM_GetPrescaler
                0x00000000        0x6 STM32F103VET6_lib.a(stm32f10x_tim.o)
 .text.TIM_GetFlagStatus
                0x00000000        0xc STM32F103VET6_lib.a(stm32f10x_tim.o)
 .text.TIM_ClearFlag
                0x00000000        0x8 STM32F103VET6_lib.a(stm32f10x_tim.o)
 .text.TIM_GetITStatus
                0x00000000       0x16 STM32F103VET6_lib.a(stm32f10x_tim.o)
 .text.TIM_ClearITPendingBit
                0x00000000        0x8 STM32F103VET6_lib.a(stm32f10x_tim.o)
 .text          0x00000000        0x0 STM32F103VET6_lib.a(stm32f10x_rtc.o)
 .data          0x00000000        0x0 STM32F103VET6_lib.a(stm32f10x_rtc.o)
 .bss           0x00000000        0x0 STM32F103VET6_lib.a(stm32f10x_rtc.o)
 .text.RTC_SetAlarm
                0x00000000       0x20 STM32F103VET6_lib.a(stm32f10x_rtc.o)
 .text.RTC_GetDivider
                0x00000000       0x18 STM32F103VET6_lib.a(stm32f10x_rtc.o)
 .text.RTC_GetFlagStatus
                0x00000000       0x14 STM32F103VET6_lib.a(stm32f10x_rtc.o)
 .text.RTC_ClearFlag
                0x00000000       0x14 STM32F103VET6_lib.a(stm32f10x_rtc.o)
 .text.RTC_GetITStatus
                0x00000000       0x24 STM32F103VET6_lib.a(stm32f10x_rtc.o)
 .text.RTC_ClearITPendingBit
                0x00000000       0x14 STM32F103VET6_lib.a(stm32f10x_rtc.o)
 .text          0x00000000        0x0 STM32F103VET6_lib.a(stm32f10x_sdio.o)
 .data          0x00000000        0x0 STM32F103VET6_lib.a(stm32f10x_sdio.o)
 .bss           0x00000000        0x0 STM32F103VET6_lib.a(stm32f10x_sdio.o)
 .text.SDIO_StructInit
                0x00000000       0x10 STM32F103VET6_lib.a(stm32f10x_sdio.o)
 .text.SDIO_CmdStructInit
                0x00000000        0xe STM32F103VET6_lib.a(stm32f10x_sdio.o)
 .text.SDIO_DataStructInit
                0x00000000       0x14 STM32F103VET6_lib.a(stm32f10x_sdio.o)
 .text.SDIO_GetDataCounter
                0x00000000        0xc STM32F103VET6_lib.a(stm32f10x_sdio.o)
 .text.SDIO_GetFIFOCount
                0x00000000        0xc STM32F103VET6_lib.a(stm32f10x_sdio.o)
 .text.SDIO_StartSDIOReadWait
                0x00000000        0xc STM32F103VET6_lib.a(stm32f10x_sdio.o)
 .text.SDIO_StopSDIOReadWait
                0x00000000        0xc STM32F103VET6_lib.a(stm32f10x_sdio.o)
 .text.SDIO_SetSDIOReadWaitMode
                0x00000000        0xc STM32F103VET6_lib.a(stm32f10x_sdio.o)
 .text.SDIO_SetSDIOOperation
                0x00000000        0xc STM32F103VET6_lib.a(stm32f10x_sdio.o)
 .text.SDIO_SendSDIOSuspendCmd
                0x00000000        0xc STM32F103VET6_lib.a(stm32f10x_sdio.o)
 .text.SDIO_CommandCompletionCmd
                0x00000000        0xc STM32F103VET6_lib.a(stm32f10x_sdio.o)
 .text.SDIO_CEATAITCmd
                0x00000000       0x14 STM32F103VET6_lib.a(stm32f10x_sdio.o)
 .text.SDIO_SendCEATACmd
                0x00000000        0xc STM32F103VET6_lib.a(stm32f10x_sdio.o)
 .text          0x00000000        0x0 STM32F103VET6_lib.a(stm32f10x_usart.o)
 .data          0x00000000        0x0 STM32F103VET6_lib.a(stm32f10x_usart.o)
 .bss           0x00000000        0x0 STM32F103VET6_lib.a(stm32f10x_usart.o)
 .text.USART_DeInit
                0x00000000       0x98 STM32F103VET6_lib.a(stm32f10x_usart.o)
 .text.USART_ClockInit
                0x00000000       0x20 STM32F103VET6_lib.a(stm32f10x_usart.o)
 .text.USART_ClockStructInit
                0x00000000        0xc STM32F103VET6_lib.a(stm32f10x_usart.o)
 .text.USART_DMACmd
                0x00000000       0x12 STM32F103VET6_lib.a(stm32f10x_usart.o)
 .text.USART_SetAddress
                0x00000000       0x16 STM32F103VET6_lib.a(stm32f10x_usart.o)
 .text.USART_WakeUpConfig
                0x00000000       0x16 STM32F103VET6_lib.a(stm32f10x_usart.o)
 .text.USART_ReceiverWakeUpCmd
                0x00000000       0x18 STM32F103VET6_lib.a(stm32f10x_usart.o)
 .text.USART_LINBreakDetectLengthConfig
                0x00000000       0x16 STM32F103VET6_lib.a(stm32f10x_usart.o)
 .text.USART_LINCmd
                0x00000000       0x18 STM32F103VET6_lib.a(stm32f10x_usart.o)
 .text.USART_SendBreak
                0x00000000        0xc STM32F103VET6_lib.a(stm32f10x_usart.o)
 .text.USART_SetGuardTime
                0x00000000       0x12 STM32F103VET6_lib.a(stm32f10x_usart.o)
 .text.USART_SetPrescaler
                0x00000000       0x12 STM32F103VET6_lib.a(stm32f10x_usart.o)
 .text.USART_SmartCardCmd
                0x00000000       0x18 STM32F103VET6_lib.a(stm32f10x_usart.o)
 .text.USART_SmartCardNACKCmd
                0x00000000       0x18 STM32F103VET6_lib.a(stm32f10x_usart.o)
 .text.USART_HalfDuplexCmd
                0x00000000       0x18 STM32F103VET6_lib.a(stm32f10x_usart.o)
 .text.USART_OverSampling8Cmd
                0x00000000       0x18 STM32F103VET6_lib.a(stm32f10x_usart.o)
 .text.USART_OneBitMethodCmd
                0x00000000       0x18 STM32F103VET6_lib.a(stm32f10x_usart.o)
 .text.USART_IrDAConfig
                0x00000000       0x16 STM32F103VET6_lib.a(stm32f10x_usart.o)
 .text.USART_IrDACmd
                0x00000000       0x18 STM32F103VET6_lib.a(stm32f10x_usart.o)
 .text.USART_ClearFlag
                0x00000000        0x8 STM32F103VET6_lib.a(stm32f10x_usart.o)
 .text.USART_ClearITPendingBit
                0x00000000       0x10 STM32F103VET6_lib.a(stm32f10x_usart.o)
 .text          0x00000000        0x0 STM32F103VET6_lib.a(stm32f10x_bkp.o)
 .data          0x00000000        0x0 STM32F103VET6_lib.a(stm32f10x_bkp.o)
 .bss           0x00000000        0x0 STM32F103VET6_lib.a(stm32f10x_bkp.o)
 .text.BKP_TamperPinLevelConfig
                0x00000000        0xc STM32F103VET6_lib.a(stm32f10x_bkp.o)
 .text.BKP_TamperPinCmd
                0x00000000        0xc STM32F103VET6_lib.a(stm32f10x_bkp.o)
 .text.BKP_ITConfig
                0x00000000        0xc STM32F103VET6_lib.a(stm32f10x_bkp.o)
 .text.BKP_RTCOutputConfig
                0x00000000       0x18 STM32F103VET6_lib.a(stm32f10x_bkp.o)
 .text.BKP_SetRTCCalibrationValue
                0x00000000       0x18 STM32F103VET6_lib.a(stm32f10x_bkp.o)
 .text.BKP_GetFlagStatus
                0x00000000        0xc STM32F103VET6_lib.a(stm32f10x_bkp.o)
 .text.BKP_ClearFlag
                0x00000000       0x14 STM32F103VET6_lib.a(stm32f10x_bkp.o)
 .text.BKP_GetITStatus
                0x00000000        0xc STM32F103VET6_lib.a(stm32f10x_bkp.o)
 .text.BKP_ClearITPendingBit
                0x00000000       0x14 STM32F103VET6_lib.a(stm32f10x_bkp.o)
 .text          0x00000000        0x0 STM32F103VET6_lib.a(stm32f10x_pwr.o)
 .data          0x00000000        0x0 STM32F103VET6_lib.a(stm32f10x_pwr.o)
 .bss           0x00000000        0x0 STM32F103VET6_lib.a(stm32f10x_pwr.o)
 .text.PWR_DeInit
                0x00000000       0x1a STM32F103VET6_lib.a(stm32f10x_pwr.o)
 .text.PWR_PVDCmd
                0x00000000        0xc STM32F103VET6_lib.a(stm32f10x_pwr.o)
 .text.PWR_PVDLevelConfig
                0x00000000       0x14 STM32F103VET6_lib.a(stm32f10x_pwr.o)
 .text.PWR_WakeUpPinCmd
                0x00000000        0xc STM32F103VET6_lib.a(stm32f10x_pwr.o)
 .text.PWR_EnterSTOPMode
                0x00000000       0x34 STM32F103VET6_lib.a(stm32f10x_pwr.o)
 .text.PWR_EnterSTANDBYMode
                0x00000000       0x28 STM32F103VET6_lib.a(stm32f10x_pwr.o)
 .text.PWR_GetFlagStatus
                0x00000000       0x14 STM32F103VET6_lib.a(stm32f10x_pwr.o)
 .text.PWR_ClearFlag
                0x00000000       0x10 STM32F103VET6_lib.a(stm32f10x_pwr.o)
 .text          0x00000000        0x0 STM32F103VET6_lib.a(usb_core.o)
 .data          0x00000000        0x0 STM32F103VET6_lib.a(usb_core.o)
 .bss           0x00000000        0x0 STM32F103VET6_lib.a(usb_core.o)
 .text          0x00000000        0x0 STM32F103VET6_lib.a(usb_init.o)
 .data          0x00000000        0x0 STM32F103VET6_lib.a(usb_init.o)
 .bss           0x00000000        0x0 STM32F103VET6_lib.a(usb_init.o)
 .bss.SaveState
                0x00000000        0x2 STM32F103VET6_lib.a(usb_init.o)
 .text          0x00000000        0x0 STM32F103VET6_lib.a(usb_int.o)
 .data          0x00000000        0x0 STM32F103VET6_lib.a(usb_int.o)
 .bss           0x00000000        0x0 STM32F103VET6_lib.a(usb_int.o)
 .text          0x00000000        0x0 STM32F103VET6_lib.a(usb_mem.o)
 .data          0x00000000        0x0 STM32F103VET6_lib.a(usb_mem.o)
 .bss           0x00000000        0x0 STM32F103VET6_lib.a(usb_mem.o)
 .text          0x00000000        0x0 STM32F103VET6_lib.a(usb_regs.o)
 .data          0x00000000        0x0 STM32F103VET6_lib.a(usb_regs.o)
 .bss           0x00000000        0x0 STM32F103VET6_lib.a(usb_regs.o)
 .text.SetCNTR  0x00000000        0xc STM32F103VET6_lib.a(usb_regs.o)
 .text.GetCNTR  0x00000000        0xc STM32F103VET6_lib.a(usb_regs.o)
 .text.SetISTR  0x00000000        0xc STM32F103VET6_lib.a(usb_regs.o)
 .text.GetISTR  0x00000000        0xc STM32F103VET6_lib.a(usb_regs.o)
 .text.GetFNR   0x00000000        0xc STM32F103VET6_lib.a(usb_regs.o)
 .text.SetDADDR
                0x00000000        0xc STM32F103VET6_lib.a(usb_regs.o)
 .text.GetDADDR
                0x00000000        0xc STM32F103VET6_lib.a(usb_regs.o)
 .text.GetBTABLE
                0x00000000        0xc STM32F103VET6_lib.a(usb_regs.o)
 .text.SetENDPOINT
                0x00000000        0xe STM32F103VET6_lib.a(usb_regs.o)
 .text.GetEPType
                0x00000000       0x12 STM32F103VET6_lib.a(usb_regs.o)
 .text.SetDouBleBuffEPStall
                0x00000000       0x24 STM32F103VET6_lib.a(usb_regs.o)
 .text.GetEPTxStatus
                0x00000000       0x12 STM32F103VET6_lib.a(usb_regs.o)
 .text.GetEPRxStatus
                0x00000000       0x12 STM32F103VET6_lib.a(usb_regs.o)
 .text.SetEP_KIND
                0x00000000       0x1e STM32F103VET6_lib.a(usb_regs.o)
 .text.ClearEP_KIND
                0x00000000       0x1e STM32F103VET6_lib.a(usb_regs.o)
 .text.Set_Status_Out
                0x00000000       0x1e STM32F103VET6_lib.a(usb_regs.o)
 .text.ClearEPDoubleBuff
                0x00000000       0x1e STM32F103VET6_lib.a(usb_regs.o)
 .text.GetTxStallStatus
                0x00000000       0x1c STM32F103VET6_lib.a(usb_regs.o)
 .text.GetRxStallStatus
                0x00000000       0x1c STM32F103VET6_lib.a(usb_regs.o)
 .text.ClearEP_CTR_RX
                0x00000000       0x16 STM32F103VET6_lib.a(usb_regs.o)
 .text.ClearEP_CTR_TX
                0x00000000       0x16 STM32F103VET6_lib.a(usb_regs.o)
 .text.ToggleDTOG_RX
                0x00000000       0x1e STM32F103VET6_lib.a(usb_regs.o)
 .text.SetEPAddress
                0x00000000       0x20 STM32F103VET6_lib.a(usb_regs.o)
 .text.GetEPAddress
                0x00000000       0x12 STM32F103VET6_lib.a(usb_regs.o)
 .text.SetEPCountRxReg
                0x00000000       0x24 STM32F103VET6_lib.a(usb_regs.o)
 .text.GetEPTxCount
                0x00000000       0x20 STM32F103VET6_lib.a(usb_regs.o)
 .text.GetEPRxCount
                0x00000000       0x20 STM32F103VET6_lib.a(usb_regs.o)
 .text.SetEPDblBuf0Addr
                0x00000000       0x20 STM32F103VET6_lib.a(usb_regs.o)
 .text.SetEPDblBuf1Addr
                0x00000000       0x20 STM32F103VET6_lib.a(usb_regs.o)
 .text.GetEPDblBuf0Addr
                0x00000000       0x1c STM32F103VET6_lib.a(usb_regs.o)
 .text.GetEPDblBuf1Addr
                0x00000000       0x1c STM32F103VET6_lib.a(usb_regs.o)
 .text.SetEPDblBuf0Count
                0x00000000       0x58 STM32F103VET6_lib.a(usb_regs.o)
 .text.SetEPDblBuf1Count
                0x00000000       0x58 STM32F103VET6_lib.a(usb_regs.o)
 .text.GetEPDblBufDir
                0x00000000       0x40 STM32F103VET6_lib.a(usb_regs.o)
 .text.ToWord   0x00000000        0x6 STM32F103VET6_lib.a(usb_regs.o)
 .text          0x00000000        0x0 STM32F103VET6_lib.a(usb_sil.o)
 .data          0x00000000        0x0 STM32F103VET6_lib.a(usb_sil.o)
 .bss           0x00000000        0x0 STM32F103VET6_lib.a(usb_sil.o)
 .text.USB_SIL_Read
                0x00000000       0x24 STM32F103VET6_lib.a(usb_sil.o)
 .text          0x00000000       0x14 STM32F103VET6_lib.a(startup_stm32f10x_hd.o)
 .data          0x00000000        0x0 STM32F103VET6_lib.a(startup_stm32f10x_hd.o)
 .bss           0x00000000        0x0 STM32F103VET6_lib.a(startup_stm32f10x_hd.o)
 .text          0x00000000      0x370 c:/devz/arm/launchpad/bin/../lib/gcc/arm-none-eabi/4.7.3/armv7-m\libgcc.a(_arm_addsubdf3.o)
 .data          0x00000000        0x0 c:/devz/arm/launchpad/bin/../lib/gcc/arm-none-eabi/4.7.3/armv7-m\libgcc.a(_arm_addsubdf3.o)
 .bss           0x00000000        0x0 c:/devz/arm/launchpad/bin/../lib/gcc/arm-none-eabi/4.7.3/armv7-m\libgcc.a(_arm_addsubdf3.o)
 .text          0x00000000      0x424 c:/devz/arm/launchpad/bin/../lib/gcc/arm-none-eabi/4.7.3/armv7-m\libgcc.a(_arm_muldivdf3.o)
 .data          0x00000000        0x0 c:/devz/arm/launchpad/bin/../lib/gcc/arm-none-eabi/4.7.3/armv7-m\libgcc.a(_arm_muldivdf3.o)
 .bss           0x00000000        0x0 c:/devz/arm/launchpad/bin/../lib/gcc/arm-none-eabi/4.7.3/armv7-m\libgcc.a(_arm_muldivdf3.o)
 .text          0x00000000      0x110 c:/devz/arm/launchpad/bin/../lib/gcc/arm-none-eabi/4.7.3/armv7-m\libgcc.a(_arm_cmpdf2.o)
 .data          0x00000000        0x0 c:/devz/arm/launchpad/bin/../lib/gcc/arm-none-eabi/4.7.3/armv7-m\libgcc.a(_arm_cmpdf2.o)
 .bss           0x00000000        0x0 c:/devz/arm/launchpad/bin/../lib/gcc/arm-none-eabi/4.7.3/armv7-m\libgcc.a(_arm_cmpdf2.o)
 .text          0x00000000       0x50 c:/devz/arm/launchpad/bin/../lib/gcc/arm-none-eabi/4.7.3/armv7-m\libgcc.a(_arm_fixdfsi.o)
 .data          0x00000000        0x0 c:/devz/arm/launchpad/bin/../lib/gcc/arm-none-eabi/4.7.3/armv7-m\libgcc.a(_arm_fixdfsi.o)
 .bss           0x00000000        0x0 c:/devz/arm/launchpad/bin/../lib/gcc/arm-none-eabi/4.7.3/armv7-m\libgcc.a(_arm_fixdfsi.o)
 .text          0x00000000        0x0 c:/devz/arm/launchpad/bin/../lib/gcc/arm-none-eabi/4.7.3/../../../../arm-none-eabi/lib/armv7-m\libc_s.a(lib_a-errno.o)
 .data          0x00000000        0x0 c:/devz/arm/launchpad/bin/../lib/gcc/arm-none-eabi/4.7.3/../../../../arm-none-eabi/lib/armv7-m\libc_s.a(lib_a-errno.o)
 .bss           0x00000000        0x0 c:/devz/arm/launchpad/bin/../lib/gcc/arm-none-eabi/4.7.3/../../../../arm-none-eabi/lib/armv7-m\libc_s.a(lib_a-errno.o)
 .text          0x00000000        0x0 c:/devz/arm/launchpad/bin/../lib/gcc/arm-none-eabi/4.7.3/../../../../arm-none-eabi/lib/armv7-m\libc_s.a(lib_a-impure.o)
 .data          0x00000000        0x0 c:/devz/arm/launchpad/bin/../lib/gcc/arm-none-eabi/4.7.3/../../../../arm-none-eabi/lib/armv7-m\libc_s.a(lib_a-impure.o)
 .bss           0x00000000        0x0 c:/devz/arm/launchpad/bin/../lib/gcc/arm-none-eabi/4.7.3/../../../../arm-none-eabi/lib/armv7-m\libc_s.a(lib_a-impure.o)
 .rodata._global_impure_ptr
                0x00000000        0x4 c:/devz/arm/launchpad/bin/../lib/gcc/arm-none-eabi/4.7.3/../../../../arm-none-eabi/lib/armv7-m\libc_s.a(lib_a-impure.o)
 .text          0x00000000        0x0 c:/devz/arm/launchpad/bin/../lib/gcc/arm-none-eabi/4.7.3/../../../../arm-none-eabi/lib/armv7-m\libc_s.a(lib_a-lcltime.o)
 .data          0x00000000        0x0 c:/devz/arm/launchpad/bin/../lib/gcc/arm-none-eabi/4.7.3/../../../../arm-none-eabi/lib/armv7-m\libc_s.a(lib_a-lcltime.o)
 .bss           0x00000000        0x0 c:/devz/arm/launchpad/bin/../lib/gcc/arm-none-eabi/4.7.3/../../../../arm-none-eabi/lib/armv7-m\libc_s.a(lib_a-lcltime.o)
 .text          0x00000000        0x0 c:/devz/arm/launchpad/bin/../lib/gcc/arm-none-eabi/4.7.3/../../../../arm-none-eabi/lib/armv7-m\libc_s.a(lib_a-lcltime_r.o)
 .data          0x00000000        0x0 c:/devz/arm/launchpad/bin/../lib/gcc/arm-none-eabi/4.7.3/../../../../arm-none-eabi/lib/armv7-m\libc_s.a(lib_a-lcltime_r.o)
 .bss           0x00000000        0x0 c:/devz/arm/launchpad/bin/../lib/gcc/arm-none-eabi/4.7.3/../../../../arm-none-eabi/lib/armv7-m\libc_s.a(lib_a-lcltime_r.o)
 .text          0x00000000        0x0 c:/devz/arm/launchpad/bin/../lib/gcc/arm-none-eabi/4.7.3/../../../../arm-none-eabi/lib/armv7-m\libc_s.a(lib_a-malloc.o)
 .data          0x00000000        0x0 c:/devz/arm/launchpad/bin/../lib/gcc/arm-none-eabi/4.7.3/../../../../arm-none-eabi/lib/armv7-m\libc_s.a(lib_a-malloc.o)
 .bss           0x00000000        0x0 c:/devz/arm/launchpad/bin/../lib/gcc/arm-none-eabi/4.7.3/../../../../arm-none-eabi/lib/armv7-m\libc_s.a(lib_a-malloc.o)
 .text.free     0x00000000       0x10 c:/devz/arm/launchpad/bin/../lib/gcc/arm-none-eabi/4.7.3/../../../../arm-none-eabi/lib/armv7-m\libc_s.a(lib_a-malloc.o)
 .text          0x00000000        0x0 c:/devz/arm/launchpad/bin/../lib/gcc/arm-none-eabi/4.7.3/../../../../arm-none-eabi/lib/armv7-m\libc_s.a(lib_a-mallocr.o)
 .data          0x00000000        0x0 c:/devz/arm/launchpad/bin/../lib/gcc/arm-none-eabi/4.7.3/../../../../arm-none-eabi/lib/armv7-m\libc_s.a(lib_a-mallocr.o)
 .bss           0x00000000        0x0 c:/devz/arm/launchpad/bin/../lib/gcc/arm-none-eabi/4.7.3/../../../../arm-none-eabi/lib/armv7-m\libc_s.a(lib_a-mallocr.o)
 .text          0x00000000        0x0 c:/devz/arm/launchpad/bin/../lib/gcc/arm-none-eabi/4.7.3/../../../../arm-none-eabi/lib/armv7-m\libc_s.a(lib_a-memcpy.o)
 .data          0x00000000        0x0 c:/devz/arm/launchpad/bin/../lib/gcc/arm-none-eabi/4.7.3/../../../../arm-none-eabi/lib/armv7-m\libc_s.a(lib_a-memcpy.o)
 .bss           0x00000000        0x0 c:/devz/arm/launchpad/bin/../lib/gcc/arm-none-eabi/4.7.3/../../../../arm-none-eabi/lib/armv7-m\libc_s.a(lib_a-memcpy.o)
 .text          0x00000000        0x0 c:/devz/arm/launchpad/bin/../lib/gcc/arm-none-eabi/4.7.3/../../../../arm-none-eabi/lib/armv7-m\libc_s.a(lib_a-memset.o)
 .data          0x00000000        0x0 c:/devz/arm/launchpad/bin/../lib/gcc/arm-none-eabi/4.7.3/../../../../arm-none-eabi/lib/armv7-m\libc_s.a(lib_a-memset.o)
 .bss           0x00000000        0x0 c:/devz/arm/launchpad/bin/../lib/gcc/arm-none-eabi/4.7.3/../../../../arm-none-eabi/lib/armv7-m\libc_s.a(lib_a-memset.o)
 .text.memset   0x00000000       0x10 c:/devz/arm/launchpad/bin/../lib/gcc/arm-none-eabi/4.7.3/../../../../arm-none-eabi/lib/armv7-m\libc_s.a(lib_a-memset.o)
 .text          0x00000000        0x0 c:/devz/arm/launchpad/bin/../lib/gcc/arm-none-eabi/4.7.3/../../../../arm-none-eabi/lib/armv7-m\libc_s.a(lib_a-mktime.o)
 .data          0x00000000        0x0 c:/devz/arm/launchpad/bin/../lib/gcc/arm-none-eabi/4.7.3/../../../../arm-none-eabi/lib/armv7-m\libc_s.a(lib_a-mktime.o)
 .bss           0x00000000        0x0 c:/devz/arm/launchpad/bin/../lib/gcc/arm-none-eabi/4.7.3/../../../../arm-none-eabi/lib/armv7-m\libc_s.a(lib_a-mktime.o)
 .text          0x00000000        0x0 c:/devz/arm/launchpad/bin/../lib/gcc/arm-none-eabi/4.7.3/../../../../arm-none-eabi/lib/armv7-m\libc_s.a(lib_a-mktm_r.o)
 .data          0x00000000        0x0 c:/devz/arm/launchpad/bin/../lib/gcc/arm-none-eabi/4.7.3/../../../../arm-none-eabi/lib/armv7-m\libc_s.a(lib_a-mktm_r.o)
 .bss           0x00000000        0x0 c:/devz/arm/launchpad/bin/../lib/gcc/arm-none-eabi/4.7.3/../../../../arm-none-eabi/lib/armv7-m\libc_s.a(lib_a-mktm_r.o)
 .text          0x00000000        0x0 c:/devz/arm/launchpad/bin/../lib/gcc/arm-none-eabi/4.7.3/../../../../arm-none-eabi/lib/armv7-m\libc_s.a(lib_a-tzlock.o)
 .data          0x00000000        0x0 c:/devz/arm/launchpad/bin/../lib/gcc/arm-none-eabi/4.7.3/../../../../arm-none-eabi/lib/armv7-m\libc_s.a(lib_a-tzlock.o)
 .bss           0x00000000        0x0 c:/devz/arm/launchpad/bin/../lib/gcc/arm-none-eabi/4.7.3/../../../../arm-none-eabi/lib/armv7-m\libc_s.a(lib_a-tzlock.o)
 .text          0x00000000        0x0 c:/devz/arm/launchpad/bin/../lib/gcc/arm-none-eabi/4.7.3/../../../../arm-none-eabi/lib/armv7-m\libc_s.a(lib_a-tzvars.o)
 .data          0x00000000        0x0 c:/devz/arm/launchpad/bin/../lib/gcc/arm-none-eabi/4.7.3/../../../../arm-none-eabi/lib/armv7-m\libc_s.a(lib_a-tzvars.o)
 .bss           0x00000000        0x0 c:/devz/arm/launchpad/bin/../lib/gcc/arm-none-eabi/4.7.3/../../../../arm-none-eabi/lib/armv7-m\libc_s.a(lib_a-tzvars.o)
 .data._tzname  0x00000000        0x8 c:/devz/arm/launchpad/bin/../lib/gcc/arm-none-eabi/4.7.3/../../../../arm-none-eabi/lib/armv7-m\libc_s.a(lib_a-tzvars.o)
 .bss._timezone
                0x00000000        0x4 c:/devz/arm/launchpad/bin/../lib/gcc/arm-none-eabi/4.7.3/../../../../arm-none-eabi/lib/armv7-m\libc_s.a(lib_a-tzvars.o)
 .rodata.str1.1
                0x00000000        0x4 c:/devz/arm/launchpad/bin/../lib/gcc/arm-none-eabi/4.7.3/../../../../arm-none-eabi/lib/armv7-m\libc_s.a(lib_a-tzvars.o)
 .text          0x00000000        0x0 c:/devz/arm/launchpad/bin/../lib/gcc/arm-none-eabi/4.7.3/../../../../arm-none-eabi/lib/armv7-m\libc_s.a(lib_a-div.o)
 .data          0x00000000        0x0 c:/devz/arm/launchpad/bin/../lib/gcc/arm-none-eabi/4.7.3/../../../../arm-none-eabi/lib/armv7-m\libc_s.a(lib_a-div.o)
 .bss           0x00000000        0x0 c:/devz/arm/launchpad/bin/../lib/gcc/arm-none-eabi/4.7.3/../../../../arm-none-eabi/lib/armv7-m\libc_s.a(lib_a-div.o)
 .text          0x00000000        0x0 c:/devz/arm/launchpad/bin/../lib/gcc/arm-none-eabi/4.7.3/../../../../arm-none-eabi/lib/armv7-m\libc_s.a(lib_a-freer.o)
 .data          0x00000000        0x0 c:/devz/arm/launchpad/bin/../lib/gcc/arm-none-eabi/4.7.3/../../../../arm-none-eabi/lib/armv7-m\libc_s.a(lib_a-freer.o)
 .bss           0x00000000        0x0 c:/devz/arm/launchpad/bin/../lib/gcc/arm-none-eabi/4.7.3/../../../../arm-none-eabi/lib/armv7-m\libc_s.a(lib_a-freer.o)
 .text._free_r  0x00000000       0x88 c:/devz/arm/launchpad/bin/../lib/gcc/arm-none-eabi/4.7.3/../../../../arm-none-eabi/lib/armv7-m\libc_s.a(lib_a-freer.o)
 .text          0x00000000        0x0 c:/devz/arm/launchpad/bin/../lib/gcc/arm-none-eabi/4.7.3/../../../../arm-none-eabi/lib/armv7-m\libc_s.a(lib_a-gettzinfo.o)
 .data          0x00000000        0x0 c:/devz/arm/launchpad/bin/../lib/gcc/arm-none-eabi/4.7.3/../../../../arm-none-eabi/lib/armv7-m\libc_s.a(lib_a-gettzinfo.o)
 .bss           0x00000000        0x0 c:/devz/arm/launchpad/bin/../lib/gcc/arm-none-eabi/4.7.3/../../../../arm-none-eabi/lib/armv7-m\libc_s.a(lib_a-gettzinfo.o)

Memory Configuration

Name             Origin             Length             Attributes
RAM1             0x20000000         0x00010000         xrw
RAM5             0x68000000         0x00080000         xrw
ROM              0x08000000         0x00100000         xr
*default*        0x00000000         0xffffffff

Linker script and memory map

LOAD c:/devz/arm/launchpad/bin/../lib/gcc/arm-none-eabi/4.7.3/../../../../arm-none-eabi/lib/armv7-m\libm.a
LOAD src/main.o
LOAD src/sysinit_primer2.o
LOAD src/systick.o
LOAD src/syscalls.o
LOAD src/stm32f10x_it.o
LOAD src/hw_config.o
LOAD src/power.o
LOAD src/adc_support.o
LOAD src/rtc_support.o
LOAD src/gps_support.o
LOAD src/cdc_support.o
LOAD src/msc_support.o
LOAD src/uart_support_gps.o
LOAD src/term_io.o
LOAD src/xprintf.o
LOAD lib/display/mcu_depend/src/display_if_basis.o
LOAD lib/display/abstract/src/display_if_support.o
LOAD lib/display/drivers/src/st7732.o
LOAD lib/FONTX2/src/font_if_datatable.o
LOAD lib/FONTX2/src/font_if.o
LOAD lib/ff/ff.o
LOAD lib/ff/sdio_stm32f1.o
LOAD lib/ff/diskio_sdio.o
LOAD lib/ff/ff_rtc_if.o
LOAD lib/ff/option/unicode.o
LOAD lib/USB_Functions/usb_pwr.o
LOAD lib/USB_Functions/usb_istr.o
LOAD lib/USB_Functions/usb_conf.o
LOAD lib/USB_Functions/usb_prop.o
LOAD lib/USB_Functions/cdc/src/usb_cdc_desc.o
LOAD lib/USB_Functions/cdc/src/usb_cdc_prop.o
LOAD lib/USB_Functions/cdc/src/usb_cdc_endp.o
LOAD lib/USB_Functions/msc/src/usb_msc_mass_mal.o
LOAD lib/USB_Functions/msc/src/usb_msc_memory.o
LOAD lib/USB_Functions/msc/src/usb_msc_scsi_data.o
LOAD lib/USB_Functions/msc/src/usb_msc_scsi.o
LOAD lib/USB_Functions/msc/src/usb_msc_bot.o
LOAD lib/USB_Functions/msc/src/usb_msc_desc.o
LOAD lib/USB_Functions/msc/src/usb_msc_prop.o
LOAD STM32F103VET6_lib.a
START GROUP
LOAD c:/devz/arm/launchpad/bin/../lib/gcc/arm-none-eabi/4.7.3/armv7-m\libgcc.a
LOAD c:/devz/arm/launchpad/bin/../lib/gcc/arm-none-eabi/4.7.3/../../../../arm-none-eabi/lib/armv7-m\libc_s.a
END GROUP
                0x20010000                _estack = (ORIGIN (RAM1) + 0x10000)

.text           0x08000000     0x92ac
                0x08000000                . = ALIGN (0x4)
 *(.isr_vector)
 .isr_vector    0x08000000      0x1e4 STM32F103VET6_lib.a(startup_stm32f10x_hd.o)
                0x08000000                g_pfnVectors
                0x080001e4                . = ALIGN (0x4)
 *(.text .text.*)
 .text.startup.main
                0x080001e4      0x13c src/main.o
                0x080001e4                main
 .text.SystemInit
                0x08000320       0xf4 src/sysinit_primer2.o
                0x08000320                SystemInit
 .text.SystemCoreClockUpdate
                0x08000414       0x70 src/sysinit_primer2.o
                0x08000414                SystemCoreClockUpdate
 .text.SysTickInit
                0x08000484       0x88 src/systick.o
                0x08000484                SysTickInit
 .text._delay_ms
                0x0800050c       0x18 src/systick.o
                0x0800050c                _delay_ms
 .text._sbrk_r  0x08000524       0x34 src/syscalls.o
                0x08000524                _sbrk_r
 .text.NMI_Handler
                0x08000558        0x2 src/stm32f10x_it.o
                0x08000558                NMI_Handler
 .text.HardFault_Handler
                0x0800055a        0x2 src/stm32f10x_it.o
                0x0800055a                HardFault_Handler
 .text.MemManage_Handler
                0x0800055c        0x2 src/stm32f10x_it.o
                0x0800055c                MemManage_Handler
 .text.BusFault_Handler
                0x0800055e        0x2 src/stm32f10x_it.o
                0x0800055e                BusFault_Handler
 .text.UsageFault_Handler
                0x08000560        0x2 src/stm32f10x_it.o
                0x08000560                UsageFault_Handler
 .text.SVC_Handler
                0x08000562        0x2 src/stm32f10x_it.o
                0x08000562                SVC_Handler
 .text.DebugMon_Handler
                0x08000564        0x2 src/stm32f10x_it.o
                0x08000564                DebugMon_Handler
 .text.PendSV_Handler
                0x08000566        0x2 src/stm32f10x_it.o
                0x08000566                PendSV_Handler
 .text.SysTick_Handler
                0x08000568       0x2c src/stm32f10x_it.o
                0x08000568                SysTick_Handler
 .text.USB_HP_CAN1_TX_IRQHandler
                0x08000594        0x4 src/stm32f10x_it.o
                0x08000594                USB_HP_CAN1_TX_IRQHandler
 .text.USB_LP_CAN1_RX0_IRQHandler
                0x08000598        0x4 src/stm32f10x_it.o
                0x08000598                USB_LP_CAN1_RX0_IRQHandler
 .text.RTC_IRQHandler
                0x0800059c        0x2 src/stm32f10x_it.o
                0x0800059c                RTC_IRQHandler
 .text.IntToUnicode
                0x0800059e       0x2a src/hw_config.o
 .text.LED_Configuration
                0x080005c8       0xb0 src/hw_config.o
                0x080005c8                LED_Configuration
 .text.KEY_Configuration
                0x08000678       0x54 src/hw_config.o
                0x08000678                KEY_Configuration
 .text.NVIC_Configuration
                0x080006cc        0xa src/hw_config.o
                0x080006cc                NVIC_Configuration
 .text.Set_System
                0x080006d6       0x22 src/hw_config.o
                0x080006d6                Set_System
 .text.Set72    0x080006f8       0x60 src/hw_config.o
                0x080006f8                Set72
 .text.USB_Disconnect_Config
                0x08000758       0x2c src/hw_config.o
                0x08000758                USB_Disconnect_Config
 .text.Set_USBClock
                0x08000784       0x16 src/hw_config.o
                0x08000784                Set_USBClock
 *fill*         0x0800079a        0x2 00
 .text.USB_Cable_Config
                0x0800079c       0x18 src/hw_config.o
                0x0800079c                USB_Cable_Config
 .text.Get_SerialNum
                0x080007b4       0x38 src/hw_config.o
                0x080007b4                Get_SerialNum
 .text.GetVbat  0x080007ec       0x4c src/power.o
                0x080007ec                GetVbat
 .text.PWR_Mgn  0x08000838       0xd4 src/power.o
                0x08000838                PWR_Mgn
 .text.PWR_Configuration
                0x0800090c       0x2c src/power.o
                0x0800090c                PWR_Configuration
 .text.ADC_DMA_Configuration
                0x08000938      0x138 src/adc_support.o
                0x08000938                ADC_DMA_Configuration
 .text.Time_ConvUnixToCalendar
                0x08000a70       0x2a src/rtc_support.o
                0x08000a70                Time_ConvUnixToCalendar
 .text.Time_GetCalendarTime
                0x08000a9a       0x14 src/rtc_support.o
                0x08000a9a                Time_GetCalendarTime
 .text.Time_SetUnixTime
                0x08000aae       0x22 src/rtc_support.o
                0x08000aae                Time_SetUnixTime
 .text.Time_SetCalendarTime
                0x08000ad0       0x38 src/rtc_support.o
                0x08000ad0                Time_SetCalendarTime
 .text.RTC_Configuration
                0x08000b08       0xd8 src/rtc_support.o
                0x08000b08                RTC_Configuration
 .text.get_line_GPS
                0x08000be0       0x34 src/gps_support.o
 .text.gp_val   0x08000c14       0x22 src/gps_support.o
 *fill*         0x08000c36        0x2 00
 .text.gp_comp.constprop.0
                0x08000c38       0x18 src/gps_support.o
 .text.gp_col.constprop.1
                0x08000c50       0x24 src/gps_support.o
 .text.xSend_MTKCmd
                0x08000c74       0x60 src/gps_support.o
 .text.get_fattime
                0x08000cd4       0x38 src/gps_support.o
                0x08000cd4                get_fattime
 .text.ChkAckLimit
                0x08000d0c       0x2c src/gps_support.o
                0x08000d0c                ChkAckLimit
 .text.ShutFileClose
                0x08000d38       0x1c src/gps_support.o
                0x08000d38                ShutFileClose
 .text.gps_task
                0x08000d54      0x2fc src/gps_support.o
                0x08000d54                gps_task
 .text.USART_Config_Default
                0x08001050       0x88 src/cdc_support.o
                0x08001050                USART_Config_Default
 .text.USART_Config
                0x080010d8       0xf4 src/cdc_support.o
                0x080010d8                USART_Config
 .text.USB_To_USART_Send_Data
                0x080011cc       0x2c src/cdc_support.o
                0x080011cc                USB_To_USART_Send_Data
 .text.Handle_USBAsynchXfer
                0x080011f8       0x9c src/cdc_support.o
                0x080011f8                Handle_USBAsynchXfer
 .text.USART_To_USB_Send_Data
                0x08001294       0x4c src/cdc_support.o
                0x08001294                USART_To_USB_Send_Data
 .text.CDC_IRQ  0x080012e0       0x2c src/cdc_support.o
                0x080012e0                CDC_IRQ
 .text.cdc_task
                0x0800130c       0x94 src/cdc_support.o
                0x0800130c                cdc_task
 .text.msc_task
                0x080013a0       0xa0 src/msc_support.o
                0x080013a0                msc_task
 .text.conio_init
                0x08001440       0xd4 src/uart_support_gps.o
                0x08001440                conio_init
 .text.USART_TXBuffer_PutByte
                0x08001514       0x4c src/uart_support_gps.o
                0x08001514                USART_TXBuffer_PutByte
 .text.USART_RXBuffer_GetByte
                0x08001560       0x1c src/uart_support_gps.o
                0x08001560                USART_RXBuffer_GetByte
 .text.putch    0x0800157c       0x24 src/uart_support_gps.o
                0x0800157c                putch
 .text.getch    0x080015a0       0x20 src/uart_support_gps.o
                0x080015a0                getch
 .text.conio_IRQ
                0x080015c0       0x98 src/uart_support_gps.o
                0x080015c0                conio_IRQ
 .text.USART2_IRQHandler
                0x08001658       0x10 src/uart_support_gps.o
                0x08001658                USART2_IRQHandler
 .text.Flush_RXBuffer
                0x08001668       0x24 src/uart_support_gps.o
                0x08001668                Flush_RXBuffer
 .text.WaitTxBuffer
                0x0800168c       0x20 src/uart_support_gps.o
                0x0800168c                WaitTxBuffer
 .text.xgetc_n  0x080016ac       0x3c src/term_io.o
                0x080016ac                xgetc_n
 .text.xgetc    0x080016e8        0xe src/term_io.o
                0x080016e8                xgetc
 *fill*         0x080016f6        0x2 00
 .text.xputc    0x080016f8       0x30 src/xprintf.o
                0x080016f8                xputc
 .text.xputs    0x08001728       0x14 src/xprintf.o
                0x08001728                xputs
 .text.xvprintf
                0x0800173c      0x1b8 src/xprintf.o
 .text.xprintf  0x080018f4       0x18 src/xprintf.o
                0x080018f4                xprintf
 .text.xsprintf
                0x0800190c       0x2c src/xprintf.o
                0x0800190c                xsprintf
 .text.Display_IoInit_If
                0x08001938       0xf8 lib/display/mcu_depend/src/display_if_basis.o
                0x08001938                Display_IoInit_If
 .text.SetPixel
                0x08001a30        0xa lib/display/abstract/src/display_if_support.o
 *fill*         0x08001a3a        0x2 00
 .text.putkanji_t
                0x08001a3c       0xc8 lib/display/abstract/src/display_if_support.o
 .text.putank_t.isra.0
                0x08001b04       0xc0 lib/display/abstract/src/display_if_support.o
 .text.putkanji
                0x08001bc4       0xb4 lib/display/abstract/src/display_if_support.o
                0x08001bc4                putkanji
 .text.putank   0x08001c78       0xac lib/display/abstract/src/display_if_support.o
                0x08001c78                putank
 .text.Display_Puts_If
                0x08001d24       0x98 lib/display/abstract/src/display_if_support.o
                0x08001d24                Display_Puts_If
 .text.ST7732_reset
                0x08001dbc       0x2c lib/display/drivers/src/st7732.o
                0x08001dbc                ST7732_reset
 .text.ST7732_wr_gram
                0x08001de8       0x14 lib/display/drivers/src/st7732.o
                0x08001de8                ST7732_wr_gram
 .text.ST7732_rect
                0x08001dfc       0x44 lib/display/drivers/src/st7732.o
                0x08001dfc                ST7732_rect
 .text.ST7732_clear
                0x08001e40       0x34 lib/display/drivers/src/st7732.o
                0x08001e40                ST7732_clear
 .text.ST7732_init
                0x08001e74      0x17c lib/display/drivers/src/st7732.o
                0x08001e74                ST7732_init
 .text.SearchKanjiBlock
                0x08001ff0       0x34 lib/FONTX2/src/font_if.o
 .text.InitFont_Ank
                0x08002024       0x22 lib/FONTX2/src/font_if.o
                0x08002024                InitFont_Ank
 *fill*         0x08002046        0x2 00
 .text.ChangeCurrentAnk
                0x08002048        0xc lib/FONTX2/src/font_if.o
                0x08002048                ChangeCurrentAnk
 .text.GetPtr_Ank
                0x08002054       0x18 lib/FONTX2/src/font_if.o
                0x08002054                GetPtr_Ank
 .text.GetPtr_Kanji
                0x0800206c       0x3c lib/FONTX2/src/font_if.o
                0x0800206c                GetPtr_Kanji
 .text.mem_cpy  0x080020a8       0x2e lib/ff/ff.o
 .text.mem_set  0x080020d6        0xe lib/ff/ff.o
 .text.clmt_clust
                0x080020e4       0x22 lib/ff/ff.o
 .text.validate
                0x08002106       0x2a lib/ff/ff.o
 .text.sync_window
                0x08002130       0x4e lib/ff/ff.o
 *fill*         0x0800217e        0x2 00
 .text.sync_fs  0x08002180       0x70 lib/ff/ff.o
 .text.move_window
                0x080021f0       0x2e lib/ff/ff.o
 *fill*         0x0800221e        0x2 00
 .text.check_fs
                0x08002220       0x4c lib/ff/ff.o
 .text.chk_mounted
                0x0800226c      0x218 lib/ff/ff.o
 .text.clust2sect
                0x08002484       0x18 lib/ff/ff.o
                0x08002484                clust2sect
 .text.get_fat  0x0800249c       0xa0 lib/ff/ff.o
                0x0800249c                get_fat
 .text.dir_sdi  0x0800253c       0x84 lib/ff/ff.o
 .text.put_fat  0x080025c0       0xcc lib/ff/ff.o
                0x080025c0                put_fat
 .text.create_chain
                0x0800268c       0x9a lib/ff/ff.o
 .text.dir_next
                0x08002726       0xf6 lib/ff/ff.o
 .text.follow_path
                0x0800281c      0x258 lib/ff/ff.o
 .text.dir_alloc.part.7.constprop.11
                0x08002a74       0x26 lib/ff/ff.o
 .text.dir_register
                0x08002a9a       0x42 lib/ff/ff.o
 .text.remove_chain
                0x08002adc       0x82 lib/ff/ff.o
 *fill*         0x08002b5e        0x2 00
 .text.f_mount  0x08002b60       0x20 lib/ff/ff.o
                0x08002b60                f_mount
 .text.f_open   0x08002b80      0x130 lib/ff/ff.o
                0x08002b80                f_open
 .text.f_write  0x08002cb0      0x18e lib/ff/ff.o
                0x08002cb0                f_write
 .text.f_sync   0x08002e3e       0x5e lib/ff/ff.o
                0x08002e3e                f_sync
 .text.f_close  0x08002e9c        0xe lib/ff/ff.o
                0x08002e9c                f_close
 .text.f_lseek  0x08002eaa      0x1ce lib/ff/ff.o
                0x08002eaa                f_lseek
 .text.CmdResp2Error
                0x08003078       0x38 lib/ff/sdio_stm32f1.o
 .text.IsCardProgramming
                0x080030b0      0x15c lib/ff/sdio_stm32f1.o
 .text.unlikely.SD_LowLevel_DMA_TxConfig
                0x0800320c       0x64 lib/ff/sdio_stm32f1.o
 .text.unlikely.SD_LowLevel_DMA_RxConfig
                0x08003270       0x64 lib/ff/sdio_stm32f1.o
 .text.CmdResp1Error
                0x080032d4       0xf4 lib/ff/sdio_stm32f1.o
 .text.SDEnWideBus
                0x080033c8      0x1f0 lib/ff/sdio_stm32f1.o
 .text.SD_PowerON
                0x080035b8      0x1ac lib/ff/sdio_stm32f1.o
                0x080035b8                SD_PowerON
 .text.SD_InitializeCards
                0x08003764      0x164 lib/ff/sdio_stm32f1.o
                0x08003764                SD_InitializeCards
 .text.SD_GetCardInfo
                0x080038c8      0x28c lib/ff/sdio_stm32f1.o
                0x080038c8                SD_GetCardInfo
 .text.SD_EnableWideBusOperation
                0x08003b54       0x74 lib/ff/sdio_stm32f1.o
                0x08003b54                SD_EnableWideBusOperation
 .text.SD_SetDeviceMode
                0x08003bc8       0x14 lib/ff/sdio_stm32f1.o
                0x08003bc8                SD_SetDeviceMode
 .text.SD_SelectDeselect
                0x08003bdc       0x2c lib/ff/sdio_stm32f1.o
                0x08003bdc                SD_SelectDeselect
 .text.SD_Init  0x08003c08       0xe0 lib/ff/sdio_stm32f1.o
                0x08003c08                SD_Init
 .text.SD_ReadBlock
                0x08003ce8      0x22c lib/ff/sdio_stm32f1.o
                0x08003ce8                SD_ReadBlock
 .text.SD_ReadMultiBlocks
                0x08003f14      0x294 lib/ff/sdio_stm32f1.o
                0x08003f14                SD_ReadMultiBlocks
 .text.SD_WriteBlock
                0x080041a8      0x2f4 lib/ff/sdio_stm32f1.o
                0x080041a8                SD_WriteBlock
 .text.SD_WriteMultiBlocks
                0x0800449c      0x380 lib/ff/sdio_stm32f1.o
                0x0800449c                SD_WriteMultiBlocks
 .text.SD_StopTransfer
                0x0800481c       0x2c lib/ff/sdio_stm32f1.o
                0x0800481c                SD_StopTransfer
 .text.SD_SendSDStatus
                0x08004848      0x168 lib/ff/sdio_stm32f1.o
                0x08004848                SD_SendSDStatus
 .text.SD_ProcessIRQSrc
                0x080049b0      0x1ec lib/ff/sdio_stm32f1.o
                0x080049b0                SD_ProcessIRQSrc
 .text.SDIO_IRQHandler
                0x08004b9c        0x4 lib/ff/sdio_stm32f1.o
                0x08004b9c                SDIO_IRQHandler
 .text.SD_GetCardStatus
                0x08004ba0       0x84 lib/ff/sdio_stm32f1.o
                0x08004ba0                SD_GetCardStatus
 .text.disk_initialize
                0x08004c24       0x20 lib/ff/diskio_sdio.o
                0x08004c24                disk_initialize
 .text.disk_status
                0x08004c44       0x24 lib/ff/diskio_sdio.o
                0x08004c44                disk_status
 .text.disk_read
                0x08004c68       0x2a lib/ff/diskio_sdio.o
                0x08004c68                disk_read
 .text.disk_write
                0x08004c92       0x2a lib/ff/diskio_sdio.o
                0x08004c92                disk_write
 .text.disk_ioctl
                0x08004cbc       0x84 lib/ff/diskio_sdio.o
                0x08004cbc                disk_ioctl
 .text.rtc_gettime
                0x08004d40       0x44 lib/ff/ff_rtc_if.o
                0x08004d40                rtc_gettime
 .text.PowerOn  0x08004d84       0x30 lib/USB_Functions/usb_pwr.o
                0x08004d84                PowerOn
 .text.USB_Istr
                0x08004db4       0x10 lib/USB_Functions/usb_istr.o
                0x08004db4                USB_Istr
 .text.CDC_USB_Istr
                0x08004dc4       0x7c lib/USB_Functions/usb_istr.o
                0x08004dc4                CDC_USB_Istr
 .text.MSC_USB_Istr
                0x08004e40       0x54 lib/USB_Functions/usb_istr.o
                0x08004e40                MSC_USB_Istr
 .text.EP1_IN_Callback
                0x08004e94       0x10 lib/USB_Functions/usb_conf.o
                0x08004e94                EP1_IN_Callback
 .text.EP3_OUT_Callback
                0x08004ea4       0x10 lib/USB_Functions/usb_conf.o
                0x08004ea4                EP3_OUT_Callback
 .text.EP2_OUT_Callback
                0x08004eb4       0x10 lib/USB_Functions/usb_conf.o
                0x08004eb4                EP2_OUT_Callback
 .text.SOF_Callback
                0x08004ec4       0x10 lib/USB_Functions/usb_conf.o
                0x08004ec4                SOF_Callback
 .text.nxinit   0x08004ed4       0x10 lib/USB_Functions/usb_prop.o
                0x08004ed4                nxinit
 .text.nxReset  0x08004ee4       0x10 lib/USB_Functions/usb_prop.o
                0x08004ee4                nxReset
 .text.nxStatus_In
                0x08004ef4       0x10 lib/USB_Functions/usb_prop.o
                0x08004ef4                nxStatus_In
 .text.nxStatus_Out
                0x08004f04       0x10 lib/USB_Functions/usb_prop.o
                0x08004f04                nxStatus_Out
 .text.nxData_Setup
                0x08004f14       0x10 lib/USB_Functions/usb_prop.o
                0x08004f14                nxData_Setup
 .text.nxNoData_Setup
                0x08004f24       0x10 lib/USB_Functions/usb_prop.o
                0x08004f24                nxNoData_Setup
 .text.nxGet_Interface_Setting
                0x08004f34       0x10 lib/USB_Functions/usb_prop.o
                0x08004f34                nxGet_Interface_Setting
 .text.nxGetDeviceDescriptor
                0x08004f44       0x10 lib/USB_Functions/usb_prop.o
                0x08004f44                nxGetDeviceDescriptor
 .text.nxGetConfigDescriptor
                0x08004f54       0x10 lib/USB_Functions/usb_prop.o
                0x08004f54                nxGetConfigDescriptor
 .text.nxGetStringDescriptor
                0x08004f64       0x10 lib/USB_Functions/usb_prop.o
                0x08004f64                nxGetStringDescriptor
 .text.nxGetConfiguration
                0x08004f74       0x10 lib/USB_Functions/usb_prop.o
                0x08004f74                nxGetConfiguration
 .text.nxSetConfiguration
                0x08004f84       0x10 lib/USB_Functions/usb_prop.o
                0x08004f84                nxSetConfiguration
 .text.nxGetInterface
                0x08004f94       0x10 lib/USB_Functions/usb_prop.o
                0x08004f94                nxGetInterface
 .text.nxSetInterface
                0x08004fa4       0x10 lib/USB_Functions/usb_prop.o
                0x08004fa4                nxSetInterface
 .text.nxGetStatus
                0x08004fb4       0x10 lib/USB_Functions/usb_prop.o
                0x08004fb4                nxGetStatus
 .text.nxClearFeature
                0x08004fc4       0x10 lib/USB_Functions/usb_prop.o
                0x08004fc4                nxClearFeature
 .text.nxSetEndPointFeature
                0x08004fd4       0x10 lib/USB_Functions/usb_prop.o
                0x08004fd4                nxSetEndPointFeature
 .text.nxSetDeviceFeature
                0x08004fe4       0x10 lib/USB_Functions/usb_prop.o
                0x08004fe4                nxSetDeviceFeature
 .text.nxSetDeviceAddress
                0x08004ff4       0x10 lib/USB_Functions/usb_prop.o
                0x08004ff4                nxSetDeviceAddress
 .text.Virtual_Com_Port_SetConfiguration
                0x08005004       0x18 lib/USB_Functions/cdc/src/usb_cdc_prop.o
                0x08005004                Virtual_Com_Port_SetConfiguration
 .text.Virtual_Com_Port_SetDeviceAddress
                0x0800501c        0xc lib/USB_Functions/cdc/src/usb_cdc_prop.o
                0x0800501c                Virtual_Com_Port_SetDeviceAddress
 .text.Virtual_Com_Port_Status_Out
                0x08005028        0x2 lib/USB_Functions/cdc/src/usb_cdc_prop.o
                0x08005028                Virtual_Com_Port_Status_Out
 *fill*         0x0800502a        0x2 00
 .text.Virtual_Com_Port_Data_Setup
                0x0800502c       0x5c lib/USB_Functions/cdc/src/usb_cdc_prop.o
                0x0800502c                Virtual_Com_Port_Data_Setup
 .text.Virtual_Com_Port_NoData_Setup
                0x08005088       0x24 lib/USB_Functions/cdc/src/usb_cdc_prop.o
                0x08005088                Virtual_Com_Port_NoData_Setup
 .text.Virtual_Com_Port_Get_Interface_Setting
                0x080050ac        0xe lib/USB_Functions/cdc/src/usb_cdc_prop.o
                0x080050ac                Virtual_Com_Port_Get_Interface_Setting
 *fill*         0x080050ba        0x2 00
 .text.Virtual_Com_Port_GetLineCoding
                0x080050bc       0x18 lib/USB_Functions/cdc/src/usb_cdc_prop.o
                0x080050bc                Virtual_Com_Port_GetLineCoding
 .text.Virtual_Com_Port_SetLineCoding
                0x080050d4       0x18 lib/USB_Functions/cdc/src/usb_cdc_prop.o
                0x080050d4                Virtual_Com_Port_SetLineCoding
 .text.Virtual_Com_Port_GetStringDescriptor
                0x080050ec       0x20 lib/USB_Functions/cdc/src/usb_cdc_prop.o
                0x080050ec                Virtual_Com_Port_GetStringDescriptor
 .text.Virtual_Com_Port_GetConfigDescriptor
                0x0800510c        0xc lib/USB_Functions/cdc/src/usb_cdc_prop.o
                0x0800510c                Virtual_Com_Port_GetConfigDescriptor
 .text.Virtual_Com_Port_GetDeviceDescriptor
                0x08005118        0xc lib/USB_Functions/cdc/src/usb_cdc_prop.o
                0x08005118                Virtual_Com_Port_GetDeviceDescriptor
 .text.Virtual_Com_Port_Status_In
                0x08005124       0x18 lib/USB_Functions/cdc/src/usb_cdc_prop.o
                0x08005124                Virtual_Com_Port_Status_In
 .text.Virtual_Com_Port_Reset
                0x0800513c      0x100 lib/USB_Functions/cdc/src/usb_cdc_prop.o
                0x0800513c                Virtual_Com_Port_Reset
 .text.Virtual_Com_Port_init
                0x0800523c       0x34 lib/USB_Functions/cdc/src/usb_cdc_prop.o
                0x0800523c                Virtual_Com_Port_init
 .text.CDC_SetStructure
                0x08005270       0xf4 lib/USB_Functions/cdc/src/usb_cdc_prop.o
                0x08005270                CDC_SetStructure
 .text.CDC_EP1_IN_Callback
                0x08005364       0xc0 lib/USB_Functions/cdc/src/usb_cdc_endp.o
                0x08005364                CDC_EP1_IN_Callback
 .text.CDC_EP3_OUT_Callback
                0x08005424       0x5c lib/USB_Functions/cdc/src/usb_cdc_endp.o
                0x08005424                CDC_EP3_OUT_Callback
 .text.CDC_SOF_Callback
                0x08005480       0x28 lib/USB_Functions/cdc/src/usb_cdc_endp.o
                0x08005480                CDC_SOF_Callback
 .text.MAL_Init
                0x080054a8       0x1c lib/USB_Functions/msc/src/usb_msc_mass_mal.o
                0x080054a8                MAL_Init
 .text.MAL_Write
                0x080054c4       0x24 lib/USB_Functions/msc/src/usb_msc_mass_mal.o
                0x080054c4                MAL_Write
 .text.MAL_Read
                0x080054e8       0x24 lib/USB_Functions/msc/src/usb_msc_mass_mal.o
                0x080054e8                MAL_Read
 .text.MAL_GetStatus
                0x0800550c       0xc8 lib/USB_Functions/msc/src/usb_msc_mass_mal.o
                0x0800550c                MAL_GetStatus
 .text.Read_Memory
                0x080055d4       0xf8 lib/USB_Functions/msc/src/usb_msc_memory.o
                0x080055d4                Read_Memory
 .text.Write_Memory
                0x080056cc      0x100 lib/USB_Functions/msc/src/usb_msc_memory.o
                0x080056cc                Write_Memory
 .text.SCSI_Inquiry_Cmd
                0x080057cc       0x28 lib/USB_Functions/msc/src/usb_msc_scsi.o
                0x080057cc                SCSI_Inquiry_Cmd
 .text.SCSI_ReadFormatCapacity_Cmd
                0x080057f4       0x68 lib/USB_Functions/msc/src/usb_msc_scsi.o
                0x080057f4                SCSI_ReadFormatCapacity_Cmd
 .text.SCSI_ReadCapacity10_Cmd
                0x0800585c       0x6c lib/USB_Functions/msc/src/usb_msc_scsi.o
                0x0800585c                SCSI_ReadCapacity10_Cmd
 .text.SCSI_ModeSense6_Cmd
                0x080058c8        0xc lib/USB_Functions/msc/src/usb_msc_scsi.o
                0x080058c8                SCSI_ModeSense6_Cmd
 .text.SCSI_ModeSense10_Cmd
                0x080058d4        0xc lib/USB_Functions/msc/src/usb_msc_scsi.o
                0x080058d4                SCSI_ModeSense10_Cmd
 .text.SCSI_RequestSense_Cmd
                0x080058e0       0x18 lib/USB_Functions/msc/src/usb_msc_scsi.o
                0x080058e0                SCSI_RequestSense_Cmd
 .text.Set_Scsi_Sense_Data
                0x080058f8        0xc lib/USB_Functions/msc/src/usb_msc_scsi.o
                0x080058f8                Set_Scsi_Sense_Data
 .text.SCSI_Start_Stop_Unit_Cmd
                0x08005904        0x8 lib/USB_Functions/msc/src/usb_msc_scsi.o
                0x08005904                SCSI_Start_Stop_Unit_Cmd
 .text.SCSI_Verify10_Cmd
                0x0800590c       0x3c lib/USB_Functions/msc/src/usb_msc_scsi.o
                0x0800590c                SCSI_Verify10_Cmd
 .text.SCSI_TestUnitReady_Cmd
                0x08005948       0x34 lib/USB_Functions/msc/src/usb_msc_scsi.o
                0x08005948                SCSI_TestUnitReady_Cmd
 .text.SCSI_Format_Cmd
                0x0800597c       0x2c lib/USB_Functions/msc/src/usb_msc_scsi.o
                0x0800597c                SCSI_Format_Cmd
 .text.SCSI_Invalid_Cmd
                0x080059a8       0x38 lib/USB_Functions/msc/src/usb_msc_scsi.o
                0x080059a8                SCSI_Invalid_Cmd
 .text.SCSI_Address_Management
                0x080059e0       0x70 lib/USB_Functions/msc/src/usb_msc_scsi.o
                0x080059e0                SCSI_Address_Management
 .text.SCSI_Write10_Cmd
                0x08005a50       0x70 lib/USB_Functions/msc/src/usb_msc_scsi.o
                0x08005a50                SCSI_Write10_Cmd
 .text.SCSI_Read10_Cmd
                0x08005ac0       0x70 lib/USB_Functions/msc/src/usb_msc_scsi.o
                0x08005ac0                SCSI_Read10_Cmd
 .text.Bot_Abort.part.1
                0x08005b30       0x18 lib/USB_Functions/msc/src/usb_msc_bot.o
 .text.Transfer_Data_Request
                0x08005b48       0x34 lib/USB_Functions/msc/src/usb_msc_bot.o
                0x08005b48                Transfer_Data_Request
 .text.Set_CSW  0x08005b7c       0x3c lib/USB_Functions/msc/src/usb_msc_bot.o
                0x08005b7c                Set_CSW
 .text.Mass_Storage_In
                0x08005bb8       0x5c lib/USB_Functions/msc/src/usb_msc_bot.o
                0x08005bb8                Mass_Storage_In
 .text.CBW_Decode
                0x08005c14      0x1d0 lib/USB_Functions/msc/src/usb_msc_bot.o
                0x08005c14                CBW_Decode
 .text.Bot_Abort
                0x08005de4       0x22 lib/USB_Functions/msc/src/usb_msc_bot.o
                0x08005de4                Bot_Abort
 *fill*         0x08005e06        0x2 00
 .text.Mass_Storage_Out
                0x08005e08       0xb8 lib/USB_Functions/msc/src/usb_msc_bot.o
                0x08005e08                Mass_Storage_Out
 .text.Mass_SetDeviceAddress
                0x08005ec0        0xc lib/USB_Functions/msc/src/usb_msc_prop.o
                0x08005ec0                Mass_SetDeviceAddress
 .text.Mass_Status_In
                0x08005ecc        0x2 lib/USB_Functions/msc/src/usb_msc_prop.o
                0x08005ecc                Mass_Status_In
 .text.Mass_Status_Out
                0x08005ece        0x2 lib/USB_Functions/msc/src/usb_msc_prop.o
                0x08005ece                Mass_Status_Out
 .text.Mass_Get_Interface_Setting
                0x08005ed0        0xc lib/USB_Functions/msc/src/usb_msc_prop.o
                0x08005ed0                Mass_Get_Interface_Setting
 .text.Get_Max_Lun
                0x08005edc       0x18 lib/USB_Functions/msc/src/usb_msc_prop.o
                0x08005edc                Get_Max_Lun
 .text.Mass_GetStringDescriptor
                0x08005ef4       0x20 lib/USB_Functions/msc/src/usb_msc_prop.o
                0x08005ef4                Mass_GetStringDescriptor
 .text.Mass_GetConfigDescriptor
                0x08005f14        0xc lib/USB_Functions/msc/src/usb_msc_prop.o
                0x08005f14                Mass_GetConfigDescriptor
 .text.Mass_GetDeviceDescriptor
                0x08005f20        0xc lib/USB_Functions/msc/src/usb_msc_prop.o
                0x08005f20                Mass_GetDeviceDescriptor
 .text.Mass_ClearFeature
                0x08005f2c       0x1c lib/USB_Functions/msc/src/usb_msc_prop.o
                0x08005f2c                Mass_ClearFeature
 .text.Mass_Reset
                0x08005f48      0x104 lib/USB_Functions/msc/src/usb_msc_prop.o
                0x08005f48                Mass_Reset
 .text.Mass_init
                0x0800604c       0x30 lib/USB_Functions/msc/src/usb_msc_prop.o
                0x0800604c                Mass_init
 .text.Mass_NoData_Setup
                0x0800607c       0x4c lib/USB_Functions/msc/src/usb_msc_prop.o
                0x0800607c                Mass_NoData_Setup
 .text.Mass_SetConfiguration
                0x080060c8       0x30 lib/USB_Functions/msc/src/usb_msc_prop.o
                0x080060c8                Mass_SetConfiguration
 .text.Mass_Data_Setup
                0x080060f8       0x38 lib/USB_Functions/msc/src/usb_msc_prop.o
                0x080060f8                Mass_Data_Setup
 .text.MSC_SetStructure
                0x08006130       0xf8 lib/USB_Functions/msc/src/usb_msc_prop.o
                0x08006130                MSC_SetStructure
 .text.NVIC_PriorityGroupConfig
                0x08006228       0x14 STM32F103VET6_lib.a(misc.o)
                0x08006228                NVIC_PriorityGroupConfig
 .text.NVIC_Init
                0x0800623c       0x68 STM32F103VET6_lib.a(misc.o)
                0x0800623c                NVIC_Init
 .text.NVIC_SetVectorTable
                0x080062a4       0x14 STM32F103VET6_lib.a(misc.o)
                0x080062a4                NVIC_SetVectorTable
 .text.SysTick_CLKSourceConfig
                0x080062b8       0x18 STM32F103VET6_lib.a(misc.o)
                0x080062b8                SysTick_CLKSourceConfig
 .text.GPIO_Init
                0x080062d0       0x98 STM32F103VET6_lib.a(stm32f10x_gpio.o)
                0x080062d0                GPIO_Init
 .text.GPIO_ReadInputDataBit
                0x08006368        0xc STM32F103VET6_lib.a(stm32f10x_gpio.o)
                0x08006368                GPIO_ReadInputDataBit
 .text.GPIO_SetBits
                0x08006374        0x4 STM32F103VET6_lib.a(stm32f10x_gpio.o)
                0x08006374                GPIO_SetBits
 .text.GPIO_ResetBits
                0x08006378        0x4 STM32F103VET6_lib.a(stm32f10x_gpio.o)
                0x08006378                GPIO_ResetBits
 .text.FSMC_NORSRAMInit
                0x0800637c       0xbc STM32F103VET6_lib.a(stm32f10x_fsmc.o)
                0x0800637c                FSMC_NORSRAMInit
 .text.FSMC_NORSRAMCmd
                0x08006438       0x24 STM32F103VET6_lib.a(stm32f10x_fsmc.o)
                0x08006438                FSMC_NORSRAMCmd
 .text.RCC_PLLConfig
                0x0800645c       0x14 STM32F103VET6_lib.a(stm32f10x_rcc.o)
                0x0800645c                RCC_PLLConfig
 .text.RCC_PLLCmd
                0x08006470        0xc STM32F103VET6_lib.a(stm32f10x_rcc.o)
                0x08006470                RCC_PLLCmd
 .text.RCC_SYSCLKConfig
                0x0800647c       0x14 STM32F103VET6_lib.a(stm32f10x_rcc.o)
                0x0800647c                RCC_SYSCLKConfig
 .text.RCC_GetSYSCLKSource
                0x08006490       0x10 STM32F103VET6_lib.a(stm32f10x_rcc.o)
                0x08006490                RCC_GetSYSCLKSource
 .text.RCC_USBCLKConfig
                0x080064a0        0xc STM32F103VET6_lib.a(stm32f10x_rcc.o)
                0x080064a0                RCC_USBCLKConfig
 .text.RCC_LSEConfig
                0x080064ac       0x20 STM32F103VET6_lib.a(stm32f10x_rcc.o)
                0x080064ac                RCC_LSEConfig
 .text.RCC_RTCCLKConfig
                0x080064cc       0x10 STM32F103VET6_lib.a(stm32f10x_rcc.o)
                0x080064cc                RCC_RTCCLKConfig
 .text.RCC_RTCCLKCmd
                0x080064dc        0xc STM32F103VET6_lib.a(stm32f10x_rcc.o)
                0x080064dc                RCC_RTCCLKCmd
 .text.RCC_GetClocksFreq
                0x080064e8       0x9c STM32F103VET6_lib.a(stm32f10x_rcc.o)
                0x080064e8                RCC_GetClocksFreq
 .text.RCC_AHBPeriphClockCmd
                0x08006584       0x18 STM32F103VET6_lib.a(stm32f10x_rcc.o)
                0x08006584                RCC_AHBPeriphClockCmd
 .text.RCC_APB2PeriphClockCmd
                0x0800659c       0x18 STM32F103VET6_lib.a(stm32f10x_rcc.o)
                0x0800659c                RCC_APB2PeriphClockCmd
 .text.RCC_APB1PeriphClockCmd
                0x080065b4       0x18 STM32F103VET6_lib.a(stm32f10x_rcc.o)
                0x080065b4                RCC_APB1PeriphClockCmd
 .text.RCC_BackupResetCmd
                0x080065cc        0xc STM32F103VET6_lib.a(stm32f10x_rcc.o)
                0x080065cc                RCC_BackupResetCmd
 .text.RCC_GetFlagStatus
                0x080065d8       0x28 STM32F103VET6_lib.a(stm32f10x_rcc.o)
                0x080065d8                RCC_GetFlagStatus
 .text.ADC_Init
                0x08006600       0x48 STM32F103VET6_lib.a(stm32f10x_adc.o)
                0x08006600                ADC_Init
 .text.ADC_Cmd  0x08006648       0x12 STM32F103VET6_lib.a(stm32f10x_adc.o)
                0x08006648                ADC_Cmd
 .text.ADC_DMACmd
                0x0800665a       0x12 STM32F103VET6_lib.a(stm32f10x_adc.o)
                0x0800665a                ADC_DMACmd
 .text.ADC_ResetCalibration
                0x0800666c        0xa STM32F103VET6_lib.a(stm32f10x_adc.o)
                0x0800666c                ADC_ResetCalibration
 .text.ADC_GetResetCalibrationStatus
                0x08006676        0x8 STM32F103VET6_lib.a(stm32f10x_adc.o)
                0x08006676                ADC_GetResetCalibrationStatus
 .text.ADC_StartCalibration
                0x0800667e        0xa STM32F103VET6_lib.a(stm32f10x_adc.o)
                0x0800667e                ADC_StartCalibration
 .text.ADC_GetCalibrationStatus
                0x08006688        0x8 STM32F103VET6_lib.a(stm32f10x_adc.o)
                0x08006688                ADC_GetCalibrationStatus
 .text.ADC_SoftwareStartConvCmd
                0x08006690       0x12 STM32F103VET6_lib.a(stm32f10x_adc.o)
                0x08006690                ADC_SoftwareStartConvCmd
 .text.ADC_RegularChannelConfig
                0x080066a2       0x9a STM32F103VET6_lib.a(stm32f10x_adc.o)
                0x080066a2                ADC_RegularChannelConfig
 .text.ADC_ExternalTrigConvCmd
                0x0800673c       0x12 STM32F103VET6_lib.a(stm32f10x_adc.o)
                0x0800673c                ADC_ExternalTrigConvCmd
 *fill*         0x0800674e        0x2 00
 .text.ADC_TempSensorVrefintCmd
                0x08006750       0x18 STM32F103VET6_lib.a(stm32f10x_adc.o)
                0x08006750                ADC_TempSensorVrefintCmd
 .text.DMA_DeInit
                0x08006768       0xf0 STM32F103VET6_lib.a(stm32f10x_dma.o)
                0x08006768                DMA_DeInit
 .text.DMA_Init
                0x08006858       0x40 STM32F103VET6_lib.a(stm32f10x_dma.o)
                0x08006858                DMA_Init
 .text.DMA_Cmd  0x08006898       0x16 STM32F103VET6_lib.a(stm32f10x_dma.o)
                0x08006898                DMA_Cmd
 *fill*         0x080068ae        0x2 00
 .text.DMA_GetFlagStatus
                0x080068b0       0x1c STM32F103VET6_lib.a(stm32f10x_dma.o)
                0x080068b0                DMA_GetFlagStatus
 .text.DMA_ClearFlag
                0x080068cc       0x14 STM32F103VET6_lib.a(stm32f10x_dma.o)
                0x080068cc                DMA_ClearFlag
 .text.TIM_TimeBaseInit
                0x080068e0       0x94 STM32F103VET6_lib.a(stm32f10x_tim.o)
                0x080068e0                TIM_TimeBaseInit
 .text.TIM_TimeBaseStructInit
                0x08006974       0x12 STM32F103VET6_lib.a(stm32f10x_tim.o)
                0x08006974                TIM_TimeBaseStructInit
 .text.TIM_Cmd  0x08006986       0x18 STM32F103VET6_lib.a(stm32f10x_tim.o)
                0x08006986                TIM_Cmd
 *fill*         0x0800699e        0x2 00
 .text.RTC_ITConfig
                0x080069a0       0x18 STM32F103VET6_lib.a(stm32f10x_rtc.o)
                0x080069a0                RTC_ITConfig
 .text.RTC_EnterConfigMode
                0x080069b8       0x14 STM32F103VET6_lib.a(stm32f10x_rtc.o)
                0x080069b8                RTC_EnterConfigMode
 .text.RTC_ExitConfigMode
                0x080069cc       0x14 STM32F103VET6_lib.a(stm32f10x_rtc.o)
                0x080069cc                RTC_ExitConfigMode
 .text.RTC_GetCounter
                0x080069e0       0x28 STM32F103VET6_lib.a(stm32f10x_rtc.o)
                0x080069e0                RTC_GetCounter
 .text.RTC_SetCounter
                0x08006a08       0x20 STM32F103VET6_lib.a(stm32f10x_rtc.o)
                0x08006a08                RTC_SetCounter
 .text.RTC_SetPrescaler
                0x08006a28       0x20 STM32F103VET6_lib.a(stm32f10x_rtc.o)
                0x08006a28                RTC_SetPrescaler
 .text.RTC_WaitForLastTask
                0x08006a48       0x14 STM32F103VET6_lib.a(stm32f10x_rtc.o)
                0x08006a48                RTC_WaitForLastTask
 .text.RTC_WaitForSynchro
                0x08006a5c       0x24 STM32F103VET6_lib.a(stm32f10x_rtc.o)
                0x08006a5c                RTC_WaitForSynchro
 .text.SDIO_DeInit
                0x08006a80       0x24 STM32F103VET6_lib.a(stm32f10x_sdio.o)
                0x08006a80                SDIO_DeInit
 .text.SDIO_Init
                0x08006aa4       0x30 STM32F103VET6_lib.a(stm32f10x_sdio.o)
                0x08006aa4                SDIO_Init
 .text.SDIO_ClockCmd
                0x08006ad4        0xc STM32F103VET6_lib.a(stm32f10x_sdio.o)
                0x08006ad4                SDIO_ClockCmd
 .text.SDIO_SetPowerState
                0x08006ae0        0xc STM32F103VET6_lib.a(stm32f10x_sdio.o)
                0x08006ae0                SDIO_SetPowerState
 .text.SDIO_GetPowerState
                0x08006aec       0x10 STM32F103VET6_lib.a(stm32f10x_sdio.o)
                0x08006aec                SDIO_GetPowerState
 .text.SDIO_ITConfig
                0x08006afc       0x18 STM32F103VET6_lib.a(stm32f10x_sdio.o)
                0x08006afc                SDIO_ITConfig
 .text.SDIO_DMACmd
                0x08006b14        0xc STM32F103VET6_lib.a(stm32f10x_sdio.o)
                0x08006b14                SDIO_DMACmd
 .text.SDIO_SendCommand
                0x08006b20       0x2c STM32F103VET6_lib.a(stm32f10x_sdio.o)
                0x08006b20                SDIO_SendCommand
 .text.SDIO_GetCommandResponse
                0x08006b4c        0xc STM32F103VET6_lib.a(stm32f10x_sdio.o)
                0x08006b4c                SDIO_GetCommandResponse
 .text.SDIO_GetResponse
                0x08006b58       0x18 STM32F103VET6_lib.a(stm32f10x_sdio.o)
                0x08006b58                SDIO_GetResponse
 .text.SDIO_DataConfig
                0x08006b70       0x2c STM32F103VET6_lib.a(stm32f10x_sdio.o)
                0x08006b70                SDIO_DataConfig
 .text.SDIO_ReadData
                0x08006b9c        0xc STM32F103VET6_lib.a(stm32f10x_sdio.o)
                0x08006b9c                SDIO_ReadData
 .text.SDIO_WriteData
                0x08006ba8        0xc STM32F103VET6_lib.a(stm32f10x_sdio.o)
                0x08006ba8                SDIO_WriteData
 .text.SDIO_GetFlagStatus
                0x08006bb4       0x14 STM32F103VET6_lib.a(stm32f10x_sdio.o)
                0x08006bb4                SDIO_GetFlagStatus
 .text.SDIO_ClearFlag
                0x08006bc8        0xc STM32F103VET6_lib.a(stm32f10x_sdio.o)
                0x08006bc8                SDIO_ClearFlag
 .text.SDIO_GetITStatus
                0x08006bd4       0x14 STM32F103VET6_lib.a(stm32f10x_sdio.o)
                0x08006bd4                SDIO_GetITStatus
 .text.SDIO_ClearITPendingBit
                0x08006be8        0xc STM32F103VET6_lib.a(stm32f10x_sdio.o)
                0x08006be8                SDIO_ClearITPendingBit
 .text.USART_Init
                0x08006bf4       0xb0 STM32F103VET6_lib.a(stm32f10x_usart.o)
                0x08006bf4                USART_Init
 .text.USART_StructInit
                0x08006ca4       0x16 STM32F103VET6_lib.a(stm32f10x_usart.o)
                0x08006ca4                USART_StructInit
 .text.USART_Cmd
                0x08006cba       0x18 STM32F103VET6_lib.a(stm32f10x_usart.o)
                0x08006cba                USART_Cmd
 .text.USART_ITConfig
                0x08006cd2       0x34 STM32F103VET6_lib.a(stm32f10x_usart.o)
                0x08006cd2                USART_ITConfig
 .text.USART_SendData
                0x08006d06        0x8 STM32F103VET6_lib.a(stm32f10x_usart.o)
                0x08006d06                USART_SendData
 .text.USART_ReceiveData
                0x08006d0e        0x8 STM32F103VET6_lib.a(stm32f10x_usart.o)
                0x08006d0e                USART_ReceiveData
 .text.USART_GetFlagStatus
                0x08006d16        0xc STM32F103VET6_lib.a(stm32f10x_usart.o)
                0x08006d16                USART_GetFlagStatus
 .text.USART_GetITStatus
                0x08006d22       0x40 STM32F103VET6_lib.a(stm32f10x_usart.o)
                0x08006d22                USART_GetITStatus
 .text.BKP_DeInit
                0x08006d62       0x12 STM32F103VET6_lib.a(stm32f10x_bkp.o)
                0x08006d62                BKP_DeInit
 .text.BKP_WriteBackupRegister
                0x08006d74       0x1c STM32F103VET6_lib.a(stm32f10x_bkp.o)
                0x08006d74                BKP_WriteBackupRegister
 .text.BKP_ReadBackupRegister
                0x08006d90       0x20 STM32F103VET6_lib.a(stm32f10x_bkp.o)
                0x08006d90                BKP_ReadBackupRegister
 .text.PWR_BackupAccessCmd
                0x08006db0        0xc STM32F103VET6_lib.a(stm32f10x_pwr.o)
                0x08006db0                PWR_BackupAccessCmd
 .text.Standard_GetConfiguration
                0x08006dbc       0x24 STM32F103VET6_lib.a(usb_core.o)
                0x08006dbc                Standard_GetConfiguration
 .text.Standard_GetInterface
                0x08006de0       0x24 STM32F103VET6_lib.a(usb_core.o)
                0x08006de0                Standard_GetInterface
 .text.Standard_GetStatus
                0x08006e04       0x9c STM32F103VET6_lib.a(usb_core.o)
                0x08006e04                Standard_GetStatus
 .text.DataStageIn
                0x08006ea0       0xa0 STM32F103VET6_lib.a(usb_core.o)
 .text.Standard_SetConfiguration
                0x08006f40       0x38 STM32F103VET6_lib.a(usb_core.o)
                0x08006f40                Standard_SetConfiguration
 .text.Standard_SetInterface
                0x08006f78       0x48 STM32F103VET6_lib.a(usb_core.o)
                0x08006f78                Standard_SetInterface
 .text.Standard_ClearFeature
                0x08006fc0       0xdc STM32F103VET6_lib.a(usb_core.o)
                0x08006fc0                Standard_ClearFeature
 .text.Standard_SetEndPointFeature
                0x0800709c       0x8c STM32F103VET6_lib.a(usb_core.o)
                0x0800709c                Standard_SetEndPointFeature
 .text.Standard_SetDeviceFeature
                0x08007128       0x24 STM32F103VET6_lib.a(usb_core.o)
                0x08007128                Standard_SetDeviceFeature
 .text.Standard_GetDescriptorData
                0x0800714c       0x1c STM32F103VET6_lib.a(usb_core.o)
                0x0800714c                Standard_GetDescriptorData
 .text.Post0_Process
                0x08007168       0x40 STM32F103VET6_lib.a(usb_core.o)
                0x08007168                Post0_Process
 .text.Out0_Process
                0x080071a8       0xd4 STM32F103VET6_lib.a(usb_core.o)
                0x080071a8                Out0_Process
 .text.Setup0_Process
                0x0800727c      0x2f8 STM32F103VET6_lib.a(usb_core.o)
                0x0800727c                Setup0_Process
 .text.SetDeviceAddress
                0x08007574       0x40 STM32F103VET6_lib.a(usb_core.o)
                0x08007574                SetDeviceAddress
 .text.In0_Process
                0x080075b4       0x60 STM32F103VET6_lib.a(usb_core.o)
                0x080075b4                In0_Process
 .text.NOP_Process
                0x08007614        0x2 STM32F103VET6_lib.a(usb_core.o)
                0x08007614                NOP_Process
 *fill*         0x08007616        0x2 00
 .text.USB_Init
                0x08007618       0x38 STM32F103VET6_lib.a(usb_init.o)
                0x08007618                USB_Init
 .text.CTR_LP   0x08007650      0x190 STM32F103VET6_lib.a(usb_int.o)
                0x08007650                CTR_LP
 .text.CTR_HP   0x080077e0       0x74 STM32F103VET6_lib.a(usb_int.o)
                0x080077e0                CTR_HP
 .text.UserToPMABufferCopy
                0x08007854       0x2e STM32F103VET6_lib.a(usb_mem.o)
                0x08007854                UserToPMABufferCopy
 .text.PMAToUserBufferCopy
                0x08007882       0x24 STM32F103VET6_lib.a(usb_mem.o)
                0x08007882                PMAToUserBufferCopy
 *fill*         0x080078a6        0x2 00
 .text.SetBTABLE
                0x080078a8       0x10 STM32F103VET6_lib.a(usb_regs.o)
                0x080078a8                SetBTABLE
 .text.GetENDPOINT
                0x080078b8       0x10 STM32F103VET6_lib.a(usb_regs.o)
                0x080078b8                GetENDPOINT
 .text.SetEPType
                0x080078c8       0x18 STM32F103VET6_lib.a(usb_regs.o)
                0x080078c8                SetEPType
 .text.SetEPTxStatus
                0x080078e0       0x3a STM32F103VET6_lib.a(usb_regs.o)
                0x080078e0                SetEPTxStatus
 .text.SetEPRxStatus
                0x0800791a       0x3a STM32F103VET6_lib.a(usb_regs.o)
                0x0800791a                SetEPRxStatus
 .text.SetEPTxValid
                0x08007954       0x22 STM32F103VET6_lib.a(usb_regs.o)
                0x08007954                SetEPTxValid
 .text.SetEPRxValid
                0x08007976       0x22 STM32F103VET6_lib.a(usb_regs.o)
                0x08007976                SetEPRxValid
 .text.Clear_Status_Out
                0x08007998       0x1e STM32F103VET6_lib.a(usb_regs.o)
                0x08007998                Clear_Status_Out
 .text.SetEPDoubleBuff
                0x080079b6       0x1e STM32F103VET6_lib.a(usb_regs.o)
                0x080079b6                SetEPDoubleBuff
 .text.ToggleDTOG_TX
                0x080079d4       0x1e STM32F103VET6_lib.a(usb_regs.o)
                0x080079d4                ToggleDTOG_TX
 .text.ClearDTOG_RX
                0x080079f2       0x24 STM32F103VET6_lib.a(usb_regs.o)
                0x080079f2                ClearDTOG_RX
 .text.ClearDTOG_TX
                0x08007a16       0x24 STM32F103VET6_lib.a(usb_regs.o)
                0x08007a16                ClearDTOG_TX
 *fill*         0x08007a3a        0x2 00
 .text.SetEPTxAddr
                0x08007a3c       0x20 STM32F103VET6_lib.a(usb_regs.o)
                0x08007a3c                SetEPTxAddr
 .text.SetEPRxAddr
                0x08007a5c       0x20 STM32F103VET6_lib.a(usb_regs.o)
                0x08007a5c                SetEPRxAddr
 .text.GetEPTxAddr
                0x08007a7c       0x1c STM32F103VET6_lib.a(usb_regs.o)
                0x08007a7c                GetEPTxAddr
 .text.GetEPRxAddr
                0x08007a98       0x1c STM32F103VET6_lib.a(usb_regs.o)
                0x08007a98                GetEPRxAddr
 .text.SetEPTxCount
                0x08007ab4       0x1c STM32F103VET6_lib.a(usb_regs.o)
                0x08007ab4                SetEPTxCount
 .text.SetEPRxCount
                0x08007ad0       0x3c STM32F103VET6_lib.a(usb_regs.o)
                0x08007ad0                SetEPRxCount
 .text.SetEPDblBuffAddr
                0x08007b0c       0x38 STM32F103VET6_lib.a(usb_regs.o)
                0x08007b0c                SetEPDblBuffAddr
 .text.SetEPDblBuffCount
                0x08007b44       0xa4 STM32F103VET6_lib.a(usb_regs.o)
                0x08007b44                SetEPDblBuffCount
 .text.GetEPDblBuf0Count
                0x08007be8       0x20 STM32F103VET6_lib.a(usb_regs.o)
                0x08007be8                GetEPDblBuf0Count
 .text.GetEPDblBuf1Count
                0x08007c08       0x20 STM32F103VET6_lib.a(usb_regs.o)
                0x08007c08                GetEPDblBuf1Count
 .text.FreeUserBuffer
                0x08007c28       0x42 STM32F103VET6_lib.a(usb_regs.o)
                0x08007c28                FreeUserBuffer
 .text.ByteSwap
                0x08007c6a        0xa STM32F103VET6_lib.a(usb_regs.o)
                0x08007c6a                ByteSwap
 .text.USB_SIL_Init
                0x08007c74       0x20 STM32F103VET6_lib.a(usb_sil.o)
                0x08007c74                USB_SIL_Init
 .text.USB_SIL_Write
                0x08007c94       0x28 STM32F103VET6_lib.a(usb_sil.o)
                0x08007c94                USB_SIL_Write
 .text.Reset_Handler
                0x08007cbc       0x4c STM32F103VET6_lib.a(startup_stm32f10x_hd.o)
                0x08007cbc                Reset_Handler
 .text.Default_Handler
                0x08007d08        0x4 STM32F103VET6_lib.a(startup_stm32f10x_hd.o)
                0x08007d08                EXTI2_IRQHandler
                0x08007d08                TIM8_TRG_COM_IRQHandler
                0x08007d08                TIM8_CC_IRQHandler
                0x08007d08                TIM1_CC_IRQHandler
                0x08007d08                TIM6_IRQHandler
                0x08007d08                PVD_IRQHandler
                0x08007d08                EXTI3_IRQHandler
                0x08007d08                EXTI0_IRQHandler
                0x08007d08                I2C2_EV_IRQHandler
                0x08007d08                ADC1_2_IRQHandler
                0x08007d08                SPI1_IRQHandler
                0x08007d08                TAMPER_IRQHandler
                0x08007d08                TIM8_UP_IRQHandler
                0x08007d08                DMA2_Channel2_IRQHandler
                0x08007d08                DMA1_Channel4_IRQHandler
                0x08007d08                USART3_IRQHandler
                0x08007d08                DMA1_Channel7_IRQHandler
                0x08007d08                CAN1_RX1_IRQHandler
                0x08007d08                UART5_IRQHandler
                0x08007d08                ADC3_IRQHandler
                0x08007d08                TIM4_IRQHandler
                0x08007d08                DMA2_Channel1_IRQHandler
                0x08007d08                I2C1_EV_IRQHandler
                0x08007d08                DMA1_Channel6_IRQHandler
                0x08007d08                UART4_IRQHandler
                0x08007d08                TIM3_IRQHandler
                0x08007d08                RCC_IRQHandler
                0x08007d08                TIM1_TRG_COM_IRQHandler
                0x08007d08                DMA1_Channel1_IRQHandler
                0x08007d08                Default_Handler
                0x08007d08                EXTI15_10_IRQHandler
                0x08007d08                TIM7_IRQHandler
                0x08007d08                TIM5_IRQHandler
                0x08007d08                EXTI9_5_IRQHandler
                0x08007d08                SPI2_IRQHandler
                0x08007d08                DMA1_Channel5_IRQHandler
                0x08007d08                EXTI4_IRQHandler
                0x08007d08                DMA1_Channel3_IRQHandler
                0x08007d08                FSMC_IRQHandler
                0x08007d08                TIM1_UP_IRQHandler
                0x08007d08                WWDG_IRQHandler
                0x08007d08                TIM2_IRQHandler
                0x08007d08                TIM1_BRK_IRQHandler
                0x08007d08                EXTI1_IRQHandler
                0x08007d08                RTCAlarm_IRQHandler
                0x08007d08                DMA2_Channel4_5_IRQHandler
                0x08007d08                I2C2_ER_IRQHandler
                0x08007d08                DMA1_Channel2_IRQHandler
                0x08007d08                TIM8_BRK_IRQHandler
                0x08007d08                CAN1_SCE_IRQHandler
                0x08007d08                FLASH_IRQHandler
                0x08007d08                USART1_IRQHandler
                0x08007d08                SPI3_IRQHandler
                0x08007d08                I2C1_ER_IRQHandler
                0x08007d08                USBWakeUp_IRQHandler
                0x08007d08                DMA2_Channel3_IRQHandler
 .text.__errno  0x08007d0c        0xc c:/devz/arm/launchpad/bin/../lib/gcc/arm-none-eabi/4.7.3/../../../../arm-none-eabi/lib/armv7-m\libc_s.a(lib_a-errno.o)
                0x08007d0c                __errno
 .text.localtime
                0x08007d18       0x28 c:/devz/arm/launchpad/bin/../lib/gcc/arm-none-eabi/4.7.3/../../../../arm-none-eabi/lib/armv7-m\libc_s.a(lib_a-lcltime.o)
                0x08007d18                localtime
 .text.localtime_r
                0x08007d40        0x6 c:/devz/arm/launchpad/bin/../lib/gcc/arm-none-eabi/4.7.3/../../../../arm-none-eabi/lib/armv7-m\libc_s.a(lib_a-lcltime_r.o)
                0x08007d40                localtime_r
 *fill*         0x08007d46        0x2 00
 .text.malloc   0x08007d48       0x10 c:/devz/arm/launchpad/bin/../lib/gcc/arm-none-eabi/4.7.3/../../../../arm-none-eabi/lib/armv7-m\libc_s.a(lib_a-malloc.o)
                0x08007d48                malloc
 .text._malloc_r
                0x08007d58       0x94 c:/devz/arm/launchpad/bin/../lib/gcc/arm-none-eabi/4.7.3/../../../../arm-none-eabi/lib/armv7-m\libc_s.a(lib_a-mallocr.o)
                0x08007d58                _malloc_r
 .text.memcpy   0x08007dec       0x12 c:/devz/arm/launchpad/bin/../lib/gcc/arm-none-eabi/4.7.3/../../../../arm-none-eabi/lib/armv7-m\libc_s.a(lib_a-memcpy.o)
                0x08007dec                memcpy
 *fill*         0x08007dfe        0x2 00
 .text.validate_structure
                0x08007e00      0x190 c:/devz/arm/launchpad/bin/../lib/gcc/arm-none-eabi/4.7.3/../../../../arm-none-eabi/lib/armv7-m\libc_s.a(lib_a-mktime.o)
 .text.mktime   0x08007f90      0x1f0 c:/devz/arm/launchpad/bin/../lib/gcc/arm-none-eabi/4.7.3/../../../../arm-none-eabi/lib/armv7-m\libc_s.a(lib_a-mktime.o)
                0x08007f90                mktime
 .text.__tzcalc_limits
                0x08008180      0x148 c:/devz/arm/launchpad/bin/../lib/gcc/arm-none-eabi/4.7.3/../../../../arm-none-eabi/lib/armv7-m\libc_s.a(lib_a-mktm_r.o)
                0x08008180                __tzcalc_limits
 .text._mktm_r  0x080082c8      0x28c c:/devz/arm/launchpad/bin/../lib/gcc/arm-none-eabi/4.7.3/../../../../arm-none-eabi/lib/armv7-m\libc_s.a(lib_a-mktm_r.o)
                0x080082c8                _mktm_r
 .text.__tz_lock
                0x08008554        0x2 c:/devz/arm/launchpad/bin/../lib/gcc/arm-none-eabi/4.7.3/../../../../arm-none-eabi/lib/armv7-m\libc_s.a(lib_a-tzlock.o)
                0x08008554                __tz_lock
 .text.__tz_unlock
                0x08008556        0x2 c:/devz/arm/launchpad/bin/../lib/gcc/arm-none-eabi/4.7.3/../../../../arm-none-eabi/lib/armv7-m\libc_s.a(lib_a-tzlock.o)
                0x08008556                __tz_unlock
 .text.div      0x08008558       0x26 c:/devz/arm/launchpad/bin/../lib/gcc/arm-none-eabi/4.7.3/../../../../arm-none-eabi/lib/armv7-m\libc_s.a(lib_a-div.o)
                0x08008558                div
 *fill*         0x0800857e        0x2 00
 .text.__gettzinfo
                0x08008580        0x8 c:/devz/arm/launchpad/bin/../lib/gcc/arm-none-eabi/4.7.3/../../../../arm-none-eabi/lib/armv7-m\libc_s.a(lib_a-gettzinfo.o)
                0x08008580                __gettzinfo
 *(.gnu.linkonce.t.*)
 *(.glue_7)
 .glue_7        0x00000000        0x0 linker stubs
 *(.glue_7t)
 .glue_7t       0x00000000        0x0 linker stubs
 *(.vfp11_veneer)
 .vfp11_veneer  0x00000000        0x0 linker stubs
 *(.janus_2cc_veneer)
 *(.v4_bx)
 .v4_bx         0x00000000        0x0 linker stubs
 *(.gcc_except_table)
 *(.rodata .rodata.*)
 .rodata.str1.1
                0x08008588       0x8e src/gps_support.o
                                 0x97 (size before relaxing)
 .rodata.str1.1
                0x08008616       0x12 src/cdc_support.o
 .rodata.str1.1
                0x08008628       0x13 src/msc_support.o
 .rodata.font_table_ank
                0x0800863b      0xa11 lib/FONTX2/src/font_if_datatable.o
                0x0800863b                font_table_ank
 .rodata.str1.1
                0x0800904c       0x53 lib/ff/ff.o
 .rodata.Virtual_Com_Port_StringVendor
                0x0800909f       0x26 lib/USB_Functions/cdc/src/usb_cdc_desc.o
                0x0800909f                Virtual_Com_Port_StringVendor
 .rodata.Virtual_Com_Port_DeviceDescriptor
                0x080090c5       0x12 lib/USB_Functions/cdc/src/usb_cdc_desc.o
                0x080090c5                Virtual_Com_Port_DeviceDescriptor
 .rodata.Virtual_Com_Port_StringLangID
                0x080090d7        0x4 lib/USB_Functions/cdc/src/usb_cdc_desc.o
                0x080090d7                Virtual_Com_Port_StringLangID
 .rodata.Virtual_Com_Port_StringProduct
                0x080090db       0x32 lib/USB_Functions/cdc/src/usb_cdc_desc.o
                0x080090db                Virtual_Com_Port_StringProduct
 .rodata.Virtual_Com_Port_ConfigDescriptor
                0x0800910d       0x43 lib/USB_Functions/cdc/src/usb_cdc_desc.o
                0x0800910d                Virtual_Com_Port_ConfigDescriptor
 .rodata.Mass_StringInterface
                0x08009150       0x10 lib/USB_Functions/msc/src/usb_msc_desc.o
                0x08009150                Mass_StringInterface
 .rodata.Mass_DeviceDescriptor
                0x08009160       0x12 lib/USB_Functions/msc/src/usb_msc_desc.o
                0x08009160                Mass_DeviceDescriptor
 .rodata.Mass_StringVendor
                0x08009172       0x26 lib/USB_Functions/msc/src/usb_msc_desc.o
                0x08009172                Mass_StringVendor
 .rodata.Mass_StringProduct
                0x08009198       0x26 lib/USB_Functions/msc/src/usb_msc_desc.o
                0x08009198                Mass_StringProduct
 .rodata.Mass_StringLangID
                0x080091be        0x4 lib/USB_Functions/msc/src/usb_msc_desc.o
                0x080091be                Mass_StringLangID
 .rodata.Mass_ConfigDescriptor
                0x080091c2       0x20 lib/USB_Functions/msc/src/usb_msc_desc.o
                0x080091c2                Mass_ConfigDescriptor
 .rodata.str1.1
                0x00000000       0x53 c:/devz/arm/launchpad/bin/../lib/gcc/arm-none-eabi/4.7.3/../../../../arm-none-eabi/lib/armv7-m\libc_s.a(lib_a-impure.o)
                                  0x2 (size before relaxing)
 *fill*         0x080091e2        0x2 00
 .rodata._DAYS_BEFORE_MONTH
                0x080091e4       0x30 c:/devz/arm/launchpad/bin/../lib/gcc/arm-none-eabi/4.7.3/../../../../arm-none-eabi/lib/armv7-m\libc_s.a(lib_a-mktime.o)
 .rodata.DAYS_IN_MONTH
                0x08009214       0x30 c:/devz/arm/launchpad/bin/../lib/gcc/arm-none-eabi/4.7.3/../../../../arm-none-eabi/lib/armv7-m\libc_s.a(lib_a-mktime.o)
 .rodata.mon_lengths
                0x08009244       0x60 c:/devz/arm/launchpad/bin/../lib/gcc/arm-none-eabi/4.7.3/../../../../arm-none-eabi/lib/armv7-m\libc_s.a(lib_a-mktm_r.o)
 .rodata.year_lengths
                0x080092a4        0x8 c:/devz/arm/launchpad/bin/../lib/gcc/arm-none-eabi/4.7.3/../../../../arm-none-eabi/lib/armv7-m\libc_s.a(lib_a-mktm_r.o)
 *(.ioview .ioview.*)
 *(.gnu.linkonce.r.*)
 *(.ARM.extab* .gnu.linkonce.armextab.*)
                0x080092ac                . = ALIGN (0x4)

.iplt           0x080092ac        0x0
 .iplt          0x00000000        0x0 src/main.o

.rel.dyn        0x080092ac        0x0
 .rel.iplt      0x00000000        0x0 src/main.o

.ctors          0x080092ac        0x0
                0x080092ac                PROVIDE (__ctors_start__, .)
 *(SORT(.ctors.*))
 *(.ctors)
                0x080092ac                . = ALIGN (0x4)
                0x080092ac                PROVIDE (__ctors_end__, .)
                0x080092ac                . = ALIGN (0x4)

.dtors          0x080092ac        0x0
                0x080092ac                PROVIDE (__dtors_start__, .)
 *(SORT(.dtors.*))
 *(.dtors)
                0x080092ac                . = ALIGN (0x4)
                0x080092ac                PROVIDE (__dtors_end__, .)
                0x080092ac                . = ALIGN (0x4)
                0x080092ac                . = ALIGN (0x4)

.eh_frame_hdr
 *(.eh_frame_hdr)

.eh_frame
 *(.eh_frame)
                0x080092ac                PROVIDE (__exidx_start, .)

.ARM.exidx
 *(.ARM.exidx* .gnu.linkonce.armexidx.*)
                0x080092ac                PROVIDE (__exidx_end, .)
                0x080092ac                . = ALIGN (0x4)
                0x080092ac                _etext = .
                0x080092ac                PROVIDE (etext, .)
                0x080092ac                _sidata = _etext

.data           0x20000000      0x26c load address 0x080092ac
                0x20000000                . = ALIGN (0x4)
                0x20000000                _sdata = .
                0x20000000                _data = .
 *(.data .data.*)
 .data.AHBPrescTable
                0x20000000       0x10 src/sysinit_primer2.o
                0x20000000                AHBPrescTable
 .data.SystemCoreClock
                0x20000010        0x4 src/sysinit_primer2.o
                0x20000010                SystemCoreClock
 .data.vbatbabyflag.8846
                0x20000014        0x4 src/power.o
 .data.BatState
                0x20000018        0x4 src/power.o
                0x20000018                BatState
 .data.pScrCol  0x2000001c        0x4 lib/display/abstract/src/display_if_support.o
                0x2000001c                pScrCol
 .data.ScrCol   0x20000020        0x4 lib/display/abstract/src/display_if_support.o
                0x20000020                ScrCol
 .data.TransferError
                0x20000024        0x1 lib/ff/sdio_stm32f1.o
                0x20000024                TransferError
 *fill*         0x20000025        0x3 00
 .data.DeviceMode
                0x20000028        0x4 lib/ff/sdio_stm32f1.o
 .data.Status   0x2000002c        0x1 lib/ff/diskio_sdio.o
                0x2000002c                Status
 *fill*         0x2000002d        0x3 00
 .data.pEpInt_OUT
                0x20000030       0x1c lib/USB_Functions/usb_istr.o
                0x20000030                pEpInt_OUT
 .data.pEpInt_IN
                0x2000004c       0x1c lib/USB_Functions/usb_istr.o
                0x2000004c                pEpInt_IN
 .data.User_Standard_Requests
                0x20000068       0x24 lib/USB_Functions/usb_prop.o
                0x20000068                User_Standard_Requests
 .data.Device_Property
                0x2000008c       0x30 lib/USB_Functions/usb_prop.o
                0x2000008c                Device_Property
 .data.Device_Table
                0x200000bc        0x2 lib/USB_Functions/usb_prop.o
                0x200000bc                Device_Table
 .data.Virtual_Com_Port_StringSerial
                0x200000be       0x1a lib/USB_Functions/cdc/src/usb_cdc_desc.o
                0x200000be                Virtual_Com_Port_StringSerial
 .data.CDC_Device_Descriptor
                0x200000d8        0x8 lib/USB_Functions/cdc/src/usb_cdc_prop.o
                0x200000d8                CDC_Device_Descriptor
 .data.CDC_String_Descriptor
                0x200000e0       0x20 lib/USB_Functions/cdc/src/usb_cdc_prop.o
                0x200000e0                CDC_String_Descriptor
 .data.CDC_Config_Descriptor
                0x20000100        0x8 lib/USB_Functions/cdc/src/usb_cdc_prop.o
                0x20000100                CDC_Config_Descriptor
 .data.linecoding
                0x20000108        0x8 lib/USB_Functions/cdc/src/usb_cdc_prop.o
                0x20000108                linecoding
 .data.Mode_Sense10_data
                0x20000110        0x8 lib/USB_Functions/msc/src/usb_msc_scsi_data.o
                0x20000110                Mode_Sense10_data
 .data.Scsi_Sense_Data
                0x20000118       0x12 lib/USB_Functions/msc/src/usb_msc_scsi_data.o
                0x20000118                Scsi_Sense_Data
 .data.Mode_Sense6_data
                0x2000012a        0x4 lib/USB_Functions/msc/src/usb_msc_scsi_data.o
                0x2000012a                Mode_Sense6_data
 .data.ReadFormatCapacity_Data
                0x2000012e        0xc lib/USB_Functions/msc/src/usb_msc_scsi_data.o
                0x2000012e                ReadFormatCapacity_Data
 .data.Standard_Inquiry_Data
                0x2000013a       0x24 lib/USB_Functions/msc/src/usb_msc_scsi_data.o
                0x2000013a                Standard_Inquiry_Data
 .data.Mass_StringSerial
                0x2000015e       0x1a lib/USB_Functions/msc/src/usb_msc_desc.o
                0x2000015e                Mass_StringSerial
 .data.MSC_Device_Descriptor
                0x20000178        0x8 lib/USB_Functions/msc/src/usb_msc_prop.o
                0x20000178                MSC_Device_Descriptor
 .data.MSC_String_Descriptor
                0x20000180       0x28 lib/USB_Functions/msc/src/usb_msc_prop.o
                0x20000180                MSC_String_Descriptor
 .data.MSC_Config_Descriptor
                0x200001a8        0x8 lib/USB_Functions/msc/src/usb_msc_prop.o
                0x200001a8                MSC_Config_Descriptor
 .data.ADCPrescTable
                0x200001b0        0x4 STM32F103VET6_lib.a(stm32f10x_rcc.o)
 .data.APBAHBPrescTable
                0x200001b4       0x10 STM32F103VET6_lib.a(stm32f10x_rcc.o)
 .data.impure_data
                0x200001c4       0x64 c:/devz/arm/launchpad/bin/../lib/gcc/arm-none-eabi/4.7.3/../../../../arm-none-eabi/lib/armv7-m\libc_s.a(lib_a-impure.o)
 .data._impure_ptr
                0x20000228        0x4 c:/devz/arm/launchpad/bin/../lib/gcc/arm-none-eabi/4.7.3/../../../../arm-none-eabi/lib/armv7-m\libc_s.a(lib_a-impure.o)
                0x20000228                _impure_ptr
 .data.tzinfo   0x2000022c       0x40 c:/devz/arm/launchpad/bin/../lib/gcc/arm-none-eabi/4.7.3/../../../../arm-none-eabi/lib/armv7-m\libc_s.a(lib_a-gettzinfo.o)
 *(.gnu.linkonce.d*)
                0x2000026c                . = ALIGN (0x4)
 *(.ramfunc*)
                0x2000026c                . = ALIGN (0x4)
 *(.RAMtext)
                0x2000026c                . = ALIGN (0x4)
                0x2000026c                _edata = .

.igot.plt       0x2000026c        0x0 load address 0x08009518
 .igot.plt      0x00000000        0x0 src/main.o

.bss            0x20000270     0x1474 load address 0x08009520
                0x20000270                . = ALIGN (0x4)
                0x20000270                _sbss = .
                0x20000270                __bss_start = .
                0x20000270                __bss_start__ = .
 *(.bss .bss.*)
 .bss.xTask     0x20000270        0x4 src/main.o
                0x20000270                xTask
 .bss.TaskStat  0x20000274        0x4 src/main.o
                0x20000274                TaskStat
 .bss.TimingDelay
                0x20000278        0x4 src/systick.o
                0x20000278                TimingDelay
 .bss.heap_ptr  0x2000027c        0x4 src/syscalls.o
 .bss.CmdKey    0x20000280        0x2 src/hw_config.o
                0x20000280                CmdKey
 *fill*         0x20000282        0x2 00
 .bss.shutcounts.8839
                0x20000284        0x4 src/power.o
 .bss.vbatlow.8845
                0x20000288        0x4 src/power.o
 .bss.vbatcounts.8844
                0x2000028c        0x4 src/power.o
 .bss.VBat.8852
                0x20000290        0x2 src/power.o
 *fill*         0x20000292        0x2 00
 .bss.CurrentVbat.8847
                0x20000294        0x4 src/power.o
 .bss.ADC_InitStructure
                0x20000298       0x14 src/adc_support.o
                0x20000298                ADC_InitStructure
 .bss.DMA_InitStructure
                0x200002ac       0x2c src/adc_support.o
                0x200002ac                DMA_InitStructure
 .bss.ADC_RegularConvertedValueTab
                0x200002d8       0x64 src/adc_support.o
                0x200002d8                ADC_RegularConvertedValueTab
 .bss.GPIO_InitStructure
                0x2000033c        0x4 src/adc_support.o
                0x2000033c                GPIO_InitStructure
 .bss.rtc       0x20000340       0x24 src/rtc_support.o
                0x20000340                rtc
 .bss.File1     0x20000364       0x28 src/gps_support.o
                0x20000364                File1
 .bss.Fatfs     0x2000038c      0x238 src/gps_support.o
                0x2000038c                Fatfs
 .bss.ff_rtc    0x200005c4        0x8 src/gps_support.o
                0x200005c4                ff_rtc
 .bss.ack_limit
                0x200005cc        0x4 src/gps_support.o
                0x200005cc                ack_limit
 .bss.Buff      0x200005d0      0x200 src/gps_support.o
                0x200005d0                Buff
 .bss.l_stat    0x200007d0        0x4 src/gps_support.o
                0x200007d0                l_stat
 .bss.USB_xMutex
                0x200007d4        0x1 src/cdc_support.o
                0x200007d4                USB_xMutex
 .bss.USART_Rx_Buffer
                0x200007d5      0x800 src/cdc_support.o
                0x200007d5                USART_Rx_Buffer
 .bss.USB_Tx_State
                0x20000fd5        0x1 src/cdc_support.o
                0x20000fd5                USB_Tx_State
 *fill*         0x20000fd6        0x2 00
 .bss.USART_Rx_ptr_in
                0x20000fd8        0x4 src/cdc_support.o
                0x20000fd8                USART_Rx_ptr_in
 .bss.USART_Rx_ptr_out
                0x20000fdc        0x4 src/cdc_support.o
                0x20000fdc                USART_Rx_ptr_out
 .bss.USART_Rx_length
                0x20000fe0        0x4 src/cdc_support.o
                0x20000fe0                USART_Rx_length
 .bss.pUSART_Buf
                0x20000fe4        0x4 src/uart_support_gps.o
 .bss.UART      0x20000fe8        0x4 src/uart_support_gps.o
 .bss.xUART_IRQ
                0x20000fec        0x4 src/uart_support_gps.o
                0x20000fec                xUART_IRQ
 .bss.USART2_Buf
                0x20000ff0      0x208 src/uart_support_gps.o
                0x20000ff0                USART2_Buf
 .bss.USART_InitStructure
                0x200011f8       0x10 src/uart_support_gps.o
                0x200011f8                USART_InitStructure
 .bss.outptr    0x20001208        0x4 src/xprintf.o
 .bss.xfunc_out
                0x2000120c        0x4 src/xprintf.o
                0x2000120c                xfunc_out
 .bss.xfunc_in  0x20001210        0x4 src/xprintf.o
                0x20001210                xfunc_in
 .bss.Mplus_Ank
                0x20001214        0x8 lib/FONTX2/src/font_if_datatable.o
                0x20001214                Mplus_Ank
 .bss.CurrentAnkDat
                0x2000121c        0x4 lib/FONTX2/src/font_if.o
                0x2000121c                CurrentAnkDat
 .bss.CurrentKanjiDat
                0x20001220        0x4 lib/FONTX2/src/font_if.o
                0x20001220                CurrentKanjiDat
 .bss.CurrVol   0x20001224        0x1 lib/ff/ff.o
 *fill*         0x20001225        0x1 00
 .bss.Fsid      0x20001226        0x2 lib/ff/ff.o
 .bss.FatFs     0x20001228        0x4 lib/ff/ff.o
 .bss.SDIO_DataInitStructure
                0x2000122c       0x18 lib/ff/sdio_stm32f1.o
                0x2000122c                SDIO_DataInitStructure
 .bss.CSD_Tab   0x20001244       0x10 lib/ff/sdio_stm32f1.o
 *fill*         0x20001254        0x4 00
 .bss.SDCardInfo
                0x20001258       0x58 lib/ff/sdio_stm32f1.o
                0x20001258                SDCardInfo
 .bss.NumberOfBytes
                0x200012b0        0x4 lib/ff/sdio_stm32f1.o
                0x200012b0                NumberOfBytes
 .bss.SDSTATUS_Tab
                0x200012b4       0x10 lib/ff/sdio_stm32f1.o
 .bss.CardType  0x200012c4        0x4 lib/ff/sdio_stm32f1.o
 .bss.CID_Tab   0x200012c8       0x10 lib/ff/sdio_stm32f1.o
 .bss.TransferEnd
                0x200012d8        0x4 lib/ff/sdio_stm32f1.o
                0x200012d8                TransferEnd
 .bss.DestBuffer
                0x200012dc        0x4 lib/ff/sdio_stm32f1.o
                0x200012dc                DestBuffer
 .bss.SDIO_InitStructure
                0x200012e0       0x18 lib/ff/sdio_stm32f1.o
                0x200012e0                SDIO_InitStructure
 .bss.SrcBuffer
                0x200012f8        0x4 lib/ff/sdio_stm32f1.o
                0x200012f8                SrcBuffer
 .bss.RCA       0x200012fc        0x4 lib/ff/sdio_stm32f1.o
 .bss.TotalNumberOfBytes
                0x20001300        0x4 lib/ff/sdio_stm32f1.o
 .bss.SDIO_CmdInitStructure
                0x20001304       0x14 lib/ff/sdio_stm32f1.o
                0x20001304                SDIO_CmdInitStructure
 .bss.StopCondition
                0x20001318        0x4 lib/ff/sdio_stm32f1.o
 .bss.SDCardStatus
                0x2000131c       0x10 lib/ff/diskio_sdio.o
                0x2000131c                SDCardStatus
 .bss.bDeviceState
                0x2000132c        0x4 lib/USB_Functions/usb_pwr.o
                0x2000132c                bDeviceState
 .bss.xUSB_Istr
                0x20001330        0x4 lib/USB_Functions/usb_istr.o
                0x20001330                xUSB_Istr
 .bss.bIntPackSOF
                0x20001334        0x1 lib/USB_Functions/usb_istr.o
                0x20001334                bIntPackSOF
 *fill*         0x20001335        0x1 00
 .bss.wIstr     0x20001336        0x2 lib/USB_Functions/usb_istr.o
                0x20001336                wIstr
 .bss.xEP2_OUT_Callback
                0x20001338        0x4 lib/USB_Functions/usb_conf.o
                0x20001338                xEP2_OUT_Callback
 .bss.xEP1_IN_Callback
                0x2000133c        0x4 lib/USB_Functions/usb_conf.o
                0x2000133c                xEP1_IN_Callback
 .bss.xEP3_OUT_Callback
                0x20001340        0x4 lib/USB_Functions/usb_conf.o
                0x20001340                xEP3_OUT_Callback
 .bss.xSOF_Callback
                0x20001344        0x4 lib/USB_Functions/usb_conf.o
                0x20001344                xSOF_Callback
 .bss.xGet_Interface_Setting
                0x20001348        0x4 lib/USB_Functions/usb_prop.o
                0x20001348                xGet_Interface_Setting
 .bss.xGetInterface
                0x2000134c        0x4 lib/USB_Functions/usb_prop.o
                0x2000134c                xGetInterface
 .bss.xReset    0x20001350        0x4 lib/USB_Functions/usb_prop.o
                0x20001350                xReset
 .bss.xGetStatus
                0x20001354        0x4 lib/USB_Functions/usb_prop.o
                0x20001354                xGetStatus
 .bss.xNoData_Setup
                0x20001358        0x4 lib/USB_Functions/usb_prop.o
                0x20001358                xNoData_Setup
 .bss.xGetConfiguration
                0x2000135c        0x4 lib/USB_Functions/usb_prop.o
                0x2000135c                xGetConfiguration
 .bss.xGetDeviceDescriptor
                0x20001360        0x4 lib/USB_Functions/usb_prop.o
                0x20001360                xGetDeviceDescriptor
 .bss.xGetConfigDescriptor
                0x20001364        0x4 lib/USB_Functions/usb_prop.o
                0x20001364                xGetConfigDescriptor
 .bss.xGetStringDescriptor
                0x20001368        0x4 lib/USB_Functions/usb_prop.o
                0x20001368                xGetStringDescriptor
 .bss.xData_Setup
                0x2000136c        0x4 lib/USB_Functions/usb_prop.o
                0x2000136c                xData_Setup
 .bss.xSetDeviceAddress
                0x20001370        0x4 lib/USB_Functions/usb_prop.o
                0x20001370                xSetDeviceAddress
 .bss.xSetDeviceFeature
                0x20001374        0x4 lib/USB_Functions/usb_prop.o
                0x20001374                xSetDeviceFeature
 .bss.xClearFeature
                0x20001378        0x4 lib/USB_Functions/usb_prop.o
                0x20001378                xClearFeature
 .bss.xSetConfiguration
                0x2000137c        0x4 lib/USB_Functions/usb_prop.o
                0x2000137c                xSetConfiguration
 .bss.xStatus_In
                0x20001380        0x4 lib/USB_Functions/usb_prop.o
                0x20001380                xStatus_In
 .bss.xSetEndPointFeature
                0x20001384        0x4 lib/USB_Functions/usb_prop.o
                0x20001384                xSetEndPointFeature
 .bss.xSetInterface
                0x20001388        0x4 lib/USB_Functions/usb_prop.o
                0x20001388                xSetInterface
 .bss.xinit     0x2000138c        0x4 lib/USB_Functions/usb_prop.o
                0x2000138c                xinit
 .bss.xStatus_Out
                0x20001390        0x4 lib/USB_Functions/usb_prop.o
                0x20001390                xStatus_Out
 .bss.Request   0x20001394        0x1 lib/USB_Functions/cdc/src/usb_cdc_prop.o
                0x20001394                Request
 .bss.USB_Rx_Buffer
                0x20001395       0x40 lib/USB_Functions/cdc/src/usb_cdc_endp.o
                0x20001395                USB_Rx_Buffer
 *fill*         0x200013d5        0x3 00
 .bss.FrameCount.8856
                0x200013d8        0x4 lib/USB_Functions/cdc/src/usb_cdc_endp.o
 .bss.Mass_Block_Size
                0x200013dc        0x8 lib/USB_Functions/msc/src/usb_msc_mass_mal.o
                0x200013dc                Mass_Block_Size
 .bss.Mass_Memory_Size
                0x200013e4        0x8 lib/USB_Functions/msc/src/usb_msc_mass_mal.o
                0x200013e4                Mass_Memory_Size
 .bss.Mass_Block_Count
                0x200013ec        0x8 lib/USB_Functions/msc/src/usb_msc_mass_mal.o
                0x200013ec                Mass_Block_Count
 .bss.Block_offset
                0x200013f4        0x4 lib/USB_Functions/msc/src/usb_msc_memory.o
                0x200013f4                Block_offset
 .bss.Block_Read_count
                0x200013f8        0x4 lib/USB_Functions/msc/src/usb_msc_memory.o
                0x200013f8                Block_Read_count
 .bss.Counter   0x200013fc        0x4 lib/USB_Functions/msc/src/usb_msc_memory.o
                0x200013fc                Counter
 .bss.W_Length.8939
                0x20001400        0x4 lib/USB_Functions/msc/src/usb_msc_memory.o
 .bss.Data_Buffer
                0x20001404      0x200 lib/USB_Functions/msc/src/usb_msc_memory.o
                0x20001404                Data_Buffer
 .bss.W_Offset.8938
                0x20001604        0x4 lib/USB_Functions/msc/src/usb_msc_memory.o
 .bss.Idx       0x20001608        0x4 lib/USB_Functions/msc/src/usb_msc_memory.o
                0x20001608                Idx
 .bss.Length.8932
                0x2000160c        0x4 lib/USB_Functions/msc/src/usb_msc_memory.o
 .bss.Offset.8931
                0x20001610        0x4 lib/USB_Functions/msc/src/usb_msc_memory.o
 .bss.TransferState
                0x20001614        0x1 lib/USB_Functions/msc/src/usb_msc_memory.o
                0x20001614                TransferState
 .bss.ReadCapacity10_Data
                0x20001615        0x8 lib/USB_Functions/msc/src/usb_msc_scsi_data.o
                0x20001615                ReadCapacity10_Data
 .bss.Page00_Inquiry_Data
                0x2000161d        0x5 lib/USB_Functions/msc/src/usb_msc_scsi_data.o
                0x2000161d                Page00_Inquiry_Data
 .bss.Data_Len  0x20001622        0x2 lib/USB_Functions/msc/src/usb_msc_bot.o
                0x20001622                Data_Len
 .bss.CBW       0x20001624       0x20 lib/USB_Functions/msc/src/usb_msc_bot.o
                0x20001624                CBW
 .bss.Bot_State
                0x20001644        0x1 lib/USB_Functions/msc/src/usb_msc_bot.o
                0x20001644                Bot_State
 *fill*         0x20001645        0x3 00
 .bss.SCSI_BlkLen
                0x20001648        0x4 lib/USB_Functions/msc/src/usb_msc_bot.o
                0x20001648                SCSI_BlkLen
 .bss.Bulk_Data_Buff
                0x2000164c       0x40 lib/USB_Functions/msc/src/usb_msc_bot.o
                0x2000164c                Bulk_Data_Buff
 .bss.SCSI_LBA  0x2000168c        0x4 lib/USB_Functions/msc/src/usb_msc_bot.o
                0x2000168c                SCSI_LBA
 .bss.CSW       0x20001690       0x10 lib/USB_Functions/msc/src/usb_msc_bot.o
                0x20001690                CSW
 .bss.Max_Lun   0x200016a0        0x4 lib/USB_Functions/msc/src/usb_msc_prop.o
                0x200016a0                Max_Lun
 .bss.Data_Mul_MaxPacketSize
                0x200016a4        0x1 STM32F103VET6_lib.a(usb_core.o)
                0x200016a4                Data_Mul_MaxPacketSize
 *fill*         0x200016a5        0x1 00
 .bss.StatusInfo
                0x200016a6        0x2 STM32F103VET6_lib.a(usb_core.o)
                0x200016a6                StatusInfo
 .bss.Device_Info
                0x200016a8       0x1c STM32F103VET6_lib.a(usb_init.o)
                0x200016a8                Device_Info
 .bss.EPindex   0x200016c4        0x1 STM32F103VET6_lib.a(usb_init.o)
                0x200016c4                EPindex
 *fill*         0x200016c5        0x3 00
 .bss.pInformation
                0x200016c8        0x4 STM32F103VET6_lib.a(usb_init.o)
                0x200016c8                pInformation
 .bss.pUser_Standard_Requests
                0x200016cc        0x4 STM32F103VET6_lib.a(usb_init.o)
                0x200016cc                pUser_Standard_Requests
 .bss.wInterrupt_Mask
                0x200016d0        0x2 STM32F103VET6_lib.a(usb_init.o)
                0x200016d0                wInterrupt_Mask
 *fill*         0x200016d2        0x2 00
 .bss.pProperty
                0x200016d4        0x4 STM32F103VET6_lib.a(usb_init.o)
                0x200016d4                pProperty
 .bss.SaveRState
                0x200016d8        0x2 STM32F103VET6_lib.a(usb_int.o)
                0x200016d8                SaveRState
 .bss.SaveTState
                0x200016da        0x2 STM32F103VET6_lib.a(usb_int.o)
                0x200016da                SaveTState
 .bss.__malloc_free_list
                0x200016dc        0x4 c:/devz/arm/launchpad/bin/../lib/gcc/arm-none-eabi/4.7.3/../../../../arm-none-eabi/lib/armv7-m\libc_s.a(lib_a-mallocr.o)
                0x200016dc                __malloc_free_list
 .bss._daylight
                0x200016e0        0x4 c:/devz/arm/launchpad/bin/../lib/gcc/arm-none-eabi/4.7.3/../../../../arm-none-eabi/lib/armv7-m\libc_s.a(lib_a-tzvars.o)
                0x200016e0                _daylight
 *(.gnu.linkonce.b*)
 *(COMMON)
                0x200016e4                . = ALIGN (0x4)
                0x200016e4                _ebss = .
                0x200016e4                __bss_end__ = _end
                0x200016e4                PROVIDE (__bss_end, _end)

.heap           0x200016e4        0x0
                0x200016e4                _end = .
                0x200016e4                end = _end
                0x200016e4                PROVIDE (_end, .)
                0x200016e4                PROVIDE (end, _end)
                0x200016e4                PROVIDE (_heap, .)
 *(.heap .heap.*)
 *(.HEAP)
                0x200016e4                . = ALIGN (0x4)
                0x200016e4                . = ALIGN (0x4)
                0x200016e4                __heap_end = .
                0x200016e4                PROVIDE (__heap_end, .)

.stack          0x200016e4        0x0
                0x200016e4                _stack_top = .
                0x200016e4                PROVIDE (_stack_top, .)
 *(.stack .stack.*)
 *(.STACK)
                0x200016e4                _stack = .
                0x200016e4                PROVIDE (_stack, .)
                0x200016e8                . = ALIGN (0x8)
                0x20010000                _stack_end = _estack
                0x20010000                PROVIDE (_stack_end, _estack)

.extram         0x68000000        0x0
                0x68000000                _extram = .
                0x68000000                extram = .
                0x68000000                PROVIDE (extram, .)
                0x68000000                PROVIDE (_extram, .)
 *(.extram .extram.*)
 *(.EXTRAM)
                0x68000000                . = ALIGN (0x4)

/DISCARD/
 libc.a(*)
 libm.a(*)
 libgcc.a(*)
 *(.note.GNU-stack)
 *(.gnu.lto*)

.stab
 *(.stab)

.stabstr
 *(.stabstr)

.stab.excl
 *(.stab.excl)

.stab.exclstr
 *(.stab.exclstr)

.stab.index
 *(.stab.index)

.stab.indexstr
 *(.stab.indexstr)

.comment        0x00000000       0x70
 *(.comment)
 .comment       0x00000000       0x70 src/main.o
                                 0x71 (size before relaxing)
 .comment       0x00000000       0x71 src/sysinit_primer2.o
 .comment       0x00000000       0x71 src/systick.o
 .comment       0x00000000       0x71 src/syscalls.o
 .comment       0x00000000       0x71 src/stm32f10x_it.o
 .comment       0x00000000       0x71 src/hw_config.o
 .comment       0x00000000       0x71 src/power.o
 .comment       0x00000000       0x71 src/adc_support.o
 .comment       0x00000000       0x71 src/rtc_support.o
 .comment       0x00000000       0x71 src/gps_support.o
 .comment       0x00000000       0x71 src/cdc_support.o
 .comment       0x00000000       0x71 src/msc_support.o
 .comment       0x00000000       0x71 src/uart_support_gps.o
 .comment       0x00000000       0x71 src/term_io.o
 .comment       0x00000000       0x71 src/xprintf.o
 .comment       0x00000000       0x71 lib/display/mcu_depend/src/display_if_basis.o
 .comment       0x00000000       0x71 lib/display/abstract/src/display_if_support.o
 .comment       0x00000000       0x71 lib/display/drivers/src/st7732.o
 .comment       0x00000000       0x71 lib/FONTX2/src/font_if_datatable.o
 .comment       0x00000000       0x71 lib/FONTX2/src/font_if.o
 .comment       0x00000000       0x71 lib/ff/ff.o
 .comment       0x00000000       0x71 lib/ff/sdio_stm32f1.o
 .comment       0x00000000       0x71 lib/ff/diskio_sdio.o
 .comment       0x00000000       0x71 lib/ff/ff_rtc_if.o
 .comment       0x00000000       0x71 lib/ff/option/unicode.o
 .comment       0x00000000       0x71 lib/USB_Functions/usb_pwr.o
 .comment       0x00000000       0x71 lib/USB_Functions/usb_istr.o
 .comment       0x00000000       0x71 lib/USB_Functions/usb_conf.o
 .comment       0x00000000       0x71 lib/USB_Functions/usb_prop.o
 .comment       0x00000000       0x71 lib/USB_Functions/cdc/src/usb_cdc_desc.o
 .comment       0x00000000       0x71 lib/USB_Functions/cdc/src/usb_cdc_prop.o
 .comment       0x00000000       0x71 lib/USB_Functions/cdc/src/usb_cdc_endp.o
 .comment       0x00000000       0x71 lib/USB_Functions/msc/src/usb_msc_mass_mal.o
 .comment       0x00000000       0x71 lib/USB_Functions/msc/src/usb_msc_memory.o
 .comment       0x00000000       0x71 lib/USB_Functions/msc/src/usb_msc_scsi_data.o
 .comment       0x00000000       0x71 lib/USB_Functions/msc/src/usb_msc_scsi.o
 .comment       0x00000000       0x71 lib/USB_Functions/msc/src/usb_msc_bot.o
 .comment       0x00000000       0x71 lib/USB_Functions/msc/src/usb_msc_desc.o
 .comment       0x00000000       0x71 lib/USB_Functions/msc/src/usb_msc_prop.o
 .comment       0x00000000       0x71 STM32F103VET6_lib.a(misc.o)
 .comment       0x00000000       0x71 STM32F103VET6_lib.a(stm32f10x_gpio.o)
 .comment       0x00000000       0x71 STM32F103VET6_lib.a(stm32f10x_fsmc.o)
 .comment       0x00000000       0x71 STM32F103VET6_lib.a(stm32f10x_rcc.o)
 .comment       0x00000000       0x71 STM32F103VET6_lib.a(stm32f10x_adc.o)
 .comment       0x00000000       0x71 STM32F103VET6_lib.a(stm32f10x_dma.o)
 .comment       0x00000000       0x71 STM32F103VET6_lib.a(stm32f10x_tim.o)
 .comment       0x00000000       0x71 STM32F103VET6_lib.a(stm32f10x_rtc.o)
 .comment       0x00000000       0x71 STM32F103VET6_lib.a(stm32f10x_sdio.o)
 .comment       0x00000000       0x71 STM32F103VET6_lib.a(stm32f10x_usart.o)
 .comment       0x00000000       0x71 STM32F103VET6_lib.a(stm32f10x_bkp.o)
 .comment       0x00000000       0x71 STM32F103VET6_lib.a(stm32f10x_pwr.o)
 .comment       0x00000000       0x71 STM32F103VET6_lib.a(usb_core.o)
 .comment       0x00000000       0x71 STM32F103VET6_lib.a(usb_init.o)
 .comment       0x00000000       0x71 STM32F103VET6_lib.a(usb_int.o)
 .comment       0x00000000       0x71 STM32F103VET6_lib.a(usb_mem.o)
 .comment       0x00000000       0x71 STM32F103VET6_lib.a(usb_regs.o)
 .comment       0x00000000       0x71 STM32F103VET6_lib.a(usb_sil.o)

.debug
 *(.debug)

.line
 *(.line)

.debug_srcinfo
 *(.debug_srcinfo)

.debug_sfnames
 *(.debug_sfnames)

.debug_aranges  0x00000000     0x1bc0
 *(.debug_aranges)
 .debug_aranges
                0x00000000       0x20 src/main.o
 .debug_aranges
                0x00000020       0x28 src/sysinit_primer2.o
 .debug_aranges
                0x00000048       0x38 src/systick.o
 .debug_aranges
                0x00000080       0xe0 src/syscalls.o
 .debug_aranges
                0x00000160       0x78 src/stm32f10x_it.o
 .debug_aranges
                0x000001d8       0x80 src/hw_config.o
 .debug_aranges
                0x00000258       0x38 src/power.o
 .debug_aranges
                0x00000290       0x20 src/adc_support.o
 .debug_aranges
                0x000002b0       0x50 src/rtc_support.o
 .debug_aranges
                0x00000300       0x68 src/gps_support.o
 .debug_aranges
                0x00000368       0x50 src/cdc_support.o
 .debug_aranges
                0x000003b8       0x20 src/msc_support.o
 .debug_aranges
                0x000003d8       0x88 src/uart_support_gps.o
 .debug_aranges
                0x00000460       0x28 src/term_io.o
 .debug_aranges
                0x00000488       0x70 src/xprintf.o
 .debug_aranges
                0x000004f8       0x20 lib/display/mcu_depend/src/display_if_basis.o
 .debug_aranges
                0x00000518       0x88 lib/display/abstract/src/display_if_support.o
 .debug_aranges
                0x000005a0       0x60 lib/display/drivers/src/st7732.o
 .debug_aranges
                0x00000600       0x18 lib/FONTX2/src/font_if_datatable.o
 .debug_aranges
                0x00000618       0x50 lib/FONTX2/src/font_if.o
 .debug_aranges
                0x00000668      0x1a8 lib/ff/ff.o
 .debug_aranges
                0x00000810      0x108 lib/ff/sdio_stm32f1.o
 .debug_aranges
                0x00000918       0x40 lib/ff/diskio_sdio.o
 .debug_aranges
                0x00000958       0x28 lib/ff/ff_rtc_if.o
 .debug_aranges
                0x00000980       0x18 lib/ff/option/unicode.o
 .debug_aranges
                0x00000998       0x40 lib/USB_Functions/usb_pwr.o
 .debug_aranges
                0x000009d8       0x30 lib/USB_Functions/usb_istr.o
 .debug_aranges
                0x00000a08       0x38 lib/USB_Functions/usb_conf.o
 .debug_aranges
                0x00000a40       0xb0 lib/USB_Functions/usb_prop.o
 .debug_aranges
                0x00000af0       0x18 lib/USB_Functions/cdc/src/usb_cdc_desc.o
 .debug_aranges
                0x00000b08       0x90 lib/USB_Functions/cdc/src/usb_cdc_prop.o
 .debug_aranges
                0x00000b98       0x30 lib/USB_Functions/cdc/src/usb_cdc_endp.o
 .debug_aranges
                0x00000bc8       0x38 lib/USB_Functions/msc/src/usb_msc_mass_mal.o
 .debug_aranges
                0x00000c00       0x28 lib/USB_Functions/msc/src/usb_msc_memory.o
 .debug_aranges
                0x00000c28       0x18 lib/USB_Functions/msc/src/usb_msc_scsi_data.o
 .debug_aranges
                0x00000c40       0x98 lib/USB_Functions/msc/src/usb_msc_scsi.o
 .debug_aranges
                0x00000cd8       0x50 lib/USB_Functions/msc/src/usb_msc_bot.o
 .debug_aranges
                0x00000d28       0x18 lib/USB_Functions/msc/src/usb_msc_desc.o
 .debug_aranges
                0x00000d40       0x90 lib/USB_Functions/msc/src/usb_msc_prop.o
 .debug_aranges
                0x00000dd0       0x40 STM32F103VET6_lib.a(misc.o)
 .debug_aranges
                0x00000e10       0xa8 STM32F103VET6_lib.a(stm32f10x_gpio.o)
 .debug_aranges
                0x00000eb8       0xb0 STM32F103VET6_lib.a(stm32f10x_fsmc.o)
 .debug_aranges
                0x00000f68      0x118 STM32F103VET6_lib.a(stm32f10x_rcc.o)
 .debug_aranges
                0x00001080      0x138 STM32F103VET6_lib.a(stm32f10x_adc.o)
 .debug_aranges
                0x000011b8       0x70 STM32F103VET6_lib.a(stm32f10x_dma.o)
 .debug_aranges
                0x00001228      0x2e0 STM32F103VET6_lib.a(stm32f10x_tim.o)
 .debug_aranges
                0x00001508       0x88 STM32F103VET6_lib.a(stm32f10x_rtc.o)
 .debug_aranges
                0x00001590      0x108 STM32F103VET6_lib.a(stm32f10x_sdio.o)
 .debug_aranges
                0x00001698      0x100 STM32F103VET6_lib.a(stm32f10x_usart.o)
 .debug_aranges
                0x00001798       0x78 STM32F103VET6_lib.a(stm32f10x_bkp.o)
 .debug_aranges
                0x00001810       0x60 STM32F103VET6_lib.a(stm32f10x_pwr.o)
 .debug_aranges
                0x00001870       0x98 STM32F103VET6_lib.a(usb_core.o)
 .debug_aranges
                0x00001908       0x20 STM32F103VET6_lib.a(usb_init.o)
 .debug_aranges
                0x00001928       0x28 STM32F103VET6_lib.a(usb_int.o)
 .debug_aranges
                0x00001950       0x28 STM32F103VET6_lib.a(usb_mem.o)
 .debug_aranges
                0x00001978      0x1f0 STM32F103VET6_lib.a(usb_regs.o)
 .debug_aranges
                0x00001b68       0x30 STM32F103VET6_lib.a(usb_sil.o)
 .debug_aranges
                0x00001b98       0x28 STM32F103VET6_lib.a(startup_stm32f10x_hd.o)

.debug_pubnames
 *(.debug_pubnames)

.debug_info     0x00000000    0x22856
 *(.debug_info .gnu.linkonce.wi.*)
 .debug_info    0x00000000      0x34f src/main.o
 .debug_info    0x0000034f      0x4d5 src/sysinit_primer2.o
 .debug_info    0x00000824      0xb80 src/systick.o
 .debug_info    0x000013a4     0x1281 src/syscalls.o
 .debug_info    0x00002625      0x259 src/stm32f10x_it.o
 .debug_info    0x0000287e      0xc8b src/hw_config.o
 .debug_info    0x00003509      0x53f src/power.o
 .debug_info    0x00003a48      0x9b2 src/adc_support.o
 .debug_info    0x000043fa      0x6b3 src/rtc_support.o
 .debug_info    0x00004aad     0x11dd src/gps_support.o
 .debug_info    0x00005c8a      0xe39 src/cdc_support.o
 .debug_info    0x00006ac3      0x5f6 src/msc_support.o
 .debug_info    0x000070b9      0xec2 src/uart_support_gps.o
 .debug_info    0x00007f7b      0x157 src/term_io.o
 .debug_info    0x000080d2      0x6fc src/xprintf.o
 .debug_info    0x000087ce      0x5eb lib/display/mcu_depend/src/display_if_basis.o
 .debug_info    0x00008db9     0x1032 lib/display/abstract/src/display_if_support.o
 .debug_info    0x00009deb      0xe49 lib/display/drivers/src/st7732.o
 .debug_info    0x0000ac34      0x10e lib/FONTX2/src/font_if_datatable.o
 .debug_info    0x0000ad42      0x356 lib/FONTX2/src/font_if.o
 .debug_info    0x0000b098     0x3af6 lib/ff/ff.o
 .debug_info    0x0000eb8e     0x3557 lib/ff/sdio_stm32f1.o
 .debug_info    0x000120e5      0x9bc lib/ff/diskio_sdio.o
 .debug_info    0x00012aa1      0x263 lib/ff/ff_rtc_if.o
 .debug_info    0x00012d04       0x5d lib/ff/option/unicode.o
 .debug_info    0x00012d61      0x35a lib/USB_Functions/usb_pwr.o
 .debug_info    0x000130bb      0x31f lib/USB_Functions/usb_istr.o
 .debug_info    0x000133da      0x144 lib/USB_Functions/usb_conf.o
 .debug_info    0x0001351e      0x690 lib/USB_Functions/usb_prop.o
 .debug_info    0x00013bae      0x19d lib/USB_Functions/cdc/src/usb_cdc_desc.o
 .debug_info    0x00013d4b      0xe30 lib/USB_Functions/cdc/src/usb_cdc_prop.o
 .debug_info    0x00014b7b      0x480 lib/USB_Functions/cdc/src/usb_cdc_endp.o
 .debug_info    0x00014ffb      0x810 lib/USB_Functions/msc/src/usb_msc_mass_mal.o
 .debug_info    0x0001580b      0x5b7 lib/USB_Functions/msc/src/usb_msc_memory.o
 .debug_info    0x00015dc2      0x196 lib/USB_Functions/msc/src/usb_msc_scsi_data.o
 .debug_info    0x00015f58      0xb24 lib/USB_Functions/msc/src/usb_msc_scsi.o
 .debug_info    0x00016a7c      0x8a8 lib/USB_Functions/msc/src/usb_msc_bot.o
 .debug_info    0x00017324      0x190 lib/USB_Functions/msc/src/usb_msc_desc.o
 .debug_info    0x000174b4      0xeab lib/USB_Functions/msc/src/usb_msc_prop.o
 .debug_info    0x0001835f      0x598 STM32F103VET6_lib.a(misc.o)
 .debug_info    0x000188f7      0x83e STM32F103VET6_lib.a(stm32f10x_gpio.o)
 .debug_info    0x00019135      0x9c4 STM32F103VET6_lib.a(stm32f10x_fsmc.o)
 .debug_info    0x00019af9      0x944 STM32F103VET6_lib.a(stm32f10x_rcc.o)
 .debug_info    0x0001a43d      0xcb3 STM32F103VET6_lib.a(stm32f10x_adc.o)
 .debug_info    0x0001b0f0      0x4ae STM32F103VET6_lib.a(stm32f10x_dma.o)
 .debug_info    0x0001b59e     0x22c1 STM32F103VET6_lib.a(stm32f10x_tim.o)
 .debug_info    0x0001d85f      0x4da STM32F103VET6_lib.a(stm32f10x_rtc.o)
 .debug_info    0x0001dd39      0x89a STM32F103VET6_lib.a(stm32f10x_sdio.o)
 .debug_info    0x0001e5d3      0xb95 STM32F103VET6_lib.a(stm32f10x_usart.o)
 .debug_info    0x0001f168      0x8c1 STM32F103VET6_lib.a(stm32f10x_bkp.o)
 .debug_info    0x0001fa29      0x507 STM32F103VET6_lib.a(stm32f10x_pwr.o)
 .debug_info    0x0001ff30      0xf2a STM32F103VET6_lib.a(usb_core.o)
 .debug_info    0x00020e5a      0x4bd STM32F103VET6_lib.a(usb_init.o)
 .debug_info    0x00021317      0x218 STM32F103VET6_lib.a(usb_int.o)
 .debug_info    0x0002152f      0x1dd STM32F103VET6_lib.a(usb_mem.o)
 .debug_info    0x0002170c      0xdf9 STM32F103VET6_lib.a(usb_regs.o)
 .debug_info    0x00022505      0x2b2 STM32F103VET6_lib.a(usb_sil.o)
 .debug_info    0x000227b7       0x9f STM32F103VET6_lib.a(startup_stm32f10x_hd.o)

.debug_abbrev   0x00000000     0x6e86
 *(.debug_abbrev)
 .debug_abbrev  0x00000000      0x17b src/main.o
 .debug_abbrev  0x0000017b      0x170 src/sysinit_primer2.o
 .debug_abbrev  0x000002eb      0x24e src/systick.o
 .debug_abbrev  0x00000539      0x358 src/syscalls.o
 .debug_abbrev  0x00000891      0x10c src/stm32f10x_it.o
 .debug_abbrev  0x0000099d      0x33d src/hw_config.o
 .debug_abbrev  0x00000cda      0x24e src/power.o
 .debug_abbrev  0x00000f28      0x17e src/adc_support.o
 .debug_abbrev  0x000010a6      0x27f src/rtc_support.o
 .debug_abbrev  0x00001325      0x444 src/gps_support.o
 .debug_abbrev  0x00001769      0x29b src/cdc_support.o
 .debug_abbrev  0x00001a04      0x1a5 src/msc_support.o
 .debug_abbrev  0x00001ba9      0x3f0 src/uart_support_gps.o
 .debug_abbrev  0x00001f99       0xba src/term_io.o
 .debug_abbrev  0x00002053      0x27a src/xprintf.o
 .debug_abbrev  0x000022cd      0x1a8 lib/display/mcu_depend/src/display_if_basis.o
 .debug_abbrev  0x00002475      0x3ed lib/display/abstract/src/display_if_support.o
 .debug_abbrev  0x00002862      0x245 lib/display/drivers/src/st7732.o
 .debug_abbrev  0x00002aa7       0x82 lib/FONTX2/src/font_if_datatable.o
 .debug_abbrev  0x00002b29      0x17b lib/FONTX2/src/font_if.o
 .debug_abbrev  0x00002ca4      0x3b6 lib/ff/ff.o
 .debug_abbrev  0x0000305a      0x409 lib/ff/sdio_stm32f1.o
 .debug_abbrev  0x00003463      0x188 lib/ff/diskio_sdio.o
 .debug_abbrev  0x000035eb      0x124 lib/ff/ff_rtc_if.o
 .debug_abbrev  0x0000370f       0x26 lib/ff/option/unicode.o
 .debug_abbrev  0x00003735      0x199 lib/USB_Functions/usb_pwr.o
 .debug_abbrev  0x000038ce      0x132 lib/USB_Functions/usb_istr.o
 .debug_abbrev  0x00003a00       0x8a lib/USB_Functions/usb_conf.o
 .debug_abbrev  0x00003a8a      0x132 lib/USB_Functions/usb_prop.o
 .debug_abbrev  0x00003bbc       0x86 lib/USB_Functions/cdc/src/usb_cdc_desc.o
 .debug_abbrev  0x00003c42      0x2b0 lib/USB_Functions/cdc/src/usb_cdc_prop.o
 .debug_abbrev  0x00003ef2      0x185 lib/USB_Functions/cdc/src/usb_cdc_endp.o
 .debug_abbrev  0x00004077      0x194 lib/USB_Functions/msc/src/usb_msc_mass_mal.o
 .debug_abbrev  0x0000420b      0x1c3 lib/USB_Functions/msc/src/usb_msc_memory.o
 .debug_abbrev  0x000043ce       0x7f lib/USB_Functions/msc/src/usb_msc_scsi_data.o
 .debug_abbrev  0x0000444d      0x2c5 lib/USB_Functions/msc/src/usb_msc_scsi.o
 .debug_abbrev  0x00004712      0x274 lib/USB_Functions/msc/src/usb_msc_bot.o
 .debug_abbrev  0x00004986       0x75 lib/USB_Functions/msc/src/usb_msc_desc.o
 .debug_abbrev  0x000049fb      0x308 lib/USB_Functions/msc/src/usb_msc_prop.o
 .debug_abbrev  0x00004d03      0x154 STM32F103VET6_lib.a(misc.o)
 .debug_abbrev  0x00004e57      0x211 STM32F103VET6_lib.a(stm32f10x_gpio.o)
 .debug_abbrev  0x00005068      0x1c6 STM32F103VET6_lib.a(stm32f10x_fsmc.o)
 .debug_abbrev  0x0000522e      0x20b STM32F103VET6_lib.a(stm32f10x_rcc.o)
 .debug_abbrev  0x00005439      0x215 STM32F103VET6_lib.a(stm32f10x_adc.o)
 .debug_abbrev  0x0000564e      0x191 STM32F103VET6_lib.a(stm32f10x_dma.o)
 .debug_abbrev  0x000057df      0x303 STM32F103VET6_lib.a(stm32f10x_tim.o)
 .debug_abbrev  0x00005ae2      0x1b9 STM32F103VET6_lib.a(stm32f10x_rtc.o)
 .debug_abbrev  0x00005c9b      0x221 STM32F103VET6_lib.a(stm32f10x_sdio.o)
 .debug_abbrev  0x00005ebc      0x232 STM32F103VET6_lib.a(stm32f10x_usart.o)
 .debug_abbrev  0x000060ee      0x1b7 STM32F103VET6_lib.a(stm32f10x_bkp.o)
 .debug_abbrev  0x000062a5      0x1d3 STM32F103VET6_lib.a(stm32f10x_pwr.o)
 .debug_abbrev  0x00006478      0x3de STM32F103VET6_lib.a(usb_core.o)
 .debug_abbrev  0x00006856      0x122 STM32F103VET6_lib.a(usb_init.o)
 .debug_abbrev  0x00006978       0xe7 STM32F103VET6_lib.a(usb_int.o)
 .debug_abbrev  0x00006a5f       0xc1 STM32F103VET6_lib.a(usb_mem.o)
 .debug_abbrev  0x00006b20      0x21e STM32F103VET6_lib.a(usb_regs.o)
 .debug_abbrev  0x00006d3e      0x136 STM32F103VET6_lib.a(usb_sil.o)
 .debug_abbrev  0x00006e74       0x12 STM32F103VET6_lib.a(startup_stm32f10x_hd.o)

.debug_line     0x00000000     0xa3c8
 *(.debug_line)
 .debug_line    0x00000000      0x20a src/main.o
 .debug_line    0x0000020a      0x137 src/sysinit_primer2.o
 .debug_line    0x00000341      0x1d5 src/systick.o
 .debug_line    0x00000516      0x3de src/syscalls.o
 .debug_line    0x000008f4      0x21c src/stm32f10x_it.o
 .debug_line    0x00000b10      0x32d src/hw_config.o
 .debug_line    0x00000e3d      0x1ec src/power.o
 .debug_line    0x00001029      0x192 src/adc_support.o
 .debug_line    0x000011bb      0x2d0 src/rtc_support.o
 .debug_line    0x0000148b      0x3f6 src/gps_support.o
 .debug_line    0x00001881      0x3b0 src/cdc_support.o
 .debug_line    0x00001c31      0x288 src/msc_support.o
 .debug_line    0x00001eb9      0x3ae src/uart_support_gps.o
 .debug_line    0x00002267      0x117 src/term_io.o
 .debug_line    0x0000237e      0x2ae src/xprintf.o
 .debug_line    0x0000262c      0x1b1 lib/display/mcu_depend/src/display_if_basis.o
 .debug_line    0x000027dd      0x592 lib/display/abstract/src/display_if_support.o
 .debug_line    0x00002d6f      0x321 lib/display/drivers/src/st7732.o
 .debug_line    0x00003090       0xb2 lib/FONTX2/src/font_if_datatable.o
 .debug_line    0x00003142      0x15e lib/FONTX2/src/font_if.o
 .debug_line    0x000032a0      0xe57 lib/ff/ff.o
 .debug_line    0x000040f7      0xae8 lib/ff/sdio_stm32f1.o
 .debug_line    0x00004bdf      0x1cb lib/ff/diskio_sdio.o
 .debug_line    0x00004daa      0x162 lib/ff/ff_rtc_if.o
 .debug_line    0x00004f0c       0x1d lib/ff/option/unicode.o
 .debug_line    0x00004f29      0x1ee lib/USB_Functions/usb_pwr.o
 .debug_line    0x00005117      0x15f lib/USB_Functions/usb_istr.o
 .debug_line    0x00005276       0xf0 lib/USB_Functions/usb_conf.o
 .debug_line    0x00005366      0x22c lib/USB_Functions/usb_prop.o
 .debug_line    0x00005592       0xcf lib/USB_Functions/cdc/src/usb_cdc_desc.o
 .debug_line    0x00005661      0x315 lib/USB_Functions/cdc/src/usb_cdc_prop.o
 .debug_line    0x00005976      0x195 lib/USB_Functions/cdc/src/usb_cdc_endp.o
 .debug_line    0x00005b0b      0x14d lib/USB_Functions/msc/src/usb_msc_mass_mal.o
 .debug_line    0x00005c58      0x23c lib/USB_Functions/msc/src/usb_msc_memory.o
 .debug_line    0x00005e94       0xd4 lib/USB_Functions/msc/src/usb_msc_scsi_data.o
 .debug_line    0x00005f68      0x359 lib/USB_Functions/msc/src/usb_msc_scsi.o
 .debug_line    0x000062c1      0x2c7 lib/USB_Functions/msc/src/usb_msc_bot.o
 .debug_line    0x00006588       0xbc lib/USB_Functions/msc/src/usb_msc_desc.o
 .debug_line    0x00006644      0x31e lib/USB_Functions/msc/src/usb_msc_prop.o
 .debug_line    0x00006962      0x18a STM32F103VET6_lib.a(misc.o)
 .debug_line    0x00006aec      0x2f3 STM32F103VET6_lib.a(stm32f10x_gpio.o)
 .debug_line    0x00006ddf      0x364 STM32F103VET6_lib.a(stm32f10x_fsmc.o)
 .debug_line    0x00007143      0x3d5 STM32F103VET6_lib.a(stm32f10x_rcc.o)
 .debug_line    0x00007518      0x461 STM32F103VET6_lib.a(stm32f10x_adc.o)
 .debug_line    0x00007979      0x235 STM32F103VET6_lib.a(stm32f10x_dma.o)
 .debug_line    0x00007bae      0x981 STM32F103VET6_lib.a(stm32f10x_tim.o)
 .debug_line    0x0000852f      0x21d STM32F103VET6_lib.a(stm32f10x_rtc.o)
 .debug_line    0x0000874c      0x37b STM32F103VET6_lib.a(stm32f10x_sdio.o)
 .debug_line    0x00008ac7      0x3d7 STM32F103VET6_lib.a(stm32f10x_usart.o)
 .debug_line    0x00008e9e      0x214 STM32F103VET6_lib.a(stm32f10x_bkp.o)
 .debug_line    0x000090b2      0x204 STM32F103VET6_lib.a(stm32f10x_pwr.o)
 .debug_line    0x000092b6      0x408 STM32F103VET6_lib.a(usb_core.o)
 .debug_line    0x000096be      0x11c STM32F103VET6_lib.a(usb_init.o)
 .debug_line    0x000097da      0x19f STM32F103VET6_lib.a(usb_int.o)
 .debug_line    0x00009979      0x121 STM32F103VET6_lib.a(usb_mem.o)
 .debug_line    0x00009a9a      0x729 STM32F103VET6_lib.a(usb_regs.o)
 .debug_line    0x0000a1c3      0x15a STM32F103VET6_lib.a(usb_sil.o)
 .debug_line    0x0000a31d       0xab STM32F103VET6_lib.a(startup_stm32f10x_hd.o)

.debug_frame    0x00000000     0x4684
 *(.debug_frame)
 .debug_frame   0x00000000       0x30 src/main.o
 .debug_frame   0x00000030       0x34 src/sysinit_primer2.o
 .debug_frame   0x00000064       0x6c src/systick.o
 .debug_frame   0x000000d0      0x248 src/syscalls.o
 .debug_frame   0x00000318       0xdc src/stm32f10x_it.o
 .debug_frame   0x000003f4      0x17c src/hw_config.o
 .debug_frame   0x00000570       0x80 src/power.o
 .debug_frame   0x000005f0       0x30 src/adc_support.o
 .debug_frame   0x00000620       0xe4 src/rtc_support.o
 .debug_frame   0x00000704      0x104 src/gps_support.o
 .debug_frame   0x00000808      0x104 src/cdc_support.o
 .debug_frame   0x0000090c       0x30 src/msc_support.o
 .debug_frame   0x0000093c      0x158 src/uart_support_gps.o
 .debug_frame   0x00000a94       0x48 src/term_io.o
 .debug_frame   0x00000adc      0x1ac src/xprintf.o
 .debug_frame   0x00000c88       0x34 lib/display/mcu_depend/src/display_if_basis.o
 .debug_frame   0x00000cbc      0x278 lib/display/abstract/src/display_if_support.o
 .debug_frame   0x00000f34      0x124 lib/display/drivers/src/st7732.o
 .debug_frame   0x00001058       0xb4 lib/FONTX2/src/font_if.o
 .debug_frame   0x0000110c      0x708 lib/ff/ff.o
 .debug_frame   0x00001814      0x438 lib/ff/sdio_stm32f1.o
 .debug_frame   0x00001c4c       0x9c lib/ff/diskio_sdio.o
 .debug_frame   0x00001ce8       0x5c lib/ff/ff_rtc_if.o
 .debug_frame   0x00001d44       0x94 lib/USB_Functions/usb_pwr.o
 .debug_frame   0x00001dd8       0x6c lib/USB_Functions/usb_istr.o
 .debug_frame   0x00001e44       0x80 lib/USB_Functions/usb_conf.o
 .debug_frame   0x00001ec4      0x224 lib/USB_Functions/usb_prop.o
 .debug_frame   0x000020e8      0x130 lib/USB_Functions/cdc/src/usb_cdc_prop.o
 .debug_frame   0x00002218       0x5c lib/USB_Functions/cdc/src/usb_cdc_endp.o
 .debug_frame   0x00002274       0x84 lib/USB_Functions/msc/src/usb_msc_mass_mal.o
 .debug_frame   0x000022f8       0x50 lib/USB_Functions/msc/src/usb_msc_memory.o
 .debug_frame   0x00002348      0x1a0 lib/USB_Functions/msc/src/usb_msc_scsi.o
 .debug_frame   0x000024e8       0xd0 lib/USB_Functions/msc/src/usb_msc_bot.o
 .debug_frame   0x000025b8      0x134 lib/USB_Functions/msc/src/usb_msc_prop.o
 .debug_frame   0x000026ec       0x6c STM32F103VET6_lib.a(misc.o)
 .debug_frame   0x00002758      0x180 STM32F103VET6_lib.a(stm32f10x_gpio.o)
 .debug_frame   0x000028d8      0x174 STM32F103VET6_lib.a(stm32f10x_fsmc.o)
 .debug_frame   0x00002a4c      0x22c STM32F103VET6_lib.a(stm32f10x_rcc.o)
 .debug_frame   0x00002c78      0x290 STM32F103VET6_lib.a(stm32f10x_adc.o)
 .debug_frame   0x00002f08       0xd0 STM32F103VET6_lib.a(stm32f10x_dma.o)
 .debug_frame   0x00002fd8      0x690 STM32F103VET6_lib.a(stm32f10x_tim.o)
 .debug_frame   0x00003668      0x114 STM32F103VET6_lib.a(stm32f10x_rtc.o)
 .debug_frame   0x0000377c      0x218 STM32F103VET6_lib.a(stm32f10x_sdio.o)
 .debug_frame   0x00003994      0x220 STM32F103VET6_lib.a(stm32f10x_usart.o)
 .debug_frame   0x00003bb4       0xe4 STM32F103VET6_lib.a(stm32f10x_bkp.o)
 .debug_frame   0x00003c98       0xac STM32F103VET6_lib.a(stm32f10x_pwr.o)
 .debug_frame   0x00003d44      0x1dc STM32F103VET6_lib.a(usb_core.o)
 .debug_frame   0x00003f20       0x2c STM32F103VET6_lib.a(usb_init.o)
 .debug_frame   0x00003f4c       0x54 STM32F103VET6_lib.a(usb_int.o)
 .debug_frame   0x00003fa0       0x48 STM32F103VET6_lib.a(usb_mem.o)
 .debug_frame   0x00003fe8      0x3d8 STM32F103VET6_lib.a(usb_regs.o)
 .debug_frame   0x000043c0       0x60 STM32F103VET6_lib.a(usb_sil.o)
 .debug_frame   0x00004420       0x20 c:/devz/arm/launchpad/bin/../lib/gcc/arm-none-eabi/4.7.3/../../../../arm-none-eabi/lib/armv7-m\libc_s.a(lib_a-errno.o)
 .debug_frame   0x00004440       0x2c c:/devz/arm/launchpad/bin/../lib/gcc/arm-none-eabi/4.7.3/../../../../arm-none-eabi/lib/armv7-m\libc_s.a(lib_a-lcltime.o)
 .debug_frame   0x0000446c       0x20 c:/devz/arm/launchpad/bin/../lib/gcc/arm-none-eabi/4.7.3/../../../../arm-none-eabi/lib/armv7-m\libc_s.a(lib_a-lcltime_r.o)
 .debug_frame   0x0000448c       0x30 c:/devz/arm/launchpad/bin/../lib/gcc/arm-none-eabi/4.7.3/../../../../arm-none-eabi/lib/armv7-m\libc_s.a(lib_a-malloc.o)
 .debug_frame   0x000044bc       0x2c c:/devz/arm/launchpad/bin/../lib/gcc/arm-none-eabi/4.7.3/../../../../arm-none-eabi/lib/armv7-m\libc_s.a(lib_a-mallocr.o)
 .debug_frame   0x000044e8       0x28 c:/devz/arm/launchpad/bin/../lib/gcc/arm-none-eabi/4.7.3/../../../../arm-none-eabi/lib/armv7-m\libc_s.a(lib_a-memcpy.o)
 .debug_frame   0x00004510       0x20 c:/devz/arm/launchpad/bin/../lib/gcc/arm-none-eabi/4.7.3/../../../../arm-none-eabi/lib/armv7-m\libc_s.a(lib_a-memset.o)
 .debug_frame   0x00004530       0x50 c:/devz/arm/launchpad/bin/../lib/gcc/arm-none-eabi/4.7.3/../../../../arm-none-eabi/lib/armv7-m\libc_s.a(lib_a-mktime.o)
 .debug_frame   0x00004580       0x60 c:/devz/arm/launchpad/bin/../lib/gcc/arm-none-eabi/4.7.3/../../../../arm-none-eabi/lib/armv7-m\libc_s.a(lib_a-mktm_r.o)
 .debug_frame   0x000045e0       0x30 c:/devz/arm/launchpad/bin/../lib/gcc/arm-none-eabi/4.7.3/../../../../arm-none-eabi/lib/armv7-m\libc_s.a(lib_a-tzlock.o)
 .debug_frame   0x00004610       0x28 c:/devz/arm/launchpad/bin/../lib/gcc/arm-none-eabi/4.7.3/../../../../arm-none-eabi/lib/armv7-m\libc_s.a(lib_a-div.o)
 .debug_frame   0x00004638       0x2c c:/devz/arm/launchpad/bin/../lib/gcc/arm-none-eabi/4.7.3/../../../../arm-none-eabi/lib/armv7-m\libc_s.a(lib_a-freer.o)
 .debug_frame   0x00004664       0x20 c:/devz/arm/launchpad/bin/../lib/gcc/arm-none-eabi/4.7.3/../../../../arm-none-eabi/lib/armv7-m\libc_s.a(lib_a-gettzinfo.o)

.debug_str      0x00000000     0x7678
 *(.debug_str)
 .debug_str     0x00000000      0x205 src/main.o
                                0x253 (size before relaxing)
 .debug_str     0x00000205      0x14f src/sysinit_primer2.o
                                0x298 (size before relaxing)
 .debug_str     0x00000354      0x660 src/systick.o
                                0x843 (size before relaxing)
 .debug_str     0x000009b4      0x528 src/syscalls.o
                                0x710 (size before relaxing)
 .debug_str     0x00000edc      0x118 src/stm32f10x_it.o
                                0x27b (size before relaxing)
 .debug_str     0x00000ff4      0x51c src/hw_config.o
                                0x73b (size before relaxing)
 .debug_str     0x00001510       0xcd src/power.o
                                0x3c8 (size before relaxing)
 .debug_str     0x000015dd      0x2f2 src/adc_support.o
                                0x5db (size before relaxing)
 .debug_str     0x000018cf      0x19b src/rtc_support.o
                                0x388 (size before relaxing)
 .debug_str     0x00001a6a      0x379 src/gps_support.o
                                0x5d0 (size before relaxing)
 .debug_str     0x00001de3      0x3e9 src/cdc_support.o
                                0xb66 (size before relaxing)
 .debug_str     0x000021cc       0x24 src/msc_support.o
                                0x740 (size before relaxing)
 .debug_str     0x000021f0      0x17a src/uart_support_gps.o
                                0xa44 (size before relaxing)
 .debug_str     0x0000236a       0x1c src/term_io.o
                                0x16a (size before relaxing)
 .debug_str     0x00002386       0x7a src/xprintf.o
                                0x180 (size before relaxing)
 .debug_str     0x00002400      0x272 lib/display/mcu_depend/src/display_if_basis.o
                                0x539 (size before relaxing)
 .debug_str     0x00002672      0x243 lib/display/abstract/src/display_if_support.o
                                0x3f0 (size before relaxing)
 .debug_str     0x000028b5       0x70 lib/display/drivers/src/st7732.o
                                0x22a (size before relaxing)
 .debug_str     0x00002925       0x23 lib/FONTX2/src/font_if_datatable.o
                                0x178 (size before relaxing)
 .debug_str     0x00002948       0x7c lib/FONTX2/src/font_if.o
                                0x284 (size before relaxing)
 .debug_str     0x000029c4      0x36f lib/ff/ff.o
                                0x704 (size before relaxing)
 .debug_str     0x00002d33      0xe39 lib/ff/sdio_stm32f1.o
                               0x16c3 (size before relaxing)
 .debug_str     0x00003b6c       0x3c lib/ff/diskio_sdio.o
                                0x8d1 (size before relaxing)
 .debug_str     0x00003ba8       0x1f lib/ff/ff_rtc_if.o
                                0x1ef (size before relaxing)
 .debug_str     0x00003bc7       0x18 lib/ff/option/unicode.o
                                 0xed (size before relaxing)
 .debug_str     0x00003bdf      0x13c lib/USB_Functions/usb_pwr.o
                                0x353 (size before relaxing)
 .debug_str     0x00003d1b       0xf3 lib/USB_Functions/usb_istr.o
                                0x306 (size before relaxing)
 .debug_str     0x00003e0e       0x1d lib/USB_Functions/usb_conf.o
                                0x1ba (size before relaxing)
 .debug_str     0x00003e2b      0x264 lib/USB_Functions/usb_prop.o
                                0x63c (size before relaxing)
 .debug_str     0x0000408f       0xe6 lib/USB_Functions/cdc/src/usb_cdc_desc.o
                                0x21e (size before relaxing)
 .debug_str     0x00004175      0x3ee lib/USB_Functions/cdc/src/usb_cdc_prop.o
                                0xaeb (size before relaxing)
 .debug_str     0x00004563       0xda lib/USB_Functions/cdc/src/usb_cdc_endp.o
                                0x37b (size before relaxing)
 .debug_str     0x0000463d       0xbb lib/USB_Functions/msc/src/usb_msc_mass_mal.o
                                0x82a (size before relaxing)
 .debug_str     0x000046f8       0xec lib/USB_Functions/msc/src/usb_msc_memory.o
                                0x301 (size before relaxing)
 .debug_str     0x000047e4       0xa7 lib/USB_Functions/msc/src/usb_msc_scsi_data.o
                                0x1ef (size before relaxing)
 .debug_str     0x0000488b      0x1fe lib/USB_Functions/msc/src/usb_msc_scsi.o
                                0x461 (size before relaxing)
 .debug_str     0x00004a89       0x9b lib/USB_Functions/msc/src/usb_msc_bot.o
                                0x481 (size before relaxing)
 .debug_str     0x00004b24       0xb3 lib/USB_Functions/msc/src/usb_msc_desc.o
                                0x1d1 (size before relaxing)
 .debug_str     0x00004bd7      0x171 lib/USB_Functions/msc/src/usb_msc_prop.o
                                0xa04 (size before relaxing)
 .debug_str     0x00004d48       0x9a STM32F103VET6_lib.a(misc.o)
                                0x391 (size before relaxing)
 .debug_str     0x00004de2      0x22a STM32F103VET6_lib.a(stm32f10x_gpio.o)
                                0x4f8 (size before relaxing)
 .debug_str     0x0000500c      0x3c1 STM32F103VET6_lib.a(stm32f10x_fsmc.o)
                                0x74c (size before relaxing)
 .debug_str     0x000053cd      0x26e STM32F103VET6_lib.a(stm32f10x_rcc.o)
                                0x5e2 (size before relaxing)
 .debug_str     0x0000563b      0x37e STM32F103VET6_lib.a(stm32f10x_adc.o)
                                0x6da (size before relaxing)
 .debug_str     0x000059b9       0xf5 STM32F103VET6_lib.a(stm32f10x_dma.o)
                                0x389 (size before relaxing)
 .debug_str     0x00005aae      0xa18 STM32F103VET6_lib.a(stm32f10x_tim.o)
                                0xdd3 (size before relaxing)
 .debug_str     0x000064c6      0x133 STM32F103VET6_lib.a(stm32f10x_rtc.o)
                                0x376 (size before relaxing)
 .debug_str     0x000065f9      0x1b6 STM32F103VET6_lib.a(stm32f10x_sdio.o)
                                0x603 (size before relaxing)
 .debug_str     0x000067af      0x318 STM32F103VET6_lib.a(stm32f10x_usart.o)
                                0x698 (size before relaxing)
 .debug_str     0x00006ac7      0x2e2 STM32F103VET6_lib.a(stm32f10x_bkp.o)
                                0x590 (size before relaxing)
 .debug_str     0x00006da9       0xf8 STM32F103VET6_lib.a(stm32f10x_pwr.o)
                                0x301 (size before relaxing)
 .debug_str     0x00006ea1      0x430 STM32F103VET6_lib.a(usb_core.o)
                                0xab3 (size before relaxing)
 .debug_str     0x000072d1       0x40 STM32F103VET6_lib.a(usb_init.o)
                                0x51a (size before relaxing)
 .debug_str     0x00007311       0x34 STM32F103VET6_lib.a(usb_int.o)
                                0x1ed (size before relaxing)
 .debug_str     0x00007345       0x5d STM32F103VET6_lib.a(usb_mem.o)
                                0x1c6 (size before relaxing)
 .debug_str     0x000073a2      0x279 STM32F103VET6_lib.a(usb_regs.o)
                                0x54e (size before relaxing)
 .debug_str     0x0000761b       0x5d STM32F103VET6_lib.a(usb_sil.o)
                                0x22e (size before relaxing)

.debug_loc      0x00000000    0x140c2
 *(.debug_loc)
 .debug_loc     0x00000000       0x4b src/main.o
 .debug_loc     0x0000004b      0x131 src/sysinit_primer2.o
 .debug_loc     0x0000017c      0x16f src/systick.o
 .debug_loc     0x000002eb      0x738 src/syscalls.o
 .debug_loc     0x00000a23       0x20 src/stm32f10x_it.o
 .debug_loc     0x00000a43      0x270 src/hw_config.o
 .debug_loc     0x00000cb3      0x141 src/power.o
 .debug_loc     0x00000df4       0x20 src/adc_support.o
 .debug_loc     0x00000e14      0x1a4 src/rtc_support.o
 .debug_loc     0x00000fb8      0x4ac src/gps_support.o
 .debug_loc     0x00001464      0x187 src/cdc_support.o
 .debug_loc     0x000015eb       0x20 src/msc_support.o
 .debug_loc     0x0000160b      0x4ae src/uart_support_gps.o
 .debug_loc     0x00001ab9       0x87 src/term_io.o
 .debug_loc     0x00001b40      0xa4f src/xprintf.o
 .debug_loc     0x0000258f       0x2d lib/display/mcu_depend/src/display_if_basis.o
 .debug_loc     0x000025bc     0x12e7 lib/display/abstract/src/display_if_support.o
 .debug_loc     0x000038a3      0x721 lib/display/drivers/src/st7732.o
 .debug_loc     0x00003fc4      0x206 lib/FONTX2/src/font_if.o
 .debug_loc     0x000041ca     0x49a6 lib/ff/ff.o
 .debug_loc     0x00008b70     0x224f lib/ff/sdio_stm32f1.o
 .debug_loc     0x0000adbf      0x534 lib/ff/diskio_sdio.o
 .debug_loc     0x0000b2f3       0x98 lib/ff/ff_rtc_if.o
 .debug_loc     0x0000b38b      0x1a8 lib/USB_Functions/usb_pwr.o
 .debug_loc     0x0000b533       0x60 lib/USB_Functions/usb_istr.o
 .debug_loc     0x0000b593       0x80 lib/USB_Functions/usb_conf.o
 .debug_loc     0x0000b613      0x347 lib/USB_Functions/usb_prop.o
 .debug_loc     0x0000b95a      0x243 lib/USB_Functions/cdc/src/usb_cdc_prop.o
 .debug_loc     0x0000bb9d      0x10d lib/USB_Functions/cdc/src/usb_cdc_endp.o
 .debug_loc     0x0000bcaa      0x312 lib/USB_Functions/msc/src/usb_msc_mass_mal.o
 .debug_loc     0x0000bfbc      0x127 lib/USB_Functions/msc/src/usb_msc_memory.o
 .debug_loc     0x0000c0e3      0x72e lib/USB_Functions/msc/src/usb_msc_scsi.o
 .debug_loc     0x0000c811      0x1fa lib/USB_Functions/msc/src/usb_msc_bot.o
 .debug_loc     0x0000ca0b      0x1ef lib/USB_Functions/msc/src/usb_msc_prop.o
 .debug_loc     0x0000cbfa      0x1f2 STM32F103VET6_lib.a(misc.o)
 .debug_loc     0x0000cdec      0x60b STM32F103VET6_lib.a(stm32f10x_gpio.o)
 .debug_loc     0x0000d3f7      0x63c STM32F103VET6_lib.a(stm32f10x_fsmc.o)
 .debug_loc     0x0000da33      0x7a9 STM32F103VET6_lib.a(stm32f10x_rcc.o)
 .debug_loc     0x0000e1dc      0xe4e STM32F103VET6_lib.a(stm32f10x_adc.o)
 .debug_loc     0x0000f02a      0x275 STM32F103VET6_lib.a(stm32f10x_dma.o)
 .debug_loc     0x0000f29f     0x219e STM32F103VET6_lib.a(stm32f10x_tim.o)
 .debug_loc     0x0001143d      0x2e3 STM32F103VET6_lib.a(stm32f10x_rtc.o)
 .debug_loc     0x00011720      0x2d9 STM32F103VET6_lib.a(stm32f10x_sdio.o)
 .debug_loc     0x000119f9      0x95d STM32F103VET6_lib.a(stm32f10x_usart.o)
 .debug_loc     0x00012356      0x198 STM32F103VET6_lib.a(stm32f10x_bkp.o)
 .debug_loc     0x000124ee      0x178 STM32F103VET6_lib.a(stm32f10x_pwr.o)
 .debug_loc     0x00012666      0x98c STM32F103VET6_lib.a(usb_core.o)
 .debug_loc     0x00012ff2       0x20 STM32F103VET6_lib.a(usb_init.o)
 .debug_loc     0x00013012      0x120 STM32F103VET6_lib.a(usb_int.o)
 .debug_loc     0x00013132      0x19c STM32F103VET6_lib.a(usb_mem.o)
 .debug_loc     0x000132ce      0xcd4 STM32F103VET6_lib.a(usb_regs.o)
 .debug_loc     0x00013fa2      0x120 STM32F103VET6_lib.a(usb_sil.o)

.debug_macinfo
 *(.debug_macinfo)

.debug_weaknames
 *(.debug_weaknames)

.debug_funcnames
 *(.debug_funcnames)

.debug_typenames
 *(.debug_typenames)

.debug_varnames
 *(.debug_varnames)

.note.gnu.arm.ident
 *(.note.gnu.arm.ident)

.ARM.attributes
                0x00000000       0x31
 *(.ARM.attributes)
 .ARM.attributes
                0x00000000       0x31 src/main.o
 .ARM.attributes
                0x00000031       0x31 src/sysinit_primer2.o
 .ARM.attributes
                0x00000062       0x31 src/systick.o
 .ARM.attributes
                0x00000093       0x31 src/syscalls.o
 .ARM.attributes
                0x000000c4       0x31 src/stm32f10x_it.o
 .ARM.attributes
                0x000000f5       0x31 src/hw_config.o
 .ARM.attributes
                0x00000126       0x31 src/power.o
 .ARM.attributes
                0x00000157       0x31 src/adc_support.o
 .ARM.attributes
                0x00000188       0x31 src/rtc_support.o
 .ARM.attributes
                0x000001b9       0x31 src/gps_support.o
 .ARM.attributes
                0x000001ea       0x31 src/cdc_support.o
 .ARM.attributes
                0x0000021b       0x31 src/msc_support.o
 .ARM.attributes
                0x0000024c       0x31 src/uart_support_gps.o
 .ARM.attributes
                0x0000027d       0x31 src/term_io.o
 .ARM.attributes
                0x000002ae       0x31 src/xprintf.o
 .ARM.attributes
                0x000002df       0x31 lib/display/mcu_depend/src/display_if_basis.o
 .ARM.attributes
                0x00000310       0x31 lib/display/abstract/src/display_if_support.o
 .ARM.attributes
                0x00000341       0x31 lib/display/drivers/src/st7732.o
 .ARM.attributes
                0x00000372       0x31 lib/FONTX2/src/font_if_datatable.o
 .ARM.attributes
                0x000003a3       0x31 lib/FONTX2/src/font_if.o
 .ARM.attributes
                0x000003d4       0x31 lib/ff/ff.o
 .ARM.attributes
                0x00000405       0x31 lib/ff/sdio_stm32f1.o
 .ARM.attributes
                0x00000436       0x31 lib/ff/diskio_sdio.o
 .ARM.attributes
                0x00000467       0x31 lib/ff/ff_rtc_if.o
 .ARM.attributes
                0x00000498       0x31 lib/ff/option/unicode.o
 .ARM.attributes
                0x000004c9       0x31 lib/USB_Functions/usb_pwr.o
 .ARM.attributes
                0x000004fa       0x31 lib/USB_Functions/usb_istr.o
 .ARM.attributes
                0x0000052b       0x31 lib/USB_Functions/usb_conf.o
 .ARM.attributes
                0x0000055c       0x31 lib/USB_Functions/usb_prop.o
 .ARM.attributes
                0x0000058d       0x31 lib/USB_Functions/cdc/src/usb_cdc_desc.o
 .ARM.attributes
                0x000005be       0x31 lib/USB_Functions/cdc/src/usb_cdc_prop.o
 .ARM.attributes
                0x000005ef       0x31 lib/USB_Functions/cdc/src/usb_cdc_endp.o
 .ARM.attributes
                0x00000620       0x31 lib/USB_Functions/msc/src/usb_msc_mass_mal.o
 .ARM.attributes
                0x00000651       0x31 lib/USB_Functions/msc/src/usb_msc_memory.o
 .ARM.attributes
                0x00000682       0x31 lib/USB_Functions/msc/src/usb_msc_scsi_data.o
 .ARM.attributes
                0x000006b3       0x31 lib/USB_Functions/msc/src/usb_msc_scsi.o
 .ARM.attributes
                0x000006e4       0x31 lib/USB_Functions/msc/src/usb_msc_bot.o
 .ARM.attributes
                0x00000715       0x31 lib/USB_Functions/msc/src/usb_msc_desc.o
 .ARM.attributes
                0x00000746       0x31 lib/USB_Functions/msc/src/usb_msc_prop.o
 .ARM.attributes
                0x00000777       0x31 STM32F103VET6_lib.a(misc.o)
 .ARM.attributes
                0x000007a8       0x31 STM32F103VET6_lib.a(stm32f10x_gpio.o)
 .ARM.attributes
                0x000007d9       0x31 STM32F103VET6_lib.a(stm32f10x_fsmc.o)
 .ARM.attributes
                0x0000080a       0x31 STM32F103VET6_lib.a(stm32f10x_rcc.o)
 .ARM.attributes
                0x0000083b       0x31 STM32F103VET6_lib.a(stm32f10x_adc.o)
 .ARM.attributes
                0x0000086c       0x31 STM32F103VET6_lib.a(stm32f10x_dma.o)
 .ARM.attributes
                0x0000089d       0x31 STM32F103VET6_lib.a(stm32f10x_tim.o)
 .ARM.attributes
                0x000008ce       0x31 STM32F103VET6_lib.a(stm32f10x_rtc.o)
 .ARM.attributes
                0x000008ff       0x31 STM32F103VET6_lib.a(stm32f10x_sdio.o)
 .ARM.attributes
                0x00000930       0x31 STM32F103VET6_lib.a(stm32f10x_usart.o)
 .ARM.attributes
                0x00000961       0x31 STM32F103VET6_lib.a(stm32f10x_bkp.o)
 .ARM.attributes
                0x00000992       0x31 STM32F103VET6_lib.a(stm32f10x_pwr.o)
 .ARM.attributes
                0x000009c3       0x31 STM32F103VET6_lib.a(usb_core.o)
 .ARM.attributes
                0x000009f4       0x31 STM32F103VET6_lib.a(usb_init.o)
 .ARM.attributes
                0x00000a25       0x31 STM32F103VET6_lib.a(usb_int.o)
 .ARM.attributes
                0x00000a56       0x31 STM32F103VET6_lib.a(usb_mem.o)
 .ARM.attributes
                0x00000a87       0x31 STM32F103VET6_lib.a(usb_regs.o)
 .ARM.attributes
                0x00000ab8       0x31 STM32F103VET6_lib.a(usb_sil.o)
 .ARM.attributes
                0x00000ae9       0x21 STM32F103VET6_lib.a(startup_stm32f10x_hd.o)
 .ARM.attributes
                0x00000b0a       0x1d c:/devz/arm/launchpad/bin/../lib/gcc/arm-none-eabi/4.7.3/armv7-m\libgcc.a(_arm_addsubdf3.o)
 .ARM.attributes
                0x00000b27       0x1d c:/devz/arm/launchpad/bin/../lib/gcc/arm-none-eabi/4.7.3/armv7-m\libgcc.a(_arm_muldivdf3.o)
 .ARM.attributes
                0x00000b44       0x1d c:/devz/arm/launchpad/bin/../lib/gcc/arm-none-eabi/4.7.3/armv7-m\libgcc.a(_arm_cmpdf2.o)
 .ARM.attributes
                0x00000b61       0x1d c:/devz/arm/launchpad/bin/../lib/gcc/arm-none-eabi/4.7.3/armv7-m\libgcc.a(_arm_fixdfsi.o)
 .ARM.attributes
                0x00000b7e       0x2d c:/devz/arm/launchpad/bin/../lib/gcc/arm-none-eabi/4.7.3/../../../../arm-none-eabi/lib/armv7-m\libc_s.a(lib_a-errno.o)
 .ARM.attributes
                0x00000bab       0x2d c:/devz/arm/launchpad/bin/../lib/gcc/arm-none-eabi/4.7.3/../../../../arm-none-eabi/lib/armv7-m\libc_s.a(lib_a-impure.o)
 .ARM.attributes
                0x00000bd8       0x2d c:/devz/arm/launchpad/bin/../lib/gcc/arm-none-eabi/4.7.3/../../../../arm-none-eabi/lib/armv7-m\libc_s.a(lib_a-lcltime.o)
 .ARM.attributes
                0x00000c05       0x2d c:/devz/arm/launchpad/bin/../lib/gcc/arm-none-eabi/4.7.3/../../../../arm-none-eabi/lib/armv7-m\libc_s.a(lib_a-lcltime_r.o)
 .ARM.attributes
                0x00000c32       0x2d c:/devz/arm/launchpad/bin/../lib/gcc/arm-none-eabi/4.7.3/../../../../arm-none-eabi/lib/armv7-m\libc_s.a(lib_a-malloc.o)
 .ARM.attributes
                0x00000c5f       0x2d c:/devz/arm/launchpad/bin/../lib/gcc/arm-none-eabi/4.7.3/../../../../arm-none-eabi/lib/armv7-m\libc_s.a(lib_a-mallocr.o)
 .ARM.attributes
                0x00000c8c       0x2d c:/devz/arm/launchpad/bin/../lib/gcc/arm-none-eabi/4.7.3/../../../../arm-none-eabi/lib/armv7-m\libc_s.a(lib_a-memcpy.o)
 .ARM.attributes
                0x00000cb9       0x2d c:/devz/arm/launchpad/bin/../lib/gcc/arm-none-eabi/4.7.3/../../../../arm-none-eabi/lib/armv7-m\libc_s.a(lib_a-memset.o)
 .ARM.attributes
                0x00000ce6       0x2d c:/devz/arm/launchpad/bin/../lib/gcc/arm-none-eabi/4.7.3/../../../../arm-none-eabi/lib/armv7-m\libc_s.a(lib_a-mktime.o)
 .ARM.attributes
                0x00000d13       0x2d c:/devz/arm/launchpad/bin/../lib/gcc/arm-none-eabi/4.7.3/../../../../arm-none-eabi/lib/armv7-m\libc_s.a(lib_a-mktm_r.o)
 .ARM.attributes
                0x00000d40       0x2d c:/devz/arm/launchpad/bin/../lib/gcc/arm-none-eabi/4.7.3/../../../../arm-none-eabi/lib/armv7-m\libc_s.a(lib_a-tzlock.o)
 .ARM.attributes
                0x00000d6d       0x2d c:/devz/arm/launchpad/bin/../lib/gcc/arm-none-eabi/4.7.3/../../../../arm-none-eabi/lib/armv7-m\libc_s.a(lib_a-tzvars.o)
 .ARM.attributes
                0x00000d9a       0x2d c:/devz/arm/launchpad/bin/../lib/gcc/arm-none-eabi/4.7.3/../../../../arm-none-eabi/lib/armv7-m\libc_s.a(lib_a-div.o)
 .ARM.attributes
                0x00000dc7       0x2d c:/devz/arm/launchpad/bin/../lib/gcc/arm-none-eabi/4.7.3/../../../../arm-none-eabi/lib/armv7-m\libc_s.a(lib_a-freer.o)
 .ARM.attributes
                0x00000df4       0x2d c:/devz/arm/launchpad/bin/../lib/gcc/arm-none-eabi/4.7.3/../../../../arm-none-eabi/lib/armv7-m\libc_s.a(lib_a-gettzinfo.o)
OUTPUT(main.elf elf32-littlearm)

.debug_ranges   0x00000000     0x1b88
 .debug_ranges  0x00000000       0x10 src/main.o
 .debug_ranges  0x00000010       0x60 src/sysinit_primer2.o
 .debug_ranges  0x00000070       0x28 src/systick.o
 .debug_ranges  0x00000098       0xd0 src/syscalls.o
 .debug_ranges  0x00000168       0x68 src/stm32f10x_it.o
 .debug_ranges  0x000001d0       0x70 src/hw_config.o
 .debug_ranges  0x00000240       0x28 src/power.o
 .debug_ranges  0x00000268       0x10 src/adc_support.o
 .debug_ranges  0x00000278       0x40 src/rtc_support.o
 .debug_ranges  0x000002b8       0x88 src/gps_support.o
 .debug_ranges  0x00000340       0x40 src/cdc_support.o
 .debug_ranges  0x00000380       0x10 src/msc_support.o
 .debug_ranges  0x00000390       0x90 src/uart_support_gps.o
 .debug_ranges  0x00000420       0x18 src/term_io.o
 .debug_ranges  0x00000438       0x60 src/xprintf.o
 .debug_ranges  0x00000498       0x10 lib/display/mcu_depend/src/display_if_basis.o
 .debug_ranges  0x000004a8       0x78 lib/display/abstract/src/display_if_support.o
 .debug_ranges  0x00000520       0x50 lib/display/drivers/src/st7732.o
 .debug_ranges  0x00000570       0x40 lib/FONTX2/src/font_if.o
 .debug_ranges  0x000005b0      0x280 lib/ff/ff.o
 .debug_ranges  0x00000830      0x1b8 lib/ff/sdio_stm32f1.o
 .debug_ranges  0x000009e8       0x30 lib/ff/diskio_sdio.o
 .debug_ranges  0x00000a18       0x18 lib/ff/ff_rtc_if.o
 .debug_ranges  0x00000a30       0x30 lib/USB_Functions/usb_pwr.o
 .debug_ranges  0x00000a60       0x20 lib/USB_Functions/usb_istr.o
 .debug_ranges  0x00000a80       0x28 lib/USB_Functions/usb_conf.o
 .debug_ranges  0x00000aa8       0xa0 lib/USB_Functions/usb_prop.o
 .debug_ranges  0x00000b48       0x80 lib/USB_Functions/cdc/src/usb_cdc_prop.o
 .debug_ranges  0x00000bc8       0x20 lib/USB_Functions/cdc/src/usb_cdc_endp.o
 .debug_ranges  0x00000be8       0x28 lib/USB_Functions/msc/src/usb_msc_mass_mal.o
 .debug_ranges  0x00000c10       0x18 lib/USB_Functions/msc/src/usb_msc_memory.o
 .debug_ranges  0x00000c28       0x88 lib/USB_Functions/msc/src/usb_msc_scsi.o
 .debug_ranges  0x00000cb0       0x70 lib/USB_Functions/msc/src/usb_msc_bot.o
 .debug_ranges  0x00000d20       0x80 lib/USB_Functions/msc/src/usb_msc_prop.o
 .debug_ranges  0x00000da0       0x30 STM32F103VET6_lib.a(misc.o)
 .debug_ranges  0x00000dd0       0x98 STM32F103VET6_lib.a(stm32f10x_gpio.o)
 .debug_ranges  0x00000e68       0xa0 STM32F103VET6_lib.a(stm32f10x_fsmc.o)
 .debug_ranges  0x00000f08      0x108 STM32F103VET6_lib.a(stm32f10x_rcc.o)
 .debug_ranges  0x00001010      0x128 STM32F103VET6_lib.a(stm32f10x_adc.o)
 .debug_ranges  0x00001138       0x60 STM32F103VET6_lib.a(stm32f10x_dma.o)
 .debug_ranges  0x00001198      0x300 STM32F103VET6_lib.a(stm32f10x_tim.o)
 .debug_ranges  0x00001498       0x78 STM32F103VET6_lib.a(stm32f10x_rtc.o)
 .debug_ranges  0x00001510       0xf8 STM32F103VET6_lib.a(stm32f10x_sdio.o)
 .debug_ranges  0x00001608       0xf0 STM32F103VET6_lib.a(stm32f10x_usart.o)
 .debug_ranges  0x000016f8       0x68 STM32F103VET6_lib.a(stm32f10x_bkp.o)
 .debug_ranges  0x00001760       0x50 STM32F103VET6_lib.a(stm32f10x_pwr.o)
 .debug_ranges  0x000017b0      0x148 STM32F103VET6_lib.a(usb_core.o)
 .debug_ranges  0x000018f8       0x10 STM32F103VET6_lib.a(usb_init.o)
 .debug_ranges  0x00001908       0x18 STM32F103VET6_lib.a(usb_int.o)
 .debug_ranges  0x00001920       0x18 STM32F103VET6_lib.a(usb_mem.o)
 .debug_ranges  0x00001938      0x210 STM32F103VET6_lib.a(usb_regs.o)
 .debug_ranges  0x00001b48       0x20 STM32F103VET6_lib.a(usb_sil.o)
 .debug_ranges  0x00001b68       0x20 STM32F103VET6_lib.a(startup_stm32f10x_hd.o)
