   1              		.syntax unified
   2              		.cpu cortex-m3
   3              		.fpu softvfp
   4              		.eabi_attribute 20, 1
   5              		.eabi_attribute 21, 1
   6              		.eabi_attribute 23, 3
   7              		.eabi_attribute 24, 1
   8              		.eabi_attribute 25, 1
   9              		.eabi_attribute 26, 1
  10              		.eabi_attribute 30, 4
  11              		.eabi_attribute 34, 0
  12              		.eabi_attribute 18, 4
  13              		.thumb
  14              		.file	"stm32f10x_adc.c"
  15              		.text
  16              	.Ltext0:
  17              		.cfi_sections	.debug_frame
  18              		.section	.text.ADC_DeInit,"ax",%progbits
  19              		.align	1
  20              		.global	ADC_DeInit
  21              		.thumb
  22              		.thumb_func
  24              	ADC_DeInit:
  25              	.LFB56:
  26              		.file 1 "lib/STM32F10x_StdPeriph_Driver/src/stm32f10x_adc.c"
   1:lib/STM32F10x_StdPeriph_Driver/src/stm32f10x_adc.c **** /**
   2:lib/STM32F10x_StdPeriph_Driver/src/stm32f10x_adc.c ****   ******************************************************************************
   3:lib/STM32F10x_StdPeriph_Driver/src/stm32f10x_adc.c ****   * @file    stm32f10x_adc.c
   4:lib/STM32F10x_StdPeriph_Driver/src/stm32f10x_adc.c ****   * @author  MCD Application Team
   5:lib/STM32F10x_StdPeriph_Driver/src/stm32f10x_adc.c ****   * @version V3.6.1
   6:lib/STM32F10x_StdPeriph_Driver/src/stm32f10x_adc.c ****   * @date    05-March-2012
   7:lib/STM32F10x_StdPeriph_Driver/src/stm32f10x_adc.c ****   * @brief   This file provides all the ADC firmware functions.
   8:lib/STM32F10x_StdPeriph_Driver/src/stm32f10x_adc.c ****   ******************************************************************************
   9:lib/STM32F10x_StdPeriph_Driver/src/stm32f10x_adc.c ****   * @attention
  10:lib/STM32F10x_StdPeriph_Driver/src/stm32f10x_adc.c ****   *
  11:lib/STM32F10x_StdPeriph_Driver/src/stm32f10x_adc.c ****   * <h2><center>&copy; COPYRIGHT 2012 STMicroelectronics</center></h2>
  12:lib/STM32F10x_StdPeriph_Driver/src/stm32f10x_adc.c ****   *
  13:lib/STM32F10x_StdPeriph_Driver/src/stm32f10x_adc.c ****   * Licensed under MCD-ST Liberty SW License Agreement V2, (the "License");
  14:lib/STM32F10x_StdPeriph_Driver/src/stm32f10x_adc.c ****   * You may not use this file except in compliance with the License.
  15:lib/STM32F10x_StdPeriph_Driver/src/stm32f10x_adc.c ****   * You may obtain a copy of the License at:
  16:lib/STM32F10x_StdPeriph_Driver/src/stm32f10x_adc.c ****   *
  17:lib/STM32F10x_StdPeriph_Driver/src/stm32f10x_adc.c ****   *        http://www.st.com/software_license_agreement_liberty_v2
  18:lib/STM32F10x_StdPeriph_Driver/src/stm32f10x_adc.c ****   *
  19:lib/STM32F10x_StdPeriph_Driver/src/stm32f10x_adc.c ****   * Unless required by applicable law or agreed to in writing, software 
  20:lib/STM32F10x_StdPeriph_Driver/src/stm32f10x_adc.c ****   * distributed under the License is distributed on an "AS IS" BASIS, 
  21:lib/STM32F10x_StdPeriph_Driver/src/stm32f10x_adc.c ****   * WITHOUT WARRANTIES OR CONDITIONS OF ANY KIND, either express or implied.
  22:lib/STM32F10x_StdPeriph_Driver/src/stm32f10x_adc.c ****   * See the License for the specific language governing permissions and
  23:lib/STM32F10x_StdPeriph_Driver/src/stm32f10x_adc.c ****   * limitations under the License.
  24:lib/STM32F10x_StdPeriph_Driver/src/stm32f10x_adc.c ****   *
  25:lib/STM32F10x_StdPeriph_Driver/src/stm32f10x_adc.c ****   ******************************************************************************
  26:lib/STM32F10x_StdPeriph_Driver/src/stm32f10x_adc.c ****   */
  27:lib/STM32F10x_StdPeriph_Driver/src/stm32f10x_adc.c **** 
  28:lib/STM32F10x_StdPeriph_Driver/src/stm32f10x_adc.c **** /* Includes ------------------------------------------------------------------*/
  29:lib/STM32F10x_StdPeriph_Driver/src/stm32f10x_adc.c **** #include "stm32f10x_adc.h"
  30:lib/STM32F10x_StdPeriph_Driver/src/stm32f10x_adc.c **** #include "stm32f10x_rcc.h"
  31:lib/STM32F10x_StdPeriph_Driver/src/stm32f10x_adc.c **** 
  32:lib/STM32F10x_StdPeriph_Driver/src/stm32f10x_adc.c **** /** @addtogroup STM32F10x_StdPeriph_Driver
  33:lib/STM32F10x_StdPeriph_Driver/src/stm32f10x_adc.c ****   * @{
  34:lib/STM32F10x_StdPeriph_Driver/src/stm32f10x_adc.c ****   */
  35:lib/STM32F10x_StdPeriph_Driver/src/stm32f10x_adc.c **** 
  36:lib/STM32F10x_StdPeriph_Driver/src/stm32f10x_adc.c **** /** @defgroup ADC 
  37:lib/STM32F10x_StdPeriph_Driver/src/stm32f10x_adc.c ****   * @brief ADC driver modules
  38:lib/STM32F10x_StdPeriph_Driver/src/stm32f10x_adc.c ****   * @{
  39:lib/STM32F10x_StdPeriph_Driver/src/stm32f10x_adc.c ****   */
  40:lib/STM32F10x_StdPeriph_Driver/src/stm32f10x_adc.c **** 
  41:lib/STM32F10x_StdPeriph_Driver/src/stm32f10x_adc.c **** /** @defgroup ADC_Private_TypesDefinitions
  42:lib/STM32F10x_StdPeriph_Driver/src/stm32f10x_adc.c ****   * @{
  43:lib/STM32F10x_StdPeriph_Driver/src/stm32f10x_adc.c ****   */
  44:lib/STM32F10x_StdPeriph_Driver/src/stm32f10x_adc.c **** 
  45:lib/STM32F10x_StdPeriph_Driver/src/stm32f10x_adc.c **** /**
  46:lib/STM32F10x_StdPeriph_Driver/src/stm32f10x_adc.c ****   * @}
  47:lib/STM32F10x_StdPeriph_Driver/src/stm32f10x_adc.c ****   */
  48:lib/STM32F10x_StdPeriph_Driver/src/stm32f10x_adc.c **** 
  49:lib/STM32F10x_StdPeriph_Driver/src/stm32f10x_adc.c **** /** @defgroup ADC_Private_Defines
  50:lib/STM32F10x_StdPeriph_Driver/src/stm32f10x_adc.c ****   * @{
  51:lib/STM32F10x_StdPeriph_Driver/src/stm32f10x_adc.c ****   */
  52:lib/STM32F10x_StdPeriph_Driver/src/stm32f10x_adc.c **** 
  53:lib/STM32F10x_StdPeriph_Driver/src/stm32f10x_adc.c **** /* ADC DISCNUM mask */
  54:lib/STM32F10x_StdPeriph_Driver/src/stm32f10x_adc.c **** #define CR1_DISCNUM_Reset           ((uint32_t)0xFFFF1FFF)
  55:lib/STM32F10x_StdPeriph_Driver/src/stm32f10x_adc.c **** 
  56:lib/STM32F10x_StdPeriph_Driver/src/stm32f10x_adc.c **** /* ADC DISCEN mask */
  57:lib/STM32F10x_StdPeriph_Driver/src/stm32f10x_adc.c **** #define CR1_DISCEN_Set              ((uint32_t)0x00000800)
  58:lib/STM32F10x_StdPeriph_Driver/src/stm32f10x_adc.c **** #define CR1_DISCEN_Reset            ((uint32_t)0xFFFFF7FF)
  59:lib/STM32F10x_StdPeriph_Driver/src/stm32f10x_adc.c **** 
  60:lib/STM32F10x_StdPeriph_Driver/src/stm32f10x_adc.c **** /* ADC JAUTO mask */
  61:lib/STM32F10x_StdPeriph_Driver/src/stm32f10x_adc.c **** #define CR1_JAUTO_Set               ((uint32_t)0x00000400)
  62:lib/STM32F10x_StdPeriph_Driver/src/stm32f10x_adc.c **** #define CR1_JAUTO_Reset             ((uint32_t)0xFFFFFBFF)
  63:lib/STM32F10x_StdPeriph_Driver/src/stm32f10x_adc.c **** 
  64:lib/STM32F10x_StdPeriph_Driver/src/stm32f10x_adc.c **** /* ADC JDISCEN mask */
  65:lib/STM32F10x_StdPeriph_Driver/src/stm32f10x_adc.c **** #define CR1_JDISCEN_Set             ((uint32_t)0x00001000)
  66:lib/STM32F10x_StdPeriph_Driver/src/stm32f10x_adc.c **** #define CR1_JDISCEN_Reset           ((uint32_t)0xFFFFEFFF)
  67:lib/STM32F10x_StdPeriph_Driver/src/stm32f10x_adc.c **** 
  68:lib/STM32F10x_StdPeriph_Driver/src/stm32f10x_adc.c **** /* ADC AWDCH mask */
  69:lib/STM32F10x_StdPeriph_Driver/src/stm32f10x_adc.c **** #define CR1_AWDCH_Reset             ((uint32_t)0xFFFFFFE0)
  70:lib/STM32F10x_StdPeriph_Driver/src/stm32f10x_adc.c **** 
  71:lib/STM32F10x_StdPeriph_Driver/src/stm32f10x_adc.c **** /* ADC Analog watchdog enable mode mask */
  72:lib/STM32F10x_StdPeriph_Driver/src/stm32f10x_adc.c **** #define CR1_AWDMode_Reset           ((uint32_t)0xFF3FFDFF)
  73:lib/STM32F10x_StdPeriph_Driver/src/stm32f10x_adc.c **** 
  74:lib/STM32F10x_StdPeriph_Driver/src/stm32f10x_adc.c **** /* CR1 register Mask */
  75:lib/STM32F10x_StdPeriph_Driver/src/stm32f10x_adc.c **** #define CR1_CLEAR_Mask              ((uint32_t)0xFFF0FEFF)
  76:lib/STM32F10x_StdPeriph_Driver/src/stm32f10x_adc.c **** 
  77:lib/STM32F10x_StdPeriph_Driver/src/stm32f10x_adc.c **** /* ADC ADON mask */
  78:lib/STM32F10x_StdPeriph_Driver/src/stm32f10x_adc.c **** #define CR2_ADON_Set                ((uint32_t)0x00000001)
  79:lib/STM32F10x_StdPeriph_Driver/src/stm32f10x_adc.c **** #define CR2_ADON_Reset              ((uint32_t)0xFFFFFFFE)
  80:lib/STM32F10x_StdPeriph_Driver/src/stm32f10x_adc.c **** 
  81:lib/STM32F10x_StdPeriph_Driver/src/stm32f10x_adc.c **** /* ADC DMA mask */
  82:lib/STM32F10x_StdPeriph_Driver/src/stm32f10x_adc.c **** #define CR2_DMA_Set                 ((uint32_t)0x00000100)
  83:lib/STM32F10x_StdPeriph_Driver/src/stm32f10x_adc.c **** #define CR2_DMA_Reset               ((uint32_t)0xFFFFFEFF)
  84:lib/STM32F10x_StdPeriph_Driver/src/stm32f10x_adc.c **** 
  85:lib/STM32F10x_StdPeriph_Driver/src/stm32f10x_adc.c **** /* ADC RSTCAL mask */
  86:lib/STM32F10x_StdPeriph_Driver/src/stm32f10x_adc.c **** #define CR2_RSTCAL_Set              ((uint32_t)0x00000008)
  87:lib/STM32F10x_StdPeriph_Driver/src/stm32f10x_adc.c **** 
  88:lib/STM32F10x_StdPeriph_Driver/src/stm32f10x_adc.c **** /* ADC CAL mask */
  89:lib/STM32F10x_StdPeriph_Driver/src/stm32f10x_adc.c **** #define CR2_CAL_Set                 ((uint32_t)0x00000004)
  90:lib/STM32F10x_StdPeriph_Driver/src/stm32f10x_adc.c **** 
  91:lib/STM32F10x_StdPeriph_Driver/src/stm32f10x_adc.c **** /* ADC SWSTART mask */
  92:lib/STM32F10x_StdPeriph_Driver/src/stm32f10x_adc.c **** #define CR2_SWSTART_Set             ((uint32_t)0x00400000)
  93:lib/STM32F10x_StdPeriph_Driver/src/stm32f10x_adc.c **** 
  94:lib/STM32F10x_StdPeriph_Driver/src/stm32f10x_adc.c **** /* ADC EXTTRIG mask */
  95:lib/STM32F10x_StdPeriph_Driver/src/stm32f10x_adc.c **** #define CR2_EXTTRIG_Set             ((uint32_t)0x00100000)
  96:lib/STM32F10x_StdPeriph_Driver/src/stm32f10x_adc.c **** #define CR2_EXTTRIG_Reset           ((uint32_t)0xFFEFFFFF)
  97:lib/STM32F10x_StdPeriph_Driver/src/stm32f10x_adc.c **** 
  98:lib/STM32F10x_StdPeriph_Driver/src/stm32f10x_adc.c **** /* ADC Software start mask */
  99:lib/STM32F10x_StdPeriph_Driver/src/stm32f10x_adc.c **** #define CR2_EXTTRIG_SWSTART_Set     ((uint32_t)0x00500000)
 100:lib/STM32F10x_StdPeriph_Driver/src/stm32f10x_adc.c **** #define CR2_EXTTRIG_SWSTART_Reset   ((uint32_t)0xFFAFFFFF)
 101:lib/STM32F10x_StdPeriph_Driver/src/stm32f10x_adc.c **** 
 102:lib/STM32F10x_StdPeriph_Driver/src/stm32f10x_adc.c **** /* ADC JEXTSEL mask */
 103:lib/STM32F10x_StdPeriph_Driver/src/stm32f10x_adc.c **** #define CR2_JEXTSEL_Reset           ((uint32_t)0xFFFF8FFF)
 104:lib/STM32F10x_StdPeriph_Driver/src/stm32f10x_adc.c **** 
 105:lib/STM32F10x_StdPeriph_Driver/src/stm32f10x_adc.c **** /* ADC JEXTTRIG mask */
 106:lib/STM32F10x_StdPeriph_Driver/src/stm32f10x_adc.c **** #define CR2_JEXTTRIG_Set            ((uint32_t)0x00008000)
 107:lib/STM32F10x_StdPeriph_Driver/src/stm32f10x_adc.c **** #define CR2_JEXTTRIG_Reset          ((uint32_t)0xFFFF7FFF)
 108:lib/STM32F10x_StdPeriph_Driver/src/stm32f10x_adc.c **** 
 109:lib/STM32F10x_StdPeriph_Driver/src/stm32f10x_adc.c **** /* ADC JSWSTART mask */
 110:lib/STM32F10x_StdPeriph_Driver/src/stm32f10x_adc.c **** #define CR2_JSWSTART_Set            ((uint32_t)0x00200000)
 111:lib/STM32F10x_StdPeriph_Driver/src/stm32f10x_adc.c **** 
 112:lib/STM32F10x_StdPeriph_Driver/src/stm32f10x_adc.c **** /* ADC injected software start mask */
 113:lib/STM32F10x_StdPeriph_Driver/src/stm32f10x_adc.c **** #define CR2_JEXTTRIG_JSWSTART_Set   ((uint32_t)0x00208000)
 114:lib/STM32F10x_StdPeriph_Driver/src/stm32f10x_adc.c **** #define CR2_JEXTTRIG_JSWSTART_Reset ((uint32_t)0xFFDF7FFF)
 115:lib/STM32F10x_StdPeriph_Driver/src/stm32f10x_adc.c **** 
 116:lib/STM32F10x_StdPeriph_Driver/src/stm32f10x_adc.c **** /* ADC TSPD mask */
 117:lib/STM32F10x_StdPeriph_Driver/src/stm32f10x_adc.c **** #define CR2_TSVREFE_Set             ((uint32_t)0x00800000)
 118:lib/STM32F10x_StdPeriph_Driver/src/stm32f10x_adc.c **** #define CR2_TSVREFE_Reset           ((uint32_t)0xFF7FFFFF)
 119:lib/STM32F10x_StdPeriph_Driver/src/stm32f10x_adc.c **** 
 120:lib/STM32F10x_StdPeriph_Driver/src/stm32f10x_adc.c **** /* CR2 register Mask */
 121:lib/STM32F10x_StdPeriph_Driver/src/stm32f10x_adc.c **** #define CR2_CLEAR_Mask              ((uint32_t)0xFFF1F7FD)
 122:lib/STM32F10x_StdPeriph_Driver/src/stm32f10x_adc.c **** 
 123:lib/STM32F10x_StdPeriph_Driver/src/stm32f10x_adc.c **** /* ADC SQx mask */
 124:lib/STM32F10x_StdPeriph_Driver/src/stm32f10x_adc.c **** #define SQR3_SQ_Set                 ((uint32_t)0x0000001F)
 125:lib/STM32F10x_StdPeriph_Driver/src/stm32f10x_adc.c **** #define SQR2_SQ_Set                 ((uint32_t)0x0000001F)
 126:lib/STM32F10x_StdPeriph_Driver/src/stm32f10x_adc.c **** #define SQR1_SQ_Set                 ((uint32_t)0x0000001F)
 127:lib/STM32F10x_StdPeriph_Driver/src/stm32f10x_adc.c **** 
 128:lib/STM32F10x_StdPeriph_Driver/src/stm32f10x_adc.c **** /* SQR1 register Mask */
 129:lib/STM32F10x_StdPeriph_Driver/src/stm32f10x_adc.c **** #define SQR1_CLEAR_Mask             ((uint32_t)0xFF0FFFFF)
 130:lib/STM32F10x_StdPeriph_Driver/src/stm32f10x_adc.c **** 
 131:lib/STM32F10x_StdPeriph_Driver/src/stm32f10x_adc.c **** /* ADC JSQx mask */
 132:lib/STM32F10x_StdPeriph_Driver/src/stm32f10x_adc.c **** #define JSQR_JSQ_Set                ((uint32_t)0x0000001F)
 133:lib/STM32F10x_StdPeriph_Driver/src/stm32f10x_adc.c **** 
 134:lib/STM32F10x_StdPeriph_Driver/src/stm32f10x_adc.c **** /* ADC JL mask */
 135:lib/STM32F10x_StdPeriph_Driver/src/stm32f10x_adc.c **** #define JSQR_JL_Set                 ((uint32_t)0x00300000)
 136:lib/STM32F10x_StdPeriph_Driver/src/stm32f10x_adc.c **** #define JSQR_JL_Reset               ((uint32_t)0xFFCFFFFF)
 137:lib/STM32F10x_StdPeriph_Driver/src/stm32f10x_adc.c **** 
 138:lib/STM32F10x_StdPeriph_Driver/src/stm32f10x_adc.c **** /* ADC SMPx mask */
 139:lib/STM32F10x_StdPeriph_Driver/src/stm32f10x_adc.c **** #define SMPR1_SMP_Set               ((uint32_t)0x00000007)
 140:lib/STM32F10x_StdPeriph_Driver/src/stm32f10x_adc.c **** #define SMPR2_SMP_Set               ((uint32_t)0x00000007)
 141:lib/STM32F10x_StdPeriph_Driver/src/stm32f10x_adc.c **** 
 142:lib/STM32F10x_StdPeriph_Driver/src/stm32f10x_adc.c **** /* ADC JDRx registers offset */
 143:lib/STM32F10x_StdPeriph_Driver/src/stm32f10x_adc.c **** #define JDR_Offset                  ((uint8_t)0x28)
 144:lib/STM32F10x_StdPeriph_Driver/src/stm32f10x_adc.c **** 
 145:lib/STM32F10x_StdPeriph_Driver/src/stm32f10x_adc.c **** /* ADC1 DR register base address */
 146:lib/STM32F10x_StdPeriph_Driver/src/stm32f10x_adc.c **** #define DR_ADDRESS                  ((uint32_t)0x4001244C)
 147:lib/STM32F10x_StdPeriph_Driver/src/stm32f10x_adc.c **** 
 148:lib/STM32F10x_StdPeriph_Driver/src/stm32f10x_adc.c **** /**
 149:lib/STM32F10x_StdPeriph_Driver/src/stm32f10x_adc.c ****   * @}
 150:lib/STM32F10x_StdPeriph_Driver/src/stm32f10x_adc.c ****   */
 151:lib/STM32F10x_StdPeriph_Driver/src/stm32f10x_adc.c **** 
 152:lib/STM32F10x_StdPeriph_Driver/src/stm32f10x_adc.c **** /** @defgroup ADC_Private_Macros
 153:lib/STM32F10x_StdPeriph_Driver/src/stm32f10x_adc.c ****   * @{
 154:lib/STM32F10x_StdPeriph_Driver/src/stm32f10x_adc.c ****   */
 155:lib/STM32F10x_StdPeriph_Driver/src/stm32f10x_adc.c **** 
 156:lib/STM32F10x_StdPeriph_Driver/src/stm32f10x_adc.c **** /**
 157:lib/STM32F10x_StdPeriph_Driver/src/stm32f10x_adc.c ****   * @}
 158:lib/STM32F10x_StdPeriph_Driver/src/stm32f10x_adc.c ****   */
 159:lib/STM32F10x_StdPeriph_Driver/src/stm32f10x_adc.c **** 
 160:lib/STM32F10x_StdPeriph_Driver/src/stm32f10x_adc.c **** /** @defgroup ADC_Private_Variables
 161:lib/STM32F10x_StdPeriph_Driver/src/stm32f10x_adc.c ****   * @{
 162:lib/STM32F10x_StdPeriph_Driver/src/stm32f10x_adc.c ****   */
 163:lib/STM32F10x_StdPeriph_Driver/src/stm32f10x_adc.c **** 
 164:lib/STM32F10x_StdPeriph_Driver/src/stm32f10x_adc.c **** /**
 165:lib/STM32F10x_StdPeriph_Driver/src/stm32f10x_adc.c ****   * @}
 166:lib/STM32F10x_StdPeriph_Driver/src/stm32f10x_adc.c ****   */
 167:lib/STM32F10x_StdPeriph_Driver/src/stm32f10x_adc.c **** 
 168:lib/STM32F10x_StdPeriph_Driver/src/stm32f10x_adc.c **** /** @defgroup ADC_Private_FunctionPrototypes
 169:lib/STM32F10x_StdPeriph_Driver/src/stm32f10x_adc.c ****   * @{
 170:lib/STM32F10x_StdPeriph_Driver/src/stm32f10x_adc.c ****   */
 171:lib/STM32F10x_StdPeriph_Driver/src/stm32f10x_adc.c **** 
 172:lib/STM32F10x_StdPeriph_Driver/src/stm32f10x_adc.c **** /**
 173:lib/STM32F10x_StdPeriph_Driver/src/stm32f10x_adc.c ****   * @}
 174:lib/STM32F10x_StdPeriph_Driver/src/stm32f10x_adc.c ****   */
 175:lib/STM32F10x_StdPeriph_Driver/src/stm32f10x_adc.c **** 
 176:lib/STM32F10x_StdPeriph_Driver/src/stm32f10x_adc.c **** /** @defgroup ADC_Private_Functions
 177:lib/STM32F10x_StdPeriph_Driver/src/stm32f10x_adc.c ****   * @{
 178:lib/STM32F10x_StdPeriph_Driver/src/stm32f10x_adc.c ****   */
 179:lib/STM32F10x_StdPeriph_Driver/src/stm32f10x_adc.c **** 
 180:lib/STM32F10x_StdPeriph_Driver/src/stm32f10x_adc.c **** /**
 181:lib/STM32F10x_StdPeriph_Driver/src/stm32f10x_adc.c ****   * @brief  Deinitializes the ADCx peripheral registers to their default reset values.
 182:lib/STM32F10x_StdPeriph_Driver/src/stm32f10x_adc.c ****   * @param  ADCx: where x can be 1, 2 or 3 to select the ADC peripheral.
 183:lib/STM32F10x_StdPeriph_Driver/src/stm32f10x_adc.c ****   * @retval None
 184:lib/STM32F10x_StdPeriph_Driver/src/stm32f10x_adc.c ****   */
 185:lib/STM32F10x_StdPeriph_Driver/src/stm32f10x_adc.c **** void ADC_DeInit(ADC_TypeDef* ADCx)
 186:lib/STM32F10x_StdPeriph_Driver/src/stm32f10x_adc.c **** {
  27              		.loc 1 186 0
  28              		.cfi_startproc
  29              		@ args = 0, pretend = 0, frame = 0
  30              		@ frame_needed = 0, uses_anonymous_args = 0
  31              	.LVL0:
  32 0000 08B5     		push	{r3, lr}
  33              	.LCFI0:
  34              		.cfi_def_cfa_offset 8
  35              		.cfi_offset 3, -8
  36              		.cfi_offset 14, -4
 187:lib/STM32F10x_StdPeriph_Driver/src/stm32f10x_adc.c ****   /* Check the parameters */
 188:lib/STM32F10x_StdPeriph_Driver/src/stm32f10x_adc.c ****   assert_param(IS_ADC_ALL_PERIPH(ADCx));
 189:lib/STM32F10x_StdPeriph_Driver/src/stm32f10x_adc.c ****   
 190:lib/STM32F10x_StdPeriph_Driver/src/stm32f10x_adc.c ****   if (ADCx == ADC1)
  37              		.loc 1 190 0
  38 0002 134B     		ldr	r3, .L7
  39 0004 9842     		cmp	r0, r3
  40 0006 07D1     		bne	.L2
 191:lib/STM32F10x_StdPeriph_Driver/src/stm32f10x_adc.c ****   {
 192:lib/STM32F10x_StdPeriph_Driver/src/stm32f10x_adc.c ****     /* Enable ADC1 reset state */
 193:lib/STM32F10x_StdPeriph_Driver/src/stm32f10x_adc.c ****     RCC_APB2PeriphResetCmd(RCC_APB2Periph_ADC1, ENABLE);
  41              		.loc 1 193 0
  42 0008 4FF40070 		mov	r0, #512
  43              	.LVL1:
  44 000c 0121     		movs	r1, #1
  45 000e FFF7FEFF 		bl	RCC_APB2PeriphResetCmd
  46              	.LVL2:
 194:lib/STM32F10x_StdPeriph_Driver/src/stm32f10x_adc.c ****     /* Release ADC1 from reset state */
 195:lib/STM32F10x_StdPeriph_Driver/src/stm32f10x_adc.c ****     RCC_APB2PeriphResetCmd(RCC_APB2Periph_ADC1, DISABLE);
  47              		.loc 1 195 0
  48 0012 4FF40070 		mov	r0, #512
  49 0016 14E0     		b	.L5
  50              	.LVL3:
  51              	.L2:
 196:lib/STM32F10x_StdPeriph_Driver/src/stm32f10x_adc.c ****   }
 197:lib/STM32F10x_StdPeriph_Driver/src/stm32f10x_adc.c ****   else if (ADCx == ADC2)
  52              		.loc 1 197 0
  53 0018 0E49     		ldr	r1, .L7+4
  54 001a 8842     		cmp	r0, r1
  55 001c 07D1     		bne	.L3
 198:lib/STM32F10x_StdPeriph_Driver/src/stm32f10x_adc.c ****   {
 199:lib/STM32F10x_StdPeriph_Driver/src/stm32f10x_adc.c ****     /* Enable ADC2 reset state */
 200:lib/STM32F10x_StdPeriph_Driver/src/stm32f10x_adc.c ****     RCC_APB2PeriphResetCmd(RCC_APB2Periph_ADC2, ENABLE);
  56              		.loc 1 200 0
  57 001e 4FF48060 		mov	r0, #1024
  58              	.LVL4:
  59 0022 0121     		movs	r1, #1
  60 0024 FFF7FEFF 		bl	RCC_APB2PeriphResetCmd
  61              	.LVL5:
 201:lib/STM32F10x_StdPeriph_Driver/src/stm32f10x_adc.c ****     /* Release ADC2 from reset state */
 202:lib/STM32F10x_StdPeriph_Driver/src/stm32f10x_adc.c ****     RCC_APB2PeriphResetCmd(RCC_APB2Periph_ADC2, DISABLE);
  62              		.loc 1 202 0
  63 0028 4FF48060 		mov	r0, #1024
  64 002c 09E0     		b	.L5
  65              	.LVL6:
  66              	.L3:
 203:lib/STM32F10x_StdPeriph_Driver/src/stm32f10x_adc.c ****   }
 204:lib/STM32F10x_StdPeriph_Driver/src/stm32f10x_adc.c ****   else
 205:lib/STM32F10x_StdPeriph_Driver/src/stm32f10x_adc.c ****   {
 206:lib/STM32F10x_StdPeriph_Driver/src/stm32f10x_adc.c ****     if (ADCx == ADC3)
  67              		.loc 1 206 0
  68 002e 0A4A     		ldr	r2, .L7+8
  69 0030 9042     		cmp	r0, r2
  70 0032 0BD1     		bne	.L1
 207:lib/STM32F10x_StdPeriph_Driver/src/stm32f10x_adc.c ****     {
 208:lib/STM32F10x_StdPeriph_Driver/src/stm32f10x_adc.c ****       /* Enable ADC3 reset state */
 209:lib/STM32F10x_StdPeriph_Driver/src/stm32f10x_adc.c ****       RCC_APB2PeriphResetCmd(RCC_APB2Periph_ADC3, ENABLE);
  71              		.loc 1 209 0
  72 0034 4FF40040 		mov	r0, #32768
  73              	.LVL7:
  74 0038 0121     		movs	r1, #1
  75 003a FFF7FEFF 		bl	RCC_APB2PeriphResetCmd
  76              	.LVL8:
 210:lib/STM32F10x_StdPeriph_Driver/src/stm32f10x_adc.c ****       /* Release ADC3 from reset state */
 211:lib/STM32F10x_StdPeriph_Driver/src/stm32f10x_adc.c ****       RCC_APB2PeriphResetCmd(RCC_APB2Periph_ADC3, DISABLE);
  77              		.loc 1 211 0
  78 003e 4FF40040 		mov	r0, #32768
  79              	.L5:
  80 0042 0021     		movs	r1, #0
 212:lib/STM32F10x_StdPeriph_Driver/src/stm32f10x_adc.c ****     }
 213:lib/STM32F10x_StdPeriph_Driver/src/stm32f10x_adc.c ****   }
 214:lib/STM32F10x_StdPeriph_Driver/src/stm32f10x_adc.c **** }
  81              		.loc 1 214 0
  82 0044 BDE80840 		pop	{r3, lr}
 211:lib/STM32F10x_StdPeriph_Driver/src/stm32f10x_adc.c ****       RCC_APB2PeriphResetCmd(RCC_APB2Periph_ADC3, DISABLE);
  83              		.loc 1 211 0
  84 0048 FFF7FEBF 		b	RCC_APB2PeriphResetCmd
  85              	.LVL9:
  86              	.L1:
  87 004c 08BD     		pop	{r3, pc}
  88              	.L8:
  89 004e 00BF     		.align	2
  90              	.L7:
  91 0050 00240140 		.word	1073816576
  92 0054 00280140 		.word	1073817600
  93 0058 003C0140 		.word	1073822720
  94              		.cfi_endproc
  95              	.LFE56:
  97              		.section	.text.ADC_Init,"ax",%progbits
  98              		.align	1
  99              		.global	ADC_Init
 100              		.thumb
 101              		.thumb_func
 103              	ADC_Init:
 104              	.LFB57:
 215:lib/STM32F10x_StdPeriph_Driver/src/stm32f10x_adc.c **** 
 216:lib/STM32F10x_StdPeriph_Driver/src/stm32f10x_adc.c **** /**
 217:lib/STM32F10x_StdPeriph_Driver/src/stm32f10x_adc.c ****   * @brief  Initializes the ADCx peripheral according to the specified parameters
 218:lib/STM32F10x_StdPeriph_Driver/src/stm32f10x_adc.c ****   *         in the ADC_InitStruct.
 219:lib/STM32F10x_StdPeriph_Driver/src/stm32f10x_adc.c ****   * @param  ADCx: where x can be 1, 2 or 3 to select the ADC peripheral.
 220:lib/STM32F10x_StdPeriph_Driver/src/stm32f10x_adc.c ****   * @param  ADC_InitStruct: pointer to an ADC_InitTypeDef structure that contains
 221:lib/STM32F10x_StdPeriph_Driver/src/stm32f10x_adc.c ****   *         the configuration information for the specified ADC peripheral.
 222:lib/STM32F10x_StdPeriph_Driver/src/stm32f10x_adc.c ****   * @retval None
 223:lib/STM32F10x_StdPeriph_Driver/src/stm32f10x_adc.c ****   */
 224:lib/STM32F10x_StdPeriph_Driver/src/stm32f10x_adc.c **** void ADC_Init(ADC_TypeDef* ADCx, ADC_InitTypeDef* ADC_InitStruct)
 225:lib/STM32F10x_StdPeriph_Driver/src/stm32f10x_adc.c **** {
 105              		.loc 1 225 0
 106              		.cfi_startproc
 107              		@ args = 0, pretend = 0, frame = 0
 108              		@ frame_needed = 0, uses_anonymous_args = 0
 109              	.LVL10:
 110 0000 10B5     		push	{r4, lr}
 111              	.LCFI1:
 112              		.cfi_def_cfa_offset 8
 113              		.cfi_offset 4, -8
 114              		.cfi_offset 14, -4
 115              	.LVL11:
 226:lib/STM32F10x_StdPeriph_Driver/src/stm32f10x_adc.c ****   uint32_t tmpreg1 = 0;
 227:lib/STM32F10x_StdPeriph_Driver/src/stm32f10x_adc.c ****   uint8_t tmpreg2 = 0;
 228:lib/STM32F10x_StdPeriph_Driver/src/stm32f10x_adc.c ****   /* Check the parameters */
 229:lib/STM32F10x_StdPeriph_Driver/src/stm32f10x_adc.c ****   assert_param(IS_ADC_ALL_PERIPH(ADCx));
 230:lib/STM32F10x_StdPeriph_Driver/src/stm32f10x_adc.c ****   assert_param(IS_ADC_MODE(ADC_InitStruct->ADC_Mode));
 231:lib/STM32F10x_StdPeriph_Driver/src/stm32f10x_adc.c ****   assert_param(IS_FUNCTIONAL_STATE(ADC_InitStruct->ADC_ScanConvMode));
 232:lib/STM32F10x_StdPeriph_Driver/src/stm32f10x_adc.c ****   assert_param(IS_FUNCTIONAL_STATE(ADC_InitStruct->ADC_ContinuousConvMode));
 233:lib/STM32F10x_StdPeriph_Driver/src/stm32f10x_adc.c ****   assert_param(IS_ADC_EXT_TRIG(ADC_InitStruct->ADC_ExternalTrigConv));   
 234:lib/STM32F10x_StdPeriph_Driver/src/stm32f10x_adc.c ****   assert_param(IS_ADC_DATA_ALIGN(ADC_InitStruct->ADC_DataAlign)); 
 235:lib/STM32F10x_StdPeriph_Driver/src/stm32f10x_adc.c ****   assert_param(IS_ADC_REGULAR_LENGTH(ADC_InitStruct->ADC_NbrOfChannel));
 236:lib/STM32F10x_StdPeriph_Driver/src/stm32f10x_adc.c **** 
 237:lib/STM32F10x_StdPeriph_Driver/src/stm32f10x_adc.c ****   /*---------------------------- ADCx CR1 Configuration -----------------*/
 238:lib/STM32F10x_StdPeriph_Driver/src/stm32f10x_adc.c ****   /* Get the ADCx CR1 value */
 239:lib/STM32F10x_StdPeriph_Driver/src/stm32f10x_adc.c ****   tmpreg1 = ADCx->CR1;
 116              		.loc 1 239 0
 117 0002 4268     		ldr	r2, [r0, #4]
 118              	.LVL12:
 240:lib/STM32F10x_StdPeriph_Driver/src/stm32f10x_adc.c ****   /* Clear DUALMOD and SCAN bits */
 241:lib/STM32F10x_StdPeriph_Driver/src/stm32f10x_adc.c ****   tmpreg1 &= CR1_CLEAR_Mask;
 119              		.loc 1 241 0
 120 0004 22F47023 		bic	r3, r2, #983040
 121 0008 23F48074 		bic	r4, r3, #256
 242:lib/STM32F10x_StdPeriph_Driver/src/stm32f10x_adc.c ****   /* Configure ADCx: Dual mode and scan conversion mode */
 243:lib/STM32F10x_StdPeriph_Driver/src/stm32f10x_adc.c ****   /* Set DUALMOD bits according to ADC_Mode value */
 244:lib/STM32F10x_StdPeriph_Driver/src/stm32f10x_adc.c ****   /* Set SCAN bit according to ADC_ScanConvMode value */
 245:lib/STM32F10x_StdPeriph_Driver/src/stm32f10x_adc.c ****   tmpreg1 |= (uint32_t)(ADC_InitStruct->ADC_Mode | ((uint32_t)ADC_InitStruct->ADC_ScanConvMode << 8
 122              		.loc 1 245 0
 123 000c 0A68     		ldr	r2, [r1, #0]
 124              	.LVL13:
 125 000e 44EA0203 		orr	r3, r4, r2
 126 0012 0C79     		ldrb	r4, [r1, #4]	@ zero_extendqisi2
 127 0014 43EA0422 		orr	r2, r3, r4, lsl #8
 128              	.LVL14:
 246:lib/STM32F10x_StdPeriph_Driver/src/stm32f10x_adc.c ****   /* Write to ADCx CR1 */
 247:lib/STM32F10x_StdPeriph_Driver/src/stm32f10x_adc.c ****   ADCx->CR1 = tmpreg1;
 129              		.loc 1 247 0
 130 0018 4260     		str	r2, [r0, #4]
 248:lib/STM32F10x_StdPeriph_Driver/src/stm32f10x_adc.c **** 
 249:lib/STM32F10x_StdPeriph_Driver/src/stm32f10x_adc.c ****   /*---------------------------- ADCx CR2 Configuration -----------------*/
 250:lib/STM32F10x_StdPeriph_Driver/src/stm32f10x_adc.c ****   /* Get the ADCx CR2 value */
 251:lib/STM32F10x_StdPeriph_Driver/src/stm32f10x_adc.c ****   tmpreg1 = ADCx->CR2;
 131              		.loc 1 251 0
 132 001a 8468     		ldr	r4, [r0, #8]
 133              	.LVL15:
 252:lib/STM32F10x_StdPeriph_Driver/src/stm32f10x_adc.c ****   /* Clear CONT, ALIGN and EXTSEL bits */
 253:lib/STM32F10x_StdPeriph_Driver/src/stm32f10x_adc.c ****   tmpreg1 &= CR2_CLEAR_Mask;
 254:lib/STM32F10x_StdPeriph_Driver/src/stm32f10x_adc.c ****   /* Configure ADCx: external trigger event and continuous conversion mode */
 255:lib/STM32F10x_StdPeriph_Driver/src/stm32f10x_adc.c ****   /* Set ALIGN bit according to ADC_DataAlign value */
 256:lib/STM32F10x_StdPeriph_Driver/src/stm32f10x_adc.c ****   /* Set EXTSEL bits according to ADC_ExternalTrigConv value */
 257:lib/STM32F10x_StdPeriph_Driver/src/stm32f10x_adc.c ****   /* Set CONT bit according to ADC_ContinuousConvMode value */
 258:lib/STM32F10x_StdPeriph_Driver/src/stm32f10x_adc.c ****   tmpreg1 |= (uint32_t)(ADC_InitStruct->ADC_DataAlign | ADC_InitStruct->ADC_ExternalTrigConv |
 134              		.loc 1 258 0
 135 001c 8A68     		ldr	r2, [r1, #8]
 136 001e CB68     		ldr	r3, [r1, #12]
 137 0020 1A43     		orrs	r2, r2, r3
 253:lib/STM32F10x_StdPeriph_Driver/src/stm32f10x_adc.c ****   tmpreg1 &= CR2_CLEAR_Mask;
 138              		.loc 1 253 0
 139 0022 084B     		ldr	r3, .L10
 140 0024 2340     		ands	r3, r3, r4
 141              	.LVL16:
 142              		.loc 1 258 0
 143 0026 1343     		orrs	r3, r3, r2
 144              	.LVL17:
 259:lib/STM32F10x_StdPeriph_Driver/src/stm32f10x_adc.c ****             ((uint32_t)ADC_InitStruct->ADC_ContinuousConvMode << 1));
 145              		.loc 1 259 0
 146 0028 4A79     		ldrb	r2, [r1, #5]	@ zero_extendqisi2
 258:lib/STM32F10x_StdPeriph_Driver/src/stm32f10x_adc.c ****   tmpreg1 |= (uint32_t)(ADC_InitStruct->ADC_DataAlign | ADC_InitStruct->ADC_ExternalTrigConv |
 147              		.loc 1 258 0
 148 002a 43EA4203 		orr	r3, r3, r2, lsl #1
 149              	.LVL18:
 260:lib/STM32F10x_StdPeriph_Driver/src/stm32f10x_adc.c ****   /* Write to ADCx CR2 */
 261:lib/STM32F10x_StdPeriph_Driver/src/stm32f10x_adc.c ****   ADCx->CR2 = tmpreg1;
 150              		.loc 1 261 0
 151 002e 8360     		str	r3, [r0, #8]
 262:lib/STM32F10x_StdPeriph_Driver/src/stm32f10x_adc.c **** 
 263:lib/STM32F10x_StdPeriph_Driver/src/stm32f10x_adc.c ****   /*---------------------------- ADCx SQR1 Configuration -----------------*/
 264:lib/STM32F10x_StdPeriph_Driver/src/stm32f10x_adc.c ****   /* Get the ADCx SQR1 value */
 265:lib/STM32F10x_StdPeriph_Driver/src/stm32f10x_adc.c ****   tmpreg1 = ADCx->SQR1;
 152              		.loc 1 265 0
 153 0030 C26A     		ldr	r2, [r0, #44]
 154              	.LVL19:
 266:lib/STM32F10x_StdPeriph_Driver/src/stm32f10x_adc.c ****   /* Clear L bits */
 267:lib/STM32F10x_StdPeriph_Driver/src/stm32f10x_adc.c ****   tmpreg1 &= SQR1_CLEAR_Mask;
 155              		.loc 1 267 0
 156 0032 22F47002 		bic	r2, r2, #15728640
 157              	.LVL20:
 268:lib/STM32F10x_StdPeriph_Driver/src/stm32f10x_adc.c ****   /* Configure ADCx: regular channel sequence length */
 269:lib/STM32F10x_StdPeriph_Driver/src/stm32f10x_adc.c ****   /* Set L bits according to ADC_NbrOfChannel value */
 270:lib/STM32F10x_StdPeriph_Driver/src/stm32f10x_adc.c ****   tmpreg2 |= (uint8_t) (ADC_InitStruct->ADC_NbrOfChannel - (uint8_t)1);
 158              		.loc 1 270 0
 159 0036 097C     		ldrb	r1, [r1, #16]	@ zero_extendqisi2
 160              	.LVL21:
 161 0038 4B1E     		subs	r3, r1, #1
 271:lib/STM32F10x_StdPeriph_Driver/src/stm32f10x_adc.c ****   tmpreg1 |= (uint32_t)tmpreg2 << 20;
 162              		.loc 1 271 0
 163 003a D9B2     		uxtb	r1, r3
 164 003c 42EA0152 		orr	r2, r2, r1, lsl #20
 165              	.LVL22:
 272:lib/STM32F10x_StdPeriph_Driver/src/stm32f10x_adc.c ****   /* Write to ADCx SQR1 */
 273:lib/STM32F10x_StdPeriph_Driver/src/stm32f10x_adc.c ****   ADCx->SQR1 = tmpreg1;
 166              		.loc 1 273 0
 167 0040 C262     		str	r2, [r0, #44]
 168 0042 10BD     		pop	{r4, pc}
 169              	.L11:
 170              		.align	2
 171              	.L10:
 172 0044 FDF7F1FF 		.word	-919555
 173              		.cfi_endproc
 174              	.LFE57:
 176              		.section	.text.ADC_StructInit,"ax",%progbits
 177              		.align	1
 178              		.global	ADC_StructInit
 179              		.thumb
 180              		.thumb_func
 182              	ADC_StructInit:
 183              	.LFB58:
 274:lib/STM32F10x_StdPeriph_Driver/src/stm32f10x_adc.c **** }
 275:lib/STM32F10x_StdPeriph_Driver/src/stm32f10x_adc.c **** 
 276:lib/STM32F10x_StdPeriph_Driver/src/stm32f10x_adc.c **** /**
 277:lib/STM32F10x_StdPeriph_Driver/src/stm32f10x_adc.c ****   * @brief  Fills each ADC_InitStruct member with its default value.
 278:lib/STM32F10x_StdPeriph_Driver/src/stm32f10x_adc.c ****   * @param  ADC_InitStruct : pointer to an ADC_InitTypeDef structure which will be initialized.
 279:lib/STM32F10x_StdPeriph_Driver/src/stm32f10x_adc.c ****   * @retval None
 280:lib/STM32F10x_StdPeriph_Driver/src/stm32f10x_adc.c ****   */
 281:lib/STM32F10x_StdPeriph_Driver/src/stm32f10x_adc.c **** void ADC_StructInit(ADC_InitTypeDef* ADC_InitStruct)
 282:lib/STM32F10x_StdPeriph_Driver/src/stm32f10x_adc.c **** {
 184              		.loc 1 282 0
 185              		.cfi_startproc
 186              		@ args = 0, pretend = 0, frame = 0
 187              		@ frame_needed = 0, uses_anonymous_args = 0
 188              		@ link register save eliminated.
 189              	.LVL23:
 283:lib/STM32F10x_StdPeriph_Driver/src/stm32f10x_adc.c ****   /* Reset ADC init structure parameters values */
 284:lib/STM32F10x_StdPeriph_Driver/src/stm32f10x_adc.c ****   /* Initialize the ADC_Mode member */
 285:lib/STM32F10x_StdPeriph_Driver/src/stm32f10x_adc.c ****   ADC_InitStruct->ADC_Mode = ADC_Mode_Independent;
 190              		.loc 1 285 0
 191 0000 0023     		movs	r3, #0
 192 0002 0360     		str	r3, [r0, #0]
 286:lib/STM32F10x_StdPeriph_Driver/src/stm32f10x_adc.c ****   /* initialize the ADC_ScanConvMode member */
 287:lib/STM32F10x_StdPeriph_Driver/src/stm32f10x_adc.c ****   ADC_InitStruct->ADC_ScanConvMode = DISABLE;
 193              		.loc 1 287 0
 194 0004 0371     		strb	r3, [r0, #4]
 288:lib/STM32F10x_StdPeriph_Driver/src/stm32f10x_adc.c ****   /* Initialize the ADC_ContinuousConvMode member */
 289:lib/STM32F10x_StdPeriph_Driver/src/stm32f10x_adc.c ****   ADC_InitStruct->ADC_ContinuousConvMode = DISABLE;
 195              		.loc 1 289 0
 196 0006 4371     		strb	r3, [r0, #5]
 290:lib/STM32F10x_StdPeriph_Driver/src/stm32f10x_adc.c ****   /* Initialize the ADC_ExternalTrigConv member */
 291:lib/STM32F10x_StdPeriph_Driver/src/stm32f10x_adc.c ****   ADC_InitStruct->ADC_ExternalTrigConv = ADC_ExternalTrigConv_T1_CC1;
 197              		.loc 1 291 0
 198 0008 8360     		str	r3, [r0, #8]
 292:lib/STM32F10x_StdPeriph_Driver/src/stm32f10x_adc.c ****   /* Initialize the ADC_DataAlign member */
 293:lib/STM32F10x_StdPeriph_Driver/src/stm32f10x_adc.c ****   ADC_InitStruct->ADC_DataAlign = ADC_DataAlign_Right;
 199              		.loc 1 293 0
 200 000a C360     		str	r3, [r0, #12]
 294:lib/STM32F10x_StdPeriph_Driver/src/stm32f10x_adc.c ****   /* Initialize the ADC_NbrOfChannel member */
 295:lib/STM32F10x_StdPeriph_Driver/src/stm32f10x_adc.c ****   ADC_InitStruct->ADC_NbrOfChannel = 1;
 201              		.loc 1 295 0
 202 000c 0121     		movs	r1, #1
 203 000e 0174     		strb	r1, [r0, #16]
 204 0010 7047     		bx	lr
 205              		.cfi_endproc
 206              	.LFE58:
 208              		.section	.text.ADC_Cmd,"ax",%progbits
 209              		.align	1
 210              		.global	ADC_Cmd
 211              		.thumb
 212              		.thumb_func
 214              	ADC_Cmd:
 215              	.LFB59:
 296:lib/STM32F10x_StdPeriph_Driver/src/stm32f10x_adc.c **** }
 297:lib/STM32F10x_StdPeriph_Driver/src/stm32f10x_adc.c **** 
 298:lib/STM32F10x_StdPeriph_Driver/src/stm32f10x_adc.c **** /**
 299:lib/STM32F10x_StdPeriph_Driver/src/stm32f10x_adc.c ****   * @brief  Enables or disables the specified ADC peripheral.
 300:lib/STM32F10x_StdPeriph_Driver/src/stm32f10x_adc.c ****   * @param  ADCx: where x can be 1, 2 or 3 to select the ADC peripheral.
 301:lib/STM32F10x_StdPeriph_Driver/src/stm32f10x_adc.c ****   * @param  NewState: new state of the ADCx peripheral.
 302:lib/STM32F10x_StdPeriph_Driver/src/stm32f10x_adc.c ****   *   This parameter can be: ENABLE or DISABLE.
 303:lib/STM32F10x_StdPeriph_Driver/src/stm32f10x_adc.c ****   * @retval None
 304:lib/STM32F10x_StdPeriph_Driver/src/stm32f10x_adc.c ****   */
 305:lib/STM32F10x_StdPeriph_Driver/src/stm32f10x_adc.c **** void ADC_Cmd(ADC_TypeDef* ADCx, FunctionalState NewState)
 306:lib/STM32F10x_StdPeriph_Driver/src/stm32f10x_adc.c **** {
 216              		.loc 1 306 0
 217              		.cfi_startproc
 218              		@ args = 0, pretend = 0, frame = 0
 219              		@ frame_needed = 0, uses_anonymous_args = 0
 220              		@ link register save eliminated.
 221              	.LVL24:
 307:lib/STM32F10x_StdPeriph_Driver/src/stm32f10x_adc.c ****   /* Check the parameters */
 308:lib/STM32F10x_StdPeriph_Driver/src/stm32f10x_adc.c ****   assert_param(IS_ADC_ALL_PERIPH(ADCx));
 309:lib/STM32F10x_StdPeriph_Driver/src/stm32f10x_adc.c ****   assert_param(IS_FUNCTIONAL_STATE(NewState));
 310:lib/STM32F10x_StdPeriph_Driver/src/stm32f10x_adc.c ****   if (NewState != DISABLE)
 311:lib/STM32F10x_StdPeriph_Driver/src/stm32f10x_adc.c ****   {
 312:lib/STM32F10x_StdPeriph_Driver/src/stm32f10x_adc.c ****     /* Set the ADON bit to wake up the ADC from power down mode */
 313:lib/STM32F10x_StdPeriph_Driver/src/stm32f10x_adc.c ****     ADCx->CR2 |= CR2_ADON_Set;
 222              		.loc 1 313 0
 223 0000 8368     		ldr	r3, [r0, #8]
 310:lib/STM32F10x_StdPeriph_Driver/src/stm32f10x_adc.c ****   if (NewState != DISABLE)
 224              		.loc 1 310 0
 225 0002 11B1     		cbz	r1, .L14
 226              		.loc 1 313 0
 227 0004 43F00101 		orr	r1, r3, #1
 228              	.LVL25:
 229 0008 01E0     		b	.L16
 230              	.LVL26:
 231              	.L14:
 314:lib/STM32F10x_StdPeriph_Driver/src/stm32f10x_adc.c ****   }
 315:lib/STM32F10x_StdPeriph_Driver/src/stm32f10x_adc.c ****   else
 316:lib/STM32F10x_StdPeriph_Driver/src/stm32f10x_adc.c ****   {
 317:lib/STM32F10x_StdPeriph_Driver/src/stm32f10x_adc.c ****     /* Disable the selected ADC peripheral */
 318:lib/STM32F10x_StdPeriph_Driver/src/stm32f10x_adc.c ****     ADCx->CR2 &= CR2_ADON_Reset;
 232              		.loc 1 318 0
 233 000a 23F00101 		bic	r1, r3, #1
 234              	.LVL27:
 235              	.L16:
 236 000e 8160     		str	r1, [r0, #8]
 237 0010 7047     		bx	lr
 238              		.cfi_endproc
 239              	.LFE59:
 241              		.section	.text.ADC_DMACmd,"ax",%progbits
 242              		.align	1
 243              		.global	ADC_DMACmd
 244              		.thumb
 245              		.thumb_func
 247              	ADC_DMACmd:
 248              	.LFB60:
 319:lib/STM32F10x_StdPeriph_Driver/src/stm32f10x_adc.c ****   }
 320:lib/STM32F10x_StdPeriph_Driver/src/stm32f10x_adc.c **** }
 321:lib/STM32F10x_StdPeriph_Driver/src/stm32f10x_adc.c **** 
 322:lib/STM32F10x_StdPeriph_Driver/src/stm32f10x_adc.c **** /**
 323:lib/STM32F10x_StdPeriph_Driver/src/stm32f10x_adc.c ****   * @brief  Enables or disables the specified ADC DMA request.
 324:lib/STM32F10x_StdPeriph_Driver/src/stm32f10x_adc.c ****   * @param  ADCx: where x can be 1 or 3 to select the ADC peripheral.
 325:lib/STM32F10x_StdPeriph_Driver/src/stm32f10x_adc.c ****   *   Note: ADC2 hasn't a DMA capability.
 326:lib/STM32F10x_StdPeriph_Driver/src/stm32f10x_adc.c ****   * @param  NewState: new state of the selected ADC DMA transfer.
 327:lib/STM32F10x_StdPeriph_Driver/src/stm32f10x_adc.c ****   *   This parameter can be: ENABLE or DISABLE.
 328:lib/STM32F10x_StdPeriph_Driver/src/stm32f10x_adc.c ****   * @retval None
 329:lib/STM32F10x_StdPeriph_Driver/src/stm32f10x_adc.c ****   */
 330:lib/STM32F10x_StdPeriph_Driver/src/stm32f10x_adc.c **** void ADC_DMACmd(ADC_TypeDef* ADCx, FunctionalState NewState)
 331:lib/STM32F10x_StdPeriph_Driver/src/stm32f10x_adc.c **** {
 249              		.loc 1 331 0
 250              		.cfi_startproc
 251              		@ args = 0, pretend = 0, frame = 0
 252              		@ frame_needed = 0, uses_anonymous_args = 0
 253              		@ link register save eliminated.
 254              	.LVL28:
 332:lib/STM32F10x_StdPeriph_Driver/src/stm32f10x_adc.c ****   /* Check the parameters */
 333:lib/STM32F10x_StdPeriph_Driver/src/stm32f10x_adc.c ****   assert_param(IS_ADC_DMA_PERIPH(ADCx));
 334:lib/STM32F10x_StdPeriph_Driver/src/stm32f10x_adc.c ****   assert_param(IS_FUNCTIONAL_STATE(NewState));
 335:lib/STM32F10x_StdPeriph_Driver/src/stm32f10x_adc.c ****   if (NewState != DISABLE)
 336:lib/STM32F10x_StdPeriph_Driver/src/stm32f10x_adc.c ****   {
 337:lib/STM32F10x_StdPeriph_Driver/src/stm32f10x_adc.c ****     /* Enable the selected ADC DMA request */
 338:lib/STM32F10x_StdPeriph_Driver/src/stm32f10x_adc.c ****     ADCx->CR2 |= CR2_DMA_Set;
 255              		.loc 1 338 0
 256 0000 8368     		ldr	r3, [r0, #8]
 335:lib/STM32F10x_StdPeriph_Driver/src/stm32f10x_adc.c ****   if (NewState != DISABLE)
 257              		.loc 1 335 0
 258 0002 11B1     		cbz	r1, .L18
 259              		.loc 1 338 0
 260 0004 43F48071 		orr	r1, r3, #256
 261              	.LVL29:
 262 0008 01E0     		b	.L20
 263              	.LVL30:
 264              	.L18:
 339:lib/STM32F10x_StdPeriph_Driver/src/stm32f10x_adc.c ****   }
 340:lib/STM32F10x_StdPeriph_Driver/src/stm32f10x_adc.c ****   else
 341:lib/STM32F10x_StdPeriph_Driver/src/stm32f10x_adc.c ****   {
 342:lib/STM32F10x_StdPeriph_Driver/src/stm32f10x_adc.c ****     /* Disable the selected ADC DMA request */
 343:lib/STM32F10x_StdPeriph_Driver/src/stm32f10x_adc.c ****     ADCx->CR2 &= CR2_DMA_Reset;
 265              		.loc 1 343 0
 266 000a 23F48071 		bic	r1, r3, #256
 267              	.LVL31:
 268              	.L20:
 269 000e 8160     		str	r1, [r0, #8]
 270 0010 7047     		bx	lr
 271              		.cfi_endproc
 272              	.LFE60:
 274              		.section	.text.ADC_ITConfig,"ax",%progbits
 275              		.align	1
 276              		.global	ADC_ITConfig
 277              		.thumb
 278              		.thumb_func
 280              	ADC_ITConfig:
 281              	.LFB61:
 344:lib/STM32F10x_StdPeriph_Driver/src/stm32f10x_adc.c ****   }
 345:lib/STM32F10x_StdPeriph_Driver/src/stm32f10x_adc.c **** }
 346:lib/STM32F10x_StdPeriph_Driver/src/stm32f10x_adc.c **** 
 347:lib/STM32F10x_StdPeriph_Driver/src/stm32f10x_adc.c **** /**
 348:lib/STM32F10x_StdPeriph_Driver/src/stm32f10x_adc.c ****   * @brief  Enables or disables the specified ADC interrupts.
 349:lib/STM32F10x_StdPeriph_Driver/src/stm32f10x_adc.c ****   * @param  ADCx: where x can be 1, 2 or 3 to select the ADC peripheral.
 350:lib/STM32F10x_StdPeriph_Driver/src/stm32f10x_adc.c ****   * @param  ADC_IT: specifies the ADC interrupt sources to be enabled or disabled. 
 351:lib/STM32F10x_StdPeriph_Driver/src/stm32f10x_adc.c ****   *   This parameter can be any combination of the following values:
 352:lib/STM32F10x_StdPeriph_Driver/src/stm32f10x_adc.c ****   *     @arg ADC_IT_EOC: End of conversion interrupt mask
 353:lib/STM32F10x_StdPeriph_Driver/src/stm32f10x_adc.c ****   *     @arg ADC_IT_AWD: Analog watchdog interrupt mask
 354:lib/STM32F10x_StdPeriph_Driver/src/stm32f10x_adc.c ****   *     @arg ADC_IT_JEOC: End of injected conversion interrupt mask
 355:lib/STM32F10x_StdPeriph_Driver/src/stm32f10x_adc.c ****   * @param  NewState: new state of the specified ADC interrupts.
 356:lib/STM32F10x_StdPeriph_Driver/src/stm32f10x_adc.c ****   *   This parameter can be: ENABLE or DISABLE.
 357:lib/STM32F10x_StdPeriph_Driver/src/stm32f10x_adc.c ****   * @retval None
 358:lib/STM32F10x_StdPeriph_Driver/src/stm32f10x_adc.c ****   */
 359:lib/STM32F10x_StdPeriph_Driver/src/stm32f10x_adc.c **** void ADC_ITConfig(ADC_TypeDef* ADCx, uint16_t ADC_IT, FunctionalState NewState)
 360:lib/STM32F10x_StdPeriph_Driver/src/stm32f10x_adc.c **** {
 282              		.loc 1 360 0
 283              		.cfi_startproc
 284              		@ args = 0, pretend = 0, frame = 0
 285              		@ frame_needed = 0, uses_anonymous_args = 0
 286              		@ link register save eliminated.
 287              	.LVL32:
 288              	.LVL33:
 361:lib/STM32F10x_StdPeriph_Driver/src/stm32f10x_adc.c ****   uint8_t itmask = 0;
 362:lib/STM32F10x_StdPeriph_Driver/src/stm32f10x_adc.c ****   /* Check the parameters */
 363:lib/STM32F10x_StdPeriph_Driver/src/stm32f10x_adc.c ****   assert_param(IS_ADC_ALL_PERIPH(ADCx));
 364:lib/STM32F10x_StdPeriph_Driver/src/stm32f10x_adc.c ****   assert_param(IS_FUNCTIONAL_STATE(NewState));
 365:lib/STM32F10x_StdPeriph_Driver/src/stm32f10x_adc.c ****   assert_param(IS_ADC_IT(ADC_IT));
 366:lib/STM32F10x_StdPeriph_Driver/src/stm32f10x_adc.c ****   /* Get the ADC IT index */
 367:lib/STM32F10x_StdPeriph_Driver/src/stm32f10x_adc.c ****   itmask = (uint8_t)ADC_IT;
 289              		.loc 1 367 0
 290 0000 C9B2     		uxtb	r1, r1
 291              	.LVL34:
 368:lib/STM32F10x_StdPeriph_Driver/src/stm32f10x_adc.c ****   if (NewState != DISABLE)
 369:lib/STM32F10x_StdPeriph_Driver/src/stm32f10x_adc.c ****   {
 370:lib/STM32F10x_StdPeriph_Driver/src/stm32f10x_adc.c ****     /* Enable the selected ADC interrupts */
 371:lib/STM32F10x_StdPeriph_Driver/src/stm32f10x_adc.c ****     ADCx->CR1 |= itmask;
 292              		.loc 1 371 0
 293 0002 4368     		ldr	r3, [r0, #4]
 368:lib/STM32F10x_StdPeriph_Driver/src/stm32f10x_adc.c ****   if (NewState != DISABLE)
 294              		.loc 1 368 0
 295 0004 0AB1     		cbz	r2, .L22
 296              		.loc 1 371 0
 297 0006 1943     		orrs	r1, r1, r3
 298              	.LVL35:
 299 0008 01E0     		b	.L24
 300              	.L22:
 372:lib/STM32F10x_StdPeriph_Driver/src/stm32f10x_adc.c ****   }
 373:lib/STM32F10x_StdPeriph_Driver/src/stm32f10x_adc.c ****   else
 374:lib/STM32F10x_StdPeriph_Driver/src/stm32f10x_adc.c ****   {
 375:lib/STM32F10x_StdPeriph_Driver/src/stm32f10x_adc.c ****     /* Disable the selected ADC interrupts */
 376:lib/STM32F10x_StdPeriph_Driver/src/stm32f10x_adc.c ****     ADCx->CR1 &= (~(uint32_t)itmask);
 301              		.loc 1 376 0
 302 000a 23EA0101 		bic	r1, r3, r1
 303              	.L24:
 304 000e 4160     		str	r1, [r0, #4]
 305 0010 7047     		bx	lr
 306              		.cfi_endproc
 307              	.LFE61:
 309              		.section	.text.ADC_ResetCalibration,"ax",%progbits
 310              		.align	1
 311              		.global	ADC_ResetCalibration
 312              		.thumb
 313              		.thumb_func
 315              	ADC_ResetCalibration:
 316              	.LFB62:
 377:lib/STM32F10x_StdPeriph_Driver/src/stm32f10x_adc.c ****   }
 378:lib/STM32F10x_StdPeriph_Driver/src/stm32f10x_adc.c **** }
 379:lib/STM32F10x_StdPeriph_Driver/src/stm32f10x_adc.c **** 
 380:lib/STM32F10x_StdPeriph_Driver/src/stm32f10x_adc.c **** /**
 381:lib/STM32F10x_StdPeriph_Driver/src/stm32f10x_adc.c ****   * @brief  Resets the selected ADC calibration registers.
 382:lib/STM32F10x_StdPeriph_Driver/src/stm32f10x_adc.c ****   * @param  ADCx: where x can be 1, 2 or 3 to select the ADC peripheral.
 383:lib/STM32F10x_StdPeriph_Driver/src/stm32f10x_adc.c ****   * @retval None
 384:lib/STM32F10x_StdPeriph_Driver/src/stm32f10x_adc.c ****   */
 385:lib/STM32F10x_StdPeriph_Driver/src/stm32f10x_adc.c **** void ADC_ResetCalibration(ADC_TypeDef* ADCx)
 386:lib/STM32F10x_StdPeriph_Driver/src/stm32f10x_adc.c **** {
 317              		.loc 1 386 0
 318              		.cfi_startproc
 319              		@ args = 0, pretend = 0, frame = 0
 320              		@ frame_needed = 0, uses_anonymous_args = 0
 321              		@ link register save eliminated.
 322              	.LVL36:
 387:lib/STM32F10x_StdPeriph_Driver/src/stm32f10x_adc.c ****   /* Check the parameters */
 388:lib/STM32F10x_StdPeriph_Driver/src/stm32f10x_adc.c ****   assert_param(IS_ADC_ALL_PERIPH(ADCx));
 389:lib/STM32F10x_StdPeriph_Driver/src/stm32f10x_adc.c ****   /* Resets the selected ADC calibration registers */  
 390:lib/STM32F10x_StdPeriph_Driver/src/stm32f10x_adc.c ****   ADCx->CR2 |= CR2_RSTCAL_Set;
 323              		.loc 1 390 0
 324 0000 8368     		ldr	r3, [r0, #8]
 325 0002 43F00801 		orr	r1, r3, #8
 326 0006 8160     		str	r1, [r0, #8]
 327 0008 7047     		bx	lr
 328              		.cfi_endproc
 329              	.LFE62:
 331              		.section	.text.ADC_GetResetCalibrationStatus,"ax",%progbits
 332              		.align	1
 333              		.global	ADC_GetResetCalibrationStatus
 334              		.thumb
 335              		.thumb_func
 337              	ADC_GetResetCalibrationStatus:
 338              	.LFB63:
 391:lib/STM32F10x_StdPeriph_Driver/src/stm32f10x_adc.c **** }
 392:lib/STM32F10x_StdPeriph_Driver/src/stm32f10x_adc.c **** 
 393:lib/STM32F10x_StdPeriph_Driver/src/stm32f10x_adc.c **** /**
 394:lib/STM32F10x_StdPeriph_Driver/src/stm32f10x_adc.c ****   * @brief  Gets the selected ADC reset calibration registers status.
 395:lib/STM32F10x_StdPeriph_Driver/src/stm32f10x_adc.c ****   * @param  ADCx: where x can be 1, 2 or 3 to select the ADC peripheral.
 396:lib/STM32F10x_StdPeriph_Driver/src/stm32f10x_adc.c ****   * @retval The new state of ADC reset calibration registers (SET or RESET).
 397:lib/STM32F10x_StdPeriph_Driver/src/stm32f10x_adc.c ****   */
 398:lib/STM32F10x_StdPeriph_Driver/src/stm32f10x_adc.c **** FlagStatus ADC_GetResetCalibrationStatus(ADC_TypeDef* ADCx)
 399:lib/STM32F10x_StdPeriph_Driver/src/stm32f10x_adc.c **** {
 339              		.loc 1 399 0
 340              		.cfi_startproc
 341              		@ args = 0, pretend = 0, frame = 0
 342              		@ frame_needed = 0, uses_anonymous_args = 0
 343              		@ link register save eliminated.
 344              	.LVL37:
 345              	.LVL38:
 400:lib/STM32F10x_StdPeriph_Driver/src/stm32f10x_adc.c ****   FlagStatus bitstatus = RESET;
 401:lib/STM32F10x_StdPeriph_Driver/src/stm32f10x_adc.c ****   /* Check the parameters */
 402:lib/STM32F10x_StdPeriph_Driver/src/stm32f10x_adc.c ****   assert_param(IS_ADC_ALL_PERIPH(ADCx));
 403:lib/STM32F10x_StdPeriph_Driver/src/stm32f10x_adc.c ****   /* Check the status of RSTCAL bit */
 404:lib/STM32F10x_StdPeriph_Driver/src/stm32f10x_adc.c ****   if ((ADCx->CR2 & CR2_RSTCAL_Set) != (uint32_t)RESET)
 346              		.loc 1 404 0
 347 0000 8068     		ldr	r0, [r0, #8]
 348              	.LVL39:
 405:lib/STM32F10x_StdPeriph_Driver/src/stm32f10x_adc.c ****   {
 406:lib/STM32F10x_StdPeriph_Driver/src/stm32f10x_adc.c ****     /* RSTCAL bit is set */
 407:lib/STM32F10x_StdPeriph_Driver/src/stm32f10x_adc.c ****     bitstatus = SET;
 408:lib/STM32F10x_StdPeriph_Driver/src/stm32f10x_adc.c ****   }
 409:lib/STM32F10x_StdPeriph_Driver/src/stm32f10x_adc.c ****   else
 410:lib/STM32F10x_StdPeriph_Driver/src/stm32f10x_adc.c ****   {
 411:lib/STM32F10x_StdPeriph_Driver/src/stm32f10x_adc.c ****     /* RSTCAL bit is reset */
 412:lib/STM32F10x_StdPeriph_Driver/src/stm32f10x_adc.c ****     bitstatus = RESET;
 413:lib/STM32F10x_StdPeriph_Driver/src/stm32f10x_adc.c ****   }
 414:lib/STM32F10x_StdPeriph_Driver/src/stm32f10x_adc.c ****   /* Return the RSTCAL bit status */
 415:lib/STM32F10x_StdPeriph_Driver/src/stm32f10x_adc.c ****   return  bitstatus;
 416:lib/STM32F10x_StdPeriph_Driver/src/stm32f10x_adc.c **** }
 349              		.loc 1 416 0
 350 0002 C0F3C000 		ubfx	r0, r0, #3, #1
 351              	.LVL40:
 352 0006 7047     		bx	lr
 353              		.cfi_endproc
 354              	.LFE63:
 356              		.section	.text.ADC_StartCalibration,"ax",%progbits
 357              		.align	1
 358              		.global	ADC_StartCalibration
 359              		.thumb
 360              		.thumb_func
 362              	ADC_StartCalibration:
 363              	.LFB64:
 417:lib/STM32F10x_StdPeriph_Driver/src/stm32f10x_adc.c **** 
 418:lib/STM32F10x_StdPeriph_Driver/src/stm32f10x_adc.c **** /**
 419:lib/STM32F10x_StdPeriph_Driver/src/stm32f10x_adc.c ****   * @brief  Starts the selected ADC calibration process.
 420:lib/STM32F10x_StdPeriph_Driver/src/stm32f10x_adc.c ****   * @param  ADCx: where x can be 1, 2 or 3 to select the ADC peripheral.
 421:lib/STM32F10x_StdPeriph_Driver/src/stm32f10x_adc.c ****   * @retval None
 422:lib/STM32F10x_StdPeriph_Driver/src/stm32f10x_adc.c ****   */
 423:lib/STM32F10x_StdPeriph_Driver/src/stm32f10x_adc.c **** void ADC_StartCalibration(ADC_TypeDef* ADCx)
 424:lib/STM32F10x_StdPeriph_Driver/src/stm32f10x_adc.c **** {
 364              		.loc 1 424 0
 365              		.cfi_startproc
 366              		@ args = 0, pretend = 0, frame = 0
 367              		@ frame_needed = 0, uses_anonymous_args = 0
 368              		@ link register save eliminated.
 369              	.LVL41:
 425:lib/STM32F10x_StdPeriph_Driver/src/stm32f10x_adc.c ****   /* Check the parameters */
 426:lib/STM32F10x_StdPeriph_Driver/src/stm32f10x_adc.c ****   assert_param(IS_ADC_ALL_PERIPH(ADCx));
 427:lib/STM32F10x_StdPeriph_Driver/src/stm32f10x_adc.c ****   /* Enable the selected ADC calibration process */  
 428:lib/STM32F10x_StdPeriph_Driver/src/stm32f10x_adc.c ****   ADCx->CR2 |= CR2_CAL_Set;
 370              		.loc 1 428 0
 371 0000 8368     		ldr	r3, [r0, #8]
 372 0002 43F00401 		orr	r1, r3, #4
 373 0006 8160     		str	r1, [r0, #8]
 374 0008 7047     		bx	lr
 375              		.cfi_endproc
 376              	.LFE64:
 378              		.section	.text.ADC_GetCalibrationStatus,"ax",%progbits
 379              		.align	1
 380              		.global	ADC_GetCalibrationStatus
 381              		.thumb
 382              		.thumb_func
 384              	ADC_GetCalibrationStatus:
 385              	.LFB65:
 429:lib/STM32F10x_StdPeriph_Driver/src/stm32f10x_adc.c **** }
 430:lib/STM32F10x_StdPeriph_Driver/src/stm32f10x_adc.c **** 
 431:lib/STM32F10x_StdPeriph_Driver/src/stm32f10x_adc.c **** /**
 432:lib/STM32F10x_StdPeriph_Driver/src/stm32f10x_adc.c ****   * @brief  Gets the selected ADC calibration status.
 433:lib/STM32F10x_StdPeriph_Driver/src/stm32f10x_adc.c ****   * @param  ADCx: where x can be 1, 2 or 3 to select the ADC peripheral.
 434:lib/STM32F10x_StdPeriph_Driver/src/stm32f10x_adc.c ****   * @retval The new state of ADC calibration (SET or RESET).
 435:lib/STM32F10x_StdPeriph_Driver/src/stm32f10x_adc.c ****   */
 436:lib/STM32F10x_StdPeriph_Driver/src/stm32f10x_adc.c **** FlagStatus ADC_GetCalibrationStatus(ADC_TypeDef* ADCx)
 437:lib/STM32F10x_StdPeriph_Driver/src/stm32f10x_adc.c **** {
 386              		.loc 1 437 0
 387              		.cfi_startproc
 388              		@ args = 0, pretend = 0, frame = 0
 389              		@ frame_needed = 0, uses_anonymous_args = 0
 390              		@ link register save eliminated.
 391              	.LVL42:
 392              	.LVL43:
 438:lib/STM32F10x_StdPeriph_Driver/src/stm32f10x_adc.c ****   FlagStatus bitstatus = RESET;
 439:lib/STM32F10x_StdPeriph_Driver/src/stm32f10x_adc.c ****   /* Check the parameters */
 440:lib/STM32F10x_StdPeriph_Driver/src/stm32f10x_adc.c ****   assert_param(IS_ADC_ALL_PERIPH(ADCx));
 441:lib/STM32F10x_StdPeriph_Driver/src/stm32f10x_adc.c ****   /* Check the status of CAL bit */
 442:lib/STM32F10x_StdPeriph_Driver/src/stm32f10x_adc.c ****   if ((ADCx->CR2 & CR2_CAL_Set) != (uint32_t)RESET)
 393              		.loc 1 442 0
 394 0000 8068     		ldr	r0, [r0, #8]
 395              	.LVL44:
 443:lib/STM32F10x_StdPeriph_Driver/src/stm32f10x_adc.c ****   {
 444:lib/STM32F10x_StdPeriph_Driver/src/stm32f10x_adc.c ****     /* CAL bit is set: calibration on going */
 445:lib/STM32F10x_StdPeriph_Driver/src/stm32f10x_adc.c ****     bitstatus = SET;
 446:lib/STM32F10x_StdPeriph_Driver/src/stm32f10x_adc.c ****   }
 447:lib/STM32F10x_StdPeriph_Driver/src/stm32f10x_adc.c ****   else
 448:lib/STM32F10x_StdPeriph_Driver/src/stm32f10x_adc.c ****   {
 449:lib/STM32F10x_StdPeriph_Driver/src/stm32f10x_adc.c ****     /* CAL bit is reset: end of calibration */
 450:lib/STM32F10x_StdPeriph_Driver/src/stm32f10x_adc.c ****     bitstatus = RESET;
 451:lib/STM32F10x_StdPeriph_Driver/src/stm32f10x_adc.c ****   }
 452:lib/STM32F10x_StdPeriph_Driver/src/stm32f10x_adc.c ****   /* Return the CAL bit status */
 453:lib/STM32F10x_StdPeriph_Driver/src/stm32f10x_adc.c ****   return  bitstatus;
 454:lib/STM32F10x_StdPeriph_Driver/src/stm32f10x_adc.c **** }
 396              		.loc 1 454 0
 397 0002 C0F38000 		ubfx	r0, r0, #2, #1
 398              	.LVL45:
 399 0006 7047     		bx	lr
 400              		.cfi_endproc
 401              	.LFE65:
 403              		.section	.text.ADC_SoftwareStartConvCmd,"ax",%progbits
 404              		.align	1
 405              		.global	ADC_SoftwareStartConvCmd
 406              		.thumb
 407              		.thumb_func
 409              	ADC_SoftwareStartConvCmd:
 410              	.LFB66:
 455:lib/STM32F10x_StdPeriph_Driver/src/stm32f10x_adc.c **** 
 456:lib/STM32F10x_StdPeriph_Driver/src/stm32f10x_adc.c **** /**
 457:lib/STM32F10x_StdPeriph_Driver/src/stm32f10x_adc.c ****   * @brief  Enables or disables the selected ADC software start conversion .
 458:lib/STM32F10x_StdPeriph_Driver/src/stm32f10x_adc.c ****   * @param  ADCx: where x can be 1, 2 or 3 to select the ADC peripheral.
 459:lib/STM32F10x_StdPeriph_Driver/src/stm32f10x_adc.c ****   * @param  NewState: new state of the selected ADC software start conversion.
 460:lib/STM32F10x_StdPeriph_Driver/src/stm32f10x_adc.c ****   *   This parameter can be: ENABLE or DISABLE.
 461:lib/STM32F10x_StdPeriph_Driver/src/stm32f10x_adc.c ****   * @retval None
 462:lib/STM32F10x_StdPeriph_Driver/src/stm32f10x_adc.c ****   */
 463:lib/STM32F10x_StdPeriph_Driver/src/stm32f10x_adc.c **** void ADC_SoftwareStartConvCmd(ADC_TypeDef* ADCx, FunctionalState NewState)
 464:lib/STM32F10x_StdPeriph_Driver/src/stm32f10x_adc.c **** {
 411              		.loc 1 464 0
 412              		.cfi_startproc
 413              		@ args = 0, pretend = 0, frame = 0
 414              		@ frame_needed = 0, uses_anonymous_args = 0
 415              		@ link register save eliminated.
 416              	.LVL46:
 465:lib/STM32F10x_StdPeriph_Driver/src/stm32f10x_adc.c ****   /* Check the parameters */
 466:lib/STM32F10x_StdPeriph_Driver/src/stm32f10x_adc.c ****   assert_param(IS_ADC_ALL_PERIPH(ADCx));
 467:lib/STM32F10x_StdPeriph_Driver/src/stm32f10x_adc.c ****   assert_param(IS_FUNCTIONAL_STATE(NewState));
 468:lib/STM32F10x_StdPeriph_Driver/src/stm32f10x_adc.c ****   if (NewState != DISABLE)
 469:lib/STM32F10x_StdPeriph_Driver/src/stm32f10x_adc.c ****   {
 470:lib/STM32F10x_StdPeriph_Driver/src/stm32f10x_adc.c ****     /* Enable the selected ADC conversion on external event and start the selected
 471:lib/STM32F10x_StdPeriph_Driver/src/stm32f10x_adc.c ****        ADC conversion */
 472:lib/STM32F10x_StdPeriph_Driver/src/stm32f10x_adc.c ****     ADCx->CR2 |= CR2_EXTTRIG_SWSTART_Set;
 417              		.loc 1 472 0
 418 0000 8368     		ldr	r3, [r0, #8]
 468:lib/STM32F10x_StdPeriph_Driver/src/stm32f10x_adc.c ****   if (NewState != DISABLE)
 419              		.loc 1 468 0
 420 0002 11B1     		cbz	r1, .L30
 421              		.loc 1 472 0
 422 0004 43F4A001 		orr	r1, r3, #5242880
 423              	.LVL47:
 424 0008 01E0     		b	.L32
 425              	.LVL48:
 426              	.L30:
 473:lib/STM32F10x_StdPeriph_Driver/src/stm32f10x_adc.c ****   }
 474:lib/STM32F10x_StdPeriph_Driver/src/stm32f10x_adc.c ****   else
 475:lib/STM32F10x_StdPeriph_Driver/src/stm32f10x_adc.c ****   {
 476:lib/STM32F10x_StdPeriph_Driver/src/stm32f10x_adc.c ****     /* Disable the selected ADC conversion on external event and stop the selected
 477:lib/STM32F10x_StdPeriph_Driver/src/stm32f10x_adc.c ****        ADC conversion */
 478:lib/STM32F10x_StdPeriph_Driver/src/stm32f10x_adc.c ****     ADCx->CR2 &= CR2_EXTTRIG_SWSTART_Reset;
 427              		.loc 1 478 0
 428 000a 23F4A001 		bic	r1, r3, #5242880
 429              	.LVL49:
 430              	.L32:
 431 000e 8160     		str	r1, [r0, #8]
 432 0010 7047     		bx	lr
 433              		.cfi_endproc
 434              	.LFE66:
 436              		.section	.text.ADC_GetSoftwareStartConvStatus,"ax",%progbits
 437              		.align	1
 438              		.global	ADC_GetSoftwareStartConvStatus
 439              		.thumb
 440              		.thumb_func
 442              	ADC_GetSoftwareStartConvStatus:
 443              	.LFB67:
 479:lib/STM32F10x_StdPeriph_Driver/src/stm32f10x_adc.c ****   }
 480:lib/STM32F10x_StdPeriph_Driver/src/stm32f10x_adc.c **** }
 481:lib/STM32F10x_StdPeriph_Driver/src/stm32f10x_adc.c **** 
 482:lib/STM32F10x_StdPeriph_Driver/src/stm32f10x_adc.c **** /**
 483:lib/STM32F10x_StdPeriph_Driver/src/stm32f10x_adc.c ****   * @brief  Gets the selected ADC Software start conversion Status.
 484:lib/STM32F10x_StdPeriph_Driver/src/stm32f10x_adc.c ****   * @param  ADCx: where x can be 1, 2 or 3 to select the ADC peripheral.
 485:lib/STM32F10x_StdPeriph_Driver/src/stm32f10x_adc.c ****   * @retval The new state of ADC software start conversion (SET or RESET).
 486:lib/STM32F10x_StdPeriph_Driver/src/stm32f10x_adc.c ****   */
 487:lib/STM32F10x_StdPeriph_Driver/src/stm32f10x_adc.c **** FlagStatus ADC_GetSoftwareStartConvStatus(ADC_TypeDef* ADCx)
 488:lib/STM32F10x_StdPeriph_Driver/src/stm32f10x_adc.c **** {
 444              		.loc 1 488 0
 445              		.cfi_startproc
 446              		@ args = 0, pretend = 0, frame = 0
 447              		@ frame_needed = 0, uses_anonymous_args = 0
 448              		@ link register save eliminated.
 449              	.LVL50:
 450              	.LVL51:
 489:lib/STM32F10x_StdPeriph_Driver/src/stm32f10x_adc.c ****   FlagStatus bitstatus = RESET;
 490:lib/STM32F10x_StdPeriph_Driver/src/stm32f10x_adc.c ****   /* Check the parameters */
 491:lib/STM32F10x_StdPeriph_Driver/src/stm32f10x_adc.c ****   assert_param(IS_ADC_ALL_PERIPH(ADCx));
 492:lib/STM32F10x_StdPeriph_Driver/src/stm32f10x_adc.c ****   /* Check the status of SWSTART bit */
 493:lib/STM32F10x_StdPeriph_Driver/src/stm32f10x_adc.c ****   if ((ADCx->CR2 & CR2_SWSTART_Set) != (uint32_t)RESET)
 451              		.loc 1 493 0
 452 0000 8068     		ldr	r0, [r0, #8]
 453              	.LVL52:
 494:lib/STM32F10x_StdPeriph_Driver/src/stm32f10x_adc.c ****   {
 495:lib/STM32F10x_StdPeriph_Driver/src/stm32f10x_adc.c ****     /* SWSTART bit is set */
 496:lib/STM32F10x_StdPeriph_Driver/src/stm32f10x_adc.c ****     bitstatus = SET;
 497:lib/STM32F10x_StdPeriph_Driver/src/stm32f10x_adc.c ****   }
 498:lib/STM32F10x_StdPeriph_Driver/src/stm32f10x_adc.c ****   else
 499:lib/STM32F10x_StdPeriph_Driver/src/stm32f10x_adc.c ****   {
 500:lib/STM32F10x_StdPeriph_Driver/src/stm32f10x_adc.c ****     /* SWSTART bit is reset */
 501:lib/STM32F10x_StdPeriph_Driver/src/stm32f10x_adc.c ****     bitstatus = RESET;
 502:lib/STM32F10x_StdPeriph_Driver/src/stm32f10x_adc.c ****   }
 503:lib/STM32F10x_StdPeriph_Driver/src/stm32f10x_adc.c ****   /* Return the SWSTART bit status */
 504:lib/STM32F10x_StdPeriph_Driver/src/stm32f10x_adc.c ****   return  bitstatus;
 505:lib/STM32F10x_StdPeriph_Driver/src/stm32f10x_adc.c **** }
 454              		.loc 1 505 0
 455 0002 C0F38050 		ubfx	r0, r0, #22, #1
 456              	.LVL53:
 457 0006 7047     		bx	lr
 458              		.cfi_endproc
 459              	.LFE67:
 461              		.section	.text.ADC_DiscModeChannelCountConfig,"ax",%progbits
 462              		.align	1
 463              		.global	ADC_DiscModeChannelCountConfig
 464              		.thumb
 465              		.thumb_func
 467              	ADC_DiscModeChannelCountConfig:
 468              	.LFB68:
 506:lib/STM32F10x_StdPeriph_Driver/src/stm32f10x_adc.c **** 
 507:lib/STM32F10x_StdPeriph_Driver/src/stm32f10x_adc.c **** /**
 508:lib/STM32F10x_StdPeriph_Driver/src/stm32f10x_adc.c ****   * @brief  Configures the discontinuous mode for the selected ADC regular
 509:lib/STM32F10x_StdPeriph_Driver/src/stm32f10x_adc.c ****   *         group channel.
 510:lib/STM32F10x_StdPeriph_Driver/src/stm32f10x_adc.c ****   * @param  ADCx: where x can be 1, 2 or 3 to select the ADC peripheral.
 511:lib/STM32F10x_StdPeriph_Driver/src/stm32f10x_adc.c ****   * @param  Number: specifies the discontinuous mode regular channel
 512:lib/STM32F10x_StdPeriph_Driver/src/stm32f10x_adc.c ****   *         count value. This number must be between 1 and 8.
 513:lib/STM32F10x_StdPeriph_Driver/src/stm32f10x_adc.c ****   * @retval None
 514:lib/STM32F10x_StdPeriph_Driver/src/stm32f10x_adc.c ****   */
 515:lib/STM32F10x_StdPeriph_Driver/src/stm32f10x_adc.c **** void ADC_DiscModeChannelCountConfig(ADC_TypeDef* ADCx, uint8_t Number)
 516:lib/STM32F10x_StdPeriph_Driver/src/stm32f10x_adc.c **** {
 469              		.loc 1 516 0
 470              		.cfi_startproc
 471              		@ args = 0, pretend = 0, frame = 0
 472              		@ frame_needed = 0, uses_anonymous_args = 0
 473              		@ link register save eliminated.
 474              	.LVL54:
 475              	.LVL55:
 517:lib/STM32F10x_StdPeriph_Driver/src/stm32f10x_adc.c ****   uint32_t tmpreg1 = 0;
 518:lib/STM32F10x_StdPeriph_Driver/src/stm32f10x_adc.c ****   uint32_t tmpreg2 = 0;
 519:lib/STM32F10x_StdPeriph_Driver/src/stm32f10x_adc.c ****   /* Check the parameters */
 520:lib/STM32F10x_StdPeriph_Driver/src/stm32f10x_adc.c ****   assert_param(IS_ADC_ALL_PERIPH(ADCx));
 521:lib/STM32F10x_StdPeriph_Driver/src/stm32f10x_adc.c ****   assert_param(IS_ADC_REGULAR_DISC_NUMBER(Number));
 522:lib/STM32F10x_StdPeriph_Driver/src/stm32f10x_adc.c ****   /* Get the old register value */
 523:lib/STM32F10x_StdPeriph_Driver/src/stm32f10x_adc.c ****   tmpreg1 = ADCx->CR1;
 476              		.loc 1 523 0
 477 0000 4368     		ldr	r3, [r0, #4]
 478              	.LVL56:
 524:lib/STM32F10x_StdPeriph_Driver/src/stm32f10x_adc.c ****   /* Clear the old discontinuous mode channel count */
 525:lib/STM32F10x_StdPeriph_Driver/src/stm32f10x_adc.c ****   tmpreg1 &= CR1_DISCNUM_Reset;
 479              		.loc 1 525 0
 480 0002 23F46042 		bic	r2, r3, #57344
 481              	.LVL57:
 526:lib/STM32F10x_StdPeriph_Driver/src/stm32f10x_adc.c ****   /* Set the discontinuous mode channel count */
 527:lib/STM32F10x_StdPeriph_Driver/src/stm32f10x_adc.c ****   tmpreg2 = Number - 1;
 482              		.loc 1 527 0
 483 0006 0139     		subs	r1, r1, #1
 484              	.LVL58:
 528:lib/STM32F10x_StdPeriph_Driver/src/stm32f10x_adc.c ****   tmpreg1 |= tmpreg2 << 13;
 485              		.loc 1 528 0
 486 0008 42EA4133 		orr	r3, r2, r1, lsl #13
 487              	.LVL59:
 529:lib/STM32F10x_StdPeriph_Driver/src/stm32f10x_adc.c ****   /* Store the new register value */
 530:lib/STM32F10x_StdPeriph_Driver/src/stm32f10x_adc.c ****   ADCx->CR1 = tmpreg1;
 488              		.loc 1 530 0
 489 000c 4360     		str	r3, [r0, #4]
 490 000e 7047     		bx	lr
 491              		.cfi_endproc
 492              	.LFE68:
 494              		.section	.text.ADC_DiscModeCmd,"ax",%progbits
 495              		.align	1
 496              		.global	ADC_DiscModeCmd
 497              		.thumb
 498              		.thumb_func
 500              	ADC_DiscModeCmd:
 501              	.LFB69:
 531:lib/STM32F10x_StdPeriph_Driver/src/stm32f10x_adc.c **** }
 532:lib/STM32F10x_StdPeriph_Driver/src/stm32f10x_adc.c **** 
 533:lib/STM32F10x_StdPeriph_Driver/src/stm32f10x_adc.c **** /**
 534:lib/STM32F10x_StdPeriph_Driver/src/stm32f10x_adc.c ****   * @brief  Enables or disables the discontinuous mode on regular group
 535:lib/STM32F10x_StdPeriph_Driver/src/stm32f10x_adc.c ****   *         channel for the specified ADC
 536:lib/STM32F10x_StdPeriph_Driver/src/stm32f10x_adc.c ****   * @param  ADCx: where x can be 1, 2 or 3 to select the ADC peripheral.
 537:lib/STM32F10x_StdPeriph_Driver/src/stm32f10x_adc.c ****   * @param  NewState: new state of the selected ADC discontinuous mode
 538:lib/STM32F10x_StdPeriph_Driver/src/stm32f10x_adc.c ****   *         on regular group channel.
 539:lib/STM32F10x_StdPeriph_Driver/src/stm32f10x_adc.c ****   *         This parameter can be: ENABLE or DISABLE.
 540:lib/STM32F10x_StdPeriph_Driver/src/stm32f10x_adc.c ****   * @retval None
 541:lib/STM32F10x_StdPeriph_Driver/src/stm32f10x_adc.c ****   */
 542:lib/STM32F10x_StdPeriph_Driver/src/stm32f10x_adc.c **** void ADC_DiscModeCmd(ADC_TypeDef* ADCx, FunctionalState NewState)
 543:lib/STM32F10x_StdPeriph_Driver/src/stm32f10x_adc.c **** {
 502              		.loc 1 543 0
 503              		.cfi_startproc
 504              		@ args = 0, pretend = 0, frame = 0
 505              		@ frame_needed = 0, uses_anonymous_args = 0
 506              		@ link register save eliminated.
 507              	.LVL60:
 544:lib/STM32F10x_StdPeriph_Driver/src/stm32f10x_adc.c ****   /* Check the parameters */
 545:lib/STM32F10x_StdPeriph_Driver/src/stm32f10x_adc.c ****   assert_param(IS_ADC_ALL_PERIPH(ADCx));
 546:lib/STM32F10x_StdPeriph_Driver/src/stm32f10x_adc.c ****   assert_param(IS_FUNCTIONAL_STATE(NewState));
 547:lib/STM32F10x_StdPeriph_Driver/src/stm32f10x_adc.c ****   if (NewState != DISABLE)
 548:lib/STM32F10x_StdPeriph_Driver/src/stm32f10x_adc.c ****   {
 549:lib/STM32F10x_StdPeriph_Driver/src/stm32f10x_adc.c ****     /* Enable the selected ADC regular discontinuous mode */
 550:lib/STM32F10x_StdPeriph_Driver/src/stm32f10x_adc.c ****     ADCx->CR1 |= CR1_DISCEN_Set;
 508              		.loc 1 550 0
 509 0000 4368     		ldr	r3, [r0, #4]
 547:lib/STM32F10x_StdPeriph_Driver/src/stm32f10x_adc.c ****   if (NewState != DISABLE)
 510              		.loc 1 547 0
 511 0002 11B1     		cbz	r1, .L36
 512              		.loc 1 550 0
 513 0004 43F40061 		orr	r1, r3, #2048
 514              	.LVL61:
 515 0008 01E0     		b	.L38
 516              	.LVL62:
 517              	.L36:
 551:lib/STM32F10x_StdPeriph_Driver/src/stm32f10x_adc.c ****   }
 552:lib/STM32F10x_StdPeriph_Driver/src/stm32f10x_adc.c ****   else
 553:lib/STM32F10x_StdPeriph_Driver/src/stm32f10x_adc.c ****   {
 554:lib/STM32F10x_StdPeriph_Driver/src/stm32f10x_adc.c ****     /* Disable the selected ADC regular discontinuous mode */
 555:lib/STM32F10x_StdPeriph_Driver/src/stm32f10x_adc.c ****     ADCx->CR1 &= CR1_DISCEN_Reset;
 518              		.loc 1 555 0
 519 000a 23F40061 		bic	r1, r3, #2048
 520              	.LVL63:
 521              	.L38:
 522 000e 4160     		str	r1, [r0, #4]
 523 0010 7047     		bx	lr
 524              		.cfi_endproc
 525              	.LFE69:
 527              		.section	.text.ADC_RegularChannelConfig,"ax",%progbits
 528              		.align	1
 529              		.global	ADC_RegularChannelConfig
 530              		.thumb
 531              		.thumb_func
 533              	ADC_RegularChannelConfig:
 534              	.LFB70:
 556:lib/STM32F10x_StdPeriph_Driver/src/stm32f10x_adc.c ****   }
 557:lib/STM32F10x_StdPeriph_Driver/src/stm32f10x_adc.c **** }
 558:lib/STM32F10x_StdPeriph_Driver/src/stm32f10x_adc.c **** 
 559:lib/STM32F10x_StdPeriph_Driver/src/stm32f10x_adc.c **** /**
 560:lib/STM32F10x_StdPeriph_Driver/src/stm32f10x_adc.c ****   * @brief  Configures for the selected ADC regular channel its corresponding
 561:lib/STM32F10x_StdPeriph_Driver/src/stm32f10x_adc.c ****   *         rank in the sequencer and its sample time.
 562:lib/STM32F10x_StdPeriph_Driver/src/stm32f10x_adc.c ****   * @param  ADCx: where x can be 1, 2 or 3 to select the ADC peripheral.
 563:lib/STM32F10x_StdPeriph_Driver/src/stm32f10x_adc.c ****   * @param  ADC_Channel: the ADC channel to configure. 
 564:lib/STM32F10x_StdPeriph_Driver/src/stm32f10x_adc.c ****   *   This parameter can be one of the following values:
 565:lib/STM32F10x_StdPeriph_Driver/src/stm32f10x_adc.c ****   *     @arg ADC_Channel_0: ADC Channel0 selected
 566:lib/STM32F10x_StdPeriph_Driver/src/stm32f10x_adc.c ****   *     @arg ADC_Channel_1: ADC Channel1 selected
 567:lib/STM32F10x_StdPeriph_Driver/src/stm32f10x_adc.c ****   *     @arg ADC_Channel_2: ADC Channel2 selected
 568:lib/STM32F10x_StdPeriph_Driver/src/stm32f10x_adc.c ****   *     @arg ADC_Channel_3: ADC Channel3 selected
 569:lib/STM32F10x_StdPeriph_Driver/src/stm32f10x_adc.c ****   *     @arg ADC_Channel_4: ADC Channel4 selected
 570:lib/STM32F10x_StdPeriph_Driver/src/stm32f10x_adc.c ****   *     @arg ADC_Channel_5: ADC Channel5 selected
 571:lib/STM32F10x_StdPeriph_Driver/src/stm32f10x_adc.c ****   *     @arg ADC_Channel_6: ADC Channel6 selected
 572:lib/STM32F10x_StdPeriph_Driver/src/stm32f10x_adc.c ****   *     @arg ADC_Channel_7: ADC Channel7 selected
 573:lib/STM32F10x_StdPeriph_Driver/src/stm32f10x_adc.c ****   *     @arg ADC_Channel_8: ADC Channel8 selected
 574:lib/STM32F10x_StdPeriph_Driver/src/stm32f10x_adc.c ****   *     @arg ADC_Channel_9: ADC Channel9 selected
 575:lib/STM32F10x_StdPeriph_Driver/src/stm32f10x_adc.c ****   *     @arg ADC_Channel_10: ADC Channel10 selected
 576:lib/STM32F10x_StdPeriph_Driver/src/stm32f10x_adc.c ****   *     @arg ADC_Channel_11: ADC Channel11 selected
 577:lib/STM32F10x_StdPeriph_Driver/src/stm32f10x_adc.c ****   *     @arg ADC_Channel_12: ADC Channel12 selected
 578:lib/STM32F10x_StdPeriph_Driver/src/stm32f10x_adc.c ****   *     @arg ADC_Channel_13: ADC Channel13 selected
 579:lib/STM32F10x_StdPeriph_Driver/src/stm32f10x_adc.c ****   *     @arg ADC_Channel_14: ADC Channel14 selected
 580:lib/STM32F10x_StdPeriph_Driver/src/stm32f10x_adc.c ****   *     @arg ADC_Channel_15: ADC Channel15 selected
 581:lib/STM32F10x_StdPeriph_Driver/src/stm32f10x_adc.c ****   *     @arg ADC_Channel_16: ADC Channel16 selected
 582:lib/STM32F10x_StdPeriph_Driver/src/stm32f10x_adc.c ****   *     @arg ADC_Channel_17: ADC Channel17 selected
 583:lib/STM32F10x_StdPeriph_Driver/src/stm32f10x_adc.c ****   * @param  Rank: The rank in the regular group sequencer. This parameter must be between 1 to 16.
 584:lib/STM32F10x_StdPeriph_Driver/src/stm32f10x_adc.c ****   * @param  ADC_SampleTime: The sample time value to be set for the selected channel. 
 585:lib/STM32F10x_StdPeriph_Driver/src/stm32f10x_adc.c ****   *   This parameter can be one of the following values:
 586:lib/STM32F10x_StdPeriph_Driver/src/stm32f10x_adc.c ****   *     @arg ADC_SampleTime_1Cycles5: Sample time equal to 1.5 cycles
 587:lib/STM32F10x_StdPeriph_Driver/src/stm32f10x_adc.c ****   *     @arg ADC_SampleTime_7Cycles5: Sample time equal to 7.5 cycles
 588:lib/STM32F10x_StdPeriph_Driver/src/stm32f10x_adc.c ****   *     @arg ADC_SampleTime_13Cycles5: Sample time equal to 13.5 cycles
 589:lib/STM32F10x_StdPeriph_Driver/src/stm32f10x_adc.c ****   *     @arg ADC_SampleTime_28Cycles5: Sample time equal to 28.5 cycles	
 590:lib/STM32F10x_StdPeriph_Driver/src/stm32f10x_adc.c ****   *     @arg ADC_SampleTime_41Cycles5: Sample time equal to 41.5 cycles	
 591:lib/STM32F10x_StdPeriph_Driver/src/stm32f10x_adc.c ****   *     @arg ADC_SampleTime_55Cycles5: Sample time equal to 55.5 cycles	
 592:lib/STM32F10x_StdPeriph_Driver/src/stm32f10x_adc.c ****   *     @arg ADC_SampleTime_71Cycles5: Sample time equal to 71.5 cycles	
 593:lib/STM32F10x_StdPeriph_Driver/src/stm32f10x_adc.c ****   *     @arg ADC_SampleTime_239Cycles5: Sample time equal to 239.5 cycles	
 594:lib/STM32F10x_StdPeriph_Driver/src/stm32f10x_adc.c ****   * @retval None
 595:lib/STM32F10x_StdPeriph_Driver/src/stm32f10x_adc.c ****   */
 596:lib/STM32F10x_StdPeriph_Driver/src/stm32f10x_adc.c **** void ADC_RegularChannelConfig(ADC_TypeDef* ADCx, uint8_t ADC_Channel, uint8_t Rank, uint8_t ADC_Sam
 597:lib/STM32F10x_StdPeriph_Driver/src/stm32f10x_adc.c **** {
 535              		.loc 1 597 0
 536              		.cfi_startproc
 537              		@ args = 0, pretend = 0, frame = 0
 538              		@ frame_needed = 0, uses_anonymous_args = 0
 539              	.LVL64:
 540 0000 70B5     		push	{r4, r5, r6, lr}
 541              	.LCFI2:
 542              		.cfi_def_cfa_offset 16
 543              		.cfi_offset 4, -16
 544              		.cfi_offset 5, -12
 545              		.cfi_offset 6, -8
 546              		.cfi_offset 14, -4
 547              	.LVL65:
 598:lib/STM32F10x_StdPeriph_Driver/src/stm32f10x_adc.c ****   uint32_t tmpreg1 = 0, tmpreg2 = 0;
 599:lib/STM32F10x_StdPeriph_Driver/src/stm32f10x_adc.c ****   /* Check the parameters */
 600:lib/STM32F10x_StdPeriph_Driver/src/stm32f10x_adc.c ****   assert_param(IS_ADC_ALL_PERIPH(ADCx));
 601:lib/STM32F10x_StdPeriph_Driver/src/stm32f10x_adc.c ****   assert_param(IS_ADC_CHANNEL(ADC_Channel));
 602:lib/STM32F10x_StdPeriph_Driver/src/stm32f10x_adc.c ****   assert_param(IS_ADC_REGULAR_RANK(Rank));
 603:lib/STM32F10x_StdPeriph_Driver/src/stm32f10x_adc.c ****   assert_param(IS_ADC_SAMPLE_TIME(ADC_SampleTime));
 604:lib/STM32F10x_StdPeriph_Driver/src/stm32f10x_adc.c ****   /* if ADC_Channel_10 ... ADC_Channel_17 is selected */
 605:lib/STM32F10x_StdPeriph_Driver/src/stm32f10x_adc.c ****   if (ADC_Channel > ADC_Channel_9)
 548              		.loc 1 605 0
 549 0002 0929     		cmp	r1, #9
 550 0004 4FF00304 		mov	r4, #3
 551 0008 0CD9     		bls	.L40
 606:lib/STM32F10x_StdPeriph_Driver/src/stm32f10x_adc.c ****   {
 607:lib/STM32F10x_StdPeriph_Driver/src/stm32f10x_adc.c ****     /* Get the old register value */
 608:lib/STM32F10x_StdPeriph_Driver/src/stm32f10x_adc.c ****     tmpreg1 = ADCx->SMPR1;
 552              		.loc 1 608 0
 553 000a C668     		ldr	r6, [r0, #12]
 554              	.LVL66:
 609:lib/STM32F10x_StdPeriph_Driver/src/stm32f10x_adc.c ****     /* Calculate the mask to clear */
 610:lib/STM32F10x_StdPeriph_Driver/src/stm32f10x_adc.c ****     tmpreg2 = SMPR1_SMP_Set << (3 * (ADC_Channel - 10));
 555              		.loc 1 610 0
 556 000c 4C43     		muls	r4, r1, r4
 557 000e 1E3C     		subs	r4, r4, #30
 558              	.LVL67:
 559 0010 0725     		movs	r5, #7
 560 0012 05FA04F5 		lsl	r5, r5, r4
 561              	.LVL68:
 611:lib/STM32F10x_StdPeriph_Driver/src/stm32f10x_adc.c ****     /* Clear the old channel sample time */
 612:lib/STM32F10x_StdPeriph_Driver/src/stm32f10x_adc.c ****     tmpreg1 &= ~tmpreg2;
 562              		.loc 1 612 0
 563 0016 26EA0505 		bic	r5, r6, r5
 564              	.LVL69:
 613:lib/STM32F10x_StdPeriph_Driver/src/stm32f10x_adc.c ****     /* Calculate the mask to set */
 614:lib/STM32F10x_StdPeriph_Driver/src/stm32f10x_adc.c ****     tmpreg2 = (uint32_t)ADC_SampleTime << (3 * (ADC_Channel - 10));
 565              		.loc 1 614 0
 566 001a 03FA04F3 		lsl	r3, r3, r4
 567              	.LVL70:
 615:lib/STM32F10x_StdPeriph_Driver/src/stm32f10x_adc.c ****     /* Set the new channel sample time */
 616:lib/STM32F10x_StdPeriph_Driver/src/stm32f10x_adc.c ****     tmpreg1 |= tmpreg2;
 568              		.loc 1 616 0
 569 001e 2B43     		orrs	r3, r3, r5
 570              	.LVL71:
 617:lib/STM32F10x_StdPeriph_Driver/src/stm32f10x_adc.c ****     /* Store the new register value */
 618:lib/STM32F10x_StdPeriph_Driver/src/stm32f10x_adc.c ****     ADCx->SMPR1 = tmpreg1;
 571              		.loc 1 618 0
 572 0020 C360     		str	r3, [r0, #12]
 573 0022 0BE0     		b	.L41
 574              	.LVL72:
 575              	.L40:
 619:lib/STM32F10x_StdPeriph_Driver/src/stm32f10x_adc.c ****   }
 620:lib/STM32F10x_StdPeriph_Driver/src/stm32f10x_adc.c ****   else /* ADC_Channel include in ADC_Channel_[0..9] */
 621:lib/STM32F10x_StdPeriph_Driver/src/stm32f10x_adc.c ****   {
 622:lib/STM32F10x_StdPeriph_Driver/src/stm32f10x_adc.c ****     /* Get the old register value */
 623:lib/STM32F10x_StdPeriph_Driver/src/stm32f10x_adc.c ****     tmpreg1 = ADCx->SMPR2;
 576              		.loc 1 623 0
 577 0024 0669     		ldr	r6, [r0, #16]
 578              	.LVL73:
 624:lib/STM32F10x_StdPeriph_Driver/src/stm32f10x_adc.c ****     /* Calculate the mask to clear */
 625:lib/STM32F10x_StdPeriph_Driver/src/stm32f10x_adc.c ****     tmpreg2 = SMPR2_SMP_Set << (3 * ADC_Channel);
 579              		.loc 1 625 0
 580 0026 4C43     		muls	r4, r1, r4
 581              	.LVL74:
 582 0028 0725     		movs	r5, #7
 583 002a 05FA04F5 		lsl	r5, r5, r4
 584              	.LVL75:
 626:lib/STM32F10x_StdPeriph_Driver/src/stm32f10x_adc.c ****     /* Clear the old channel sample time */
 627:lib/STM32F10x_StdPeriph_Driver/src/stm32f10x_adc.c ****     tmpreg1 &= ~tmpreg2;
 585              		.loc 1 627 0
 586 002e 26EA0505 		bic	r5, r6, r5
 587              	.LVL76:
 628:lib/STM32F10x_StdPeriph_Driver/src/stm32f10x_adc.c ****     /* Calculate the mask to set */
 629:lib/STM32F10x_StdPeriph_Driver/src/stm32f10x_adc.c ****     tmpreg2 = (uint32_t)ADC_SampleTime << (3 * ADC_Channel);
 588              		.loc 1 629 0
 589 0032 03FA04F3 		lsl	r3, r3, r4
 590              	.LVL77:
 630:lib/STM32F10x_StdPeriph_Driver/src/stm32f10x_adc.c ****     /* Set the new channel sample time */
 631:lib/STM32F10x_StdPeriph_Driver/src/stm32f10x_adc.c ****     tmpreg1 |= tmpreg2;
 591              		.loc 1 631 0
 592 0036 45EA0304 		orr	r4, r5, r3
 593              	.LVL78:
 632:lib/STM32F10x_StdPeriph_Driver/src/stm32f10x_adc.c ****     /* Store the new register value */
 633:lib/STM32F10x_StdPeriph_Driver/src/stm32f10x_adc.c ****     ADCx->SMPR2 = tmpreg1;
 594              		.loc 1 633 0
 595 003a 0461     		str	r4, [r0, #16]
 596              	.LVL79:
 597              	.L41:
 634:lib/STM32F10x_StdPeriph_Driver/src/stm32f10x_adc.c ****   }
 635:lib/STM32F10x_StdPeriph_Driver/src/stm32f10x_adc.c ****   /* For Rank 1 to 6 */
 636:lib/STM32F10x_StdPeriph_Driver/src/stm32f10x_adc.c ****   if (Rank < 7)
 598              		.loc 1 636 0
 599 003c 062A     		cmp	r2, #6
 600 003e 4FF00503 		mov	r3, #5
 601 0042 0DD8     		bhi	.L42
 637:lib/STM32F10x_StdPeriph_Driver/src/stm32f10x_adc.c ****   {
 638:lib/STM32F10x_StdPeriph_Driver/src/stm32f10x_adc.c ****     /* Get the old register value */
 639:lib/STM32F10x_StdPeriph_Driver/src/stm32f10x_adc.c ****     tmpreg1 = ADCx->SQR3;
 602              		.loc 1 639 0
 603 0044 446B     		ldr	r4, [r0, #52]
 604              	.LVL80:
 640:lib/STM32F10x_StdPeriph_Driver/src/stm32f10x_adc.c ****     /* Calculate the mask to clear */
 641:lib/STM32F10x_StdPeriph_Driver/src/stm32f10x_adc.c ****     tmpreg2 = SQR3_SQ_Set << (5 * (Rank - 1));
 605              		.loc 1 641 0
 606 0046 013A     		subs	r2, r2, #1
 607              	.LVL81:
 608 0048 5343     		muls	r3, r2, r3
 609              	.LVL82:
 610 004a 1F22     		movs	r2, #31
 611 004c 02FA03F2 		lsl	r2, r2, r3
 612              	.LVL83:
 642:lib/STM32F10x_StdPeriph_Driver/src/stm32f10x_adc.c ****     /* Clear the old SQx bits for the selected rank */
 643:lib/STM32F10x_StdPeriph_Driver/src/stm32f10x_adc.c ****     tmpreg1 &= ~tmpreg2;
 613              		.loc 1 643 0
 614 0050 24EA0202 		bic	r2, r4, r2
 615              	.LVL84:
 644:lib/STM32F10x_StdPeriph_Driver/src/stm32f10x_adc.c ****     /* Calculate the mask to set */
 645:lib/STM32F10x_StdPeriph_Driver/src/stm32f10x_adc.c ****     tmpreg2 = (uint32_t)ADC_Channel << (5 * (Rank - 1));
 616              		.loc 1 645 0
 617 0054 01FA03F1 		lsl	r1, r1, r3
 618              	.LVL85:
 646:lib/STM32F10x_StdPeriph_Driver/src/stm32f10x_adc.c ****     /* Set the SQx bits for the selected rank */
 647:lib/STM32F10x_StdPeriph_Driver/src/stm32f10x_adc.c ****     tmpreg1 |= tmpreg2;
 619              		.loc 1 647 0
 620 0058 42EA0103 		orr	r3, r2, r1
 621              	.LVL86:
 648:lib/STM32F10x_StdPeriph_Driver/src/stm32f10x_adc.c ****     /* Store the new register value */
 649:lib/STM32F10x_StdPeriph_Driver/src/stm32f10x_adc.c ****     ADCx->SQR3 = tmpreg1;
 622              		.loc 1 649 0
 623 005c 4363     		str	r3, [r0, #52]
 624 005e 70BD     		pop	{r4, r5, r6, pc}
 625              	.LVL87:
 626              	.L42:
 650:lib/STM32F10x_StdPeriph_Driver/src/stm32f10x_adc.c ****   }
 651:lib/STM32F10x_StdPeriph_Driver/src/stm32f10x_adc.c ****   /* For Rank 7 to 12 */
 652:lib/STM32F10x_StdPeriph_Driver/src/stm32f10x_adc.c ****   else if (Rank < 13)
 627              		.loc 1 652 0
 628 0060 0C2A     		cmp	r2, #12
 629 0062 0DD8     		bhi	.L44
 653:lib/STM32F10x_StdPeriph_Driver/src/stm32f10x_adc.c ****   {
 654:lib/STM32F10x_StdPeriph_Driver/src/stm32f10x_adc.c ****     /* Get the old register value */
 655:lib/STM32F10x_StdPeriph_Driver/src/stm32f10x_adc.c ****     tmpreg1 = ADCx->SQR2;
 630              		.loc 1 655 0
 631 0064 046B     		ldr	r4, [r0, #48]
 632              	.LVL88:
 656:lib/STM32F10x_StdPeriph_Driver/src/stm32f10x_adc.c ****     /* Calculate the mask to clear */
 657:lib/STM32F10x_StdPeriph_Driver/src/stm32f10x_adc.c ****     tmpreg2 = SQR2_SQ_Set << (5 * (Rank - 7));
 633              		.loc 1 657 0
 634 0066 5343     		muls	r3, r2, r3
 635 0068 233B     		subs	r3, r3, #35
 636              	.LVL89:
 637 006a 1F22     		movs	r2, #31
 638              	.LVL90:
 639 006c 02FA03F2 		lsl	r2, r2, r3
 640              	.LVL91:
 658:lib/STM32F10x_StdPeriph_Driver/src/stm32f10x_adc.c ****     /* Clear the old SQx bits for the selected rank */
 659:lib/STM32F10x_StdPeriph_Driver/src/stm32f10x_adc.c ****     tmpreg1 &= ~tmpreg2;
 641              		.loc 1 659 0
 642 0070 24EA0202 		bic	r2, r4, r2
 643              	.LVL92:
 660:lib/STM32F10x_StdPeriph_Driver/src/stm32f10x_adc.c ****     /* Calculate the mask to set */
 661:lib/STM32F10x_StdPeriph_Driver/src/stm32f10x_adc.c ****     tmpreg2 = (uint32_t)ADC_Channel << (5 * (Rank - 7));
 644              		.loc 1 661 0
 645 0074 01FA03F1 		lsl	r1, r1, r3
 646              	.LVL93:
 662:lib/STM32F10x_StdPeriph_Driver/src/stm32f10x_adc.c ****     /* Set the SQx bits for the selected rank */
 663:lib/STM32F10x_StdPeriph_Driver/src/stm32f10x_adc.c ****     tmpreg1 |= tmpreg2;
 647              		.loc 1 663 0
 648 0078 42EA0103 		orr	r3, r2, r1
 649              	.LVL94:
 664:lib/STM32F10x_StdPeriph_Driver/src/stm32f10x_adc.c ****     /* Store the new register value */
 665:lib/STM32F10x_StdPeriph_Driver/src/stm32f10x_adc.c ****     ADCx->SQR2 = tmpreg1;
 650              		.loc 1 665 0
 651 007c 0363     		str	r3, [r0, #48]
 652 007e 70BD     		pop	{r4, r5, r6, pc}
 653              	.LVL95:
 654              	.L44:
 666:lib/STM32F10x_StdPeriph_Driver/src/stm32f10x_adc.c ****   }
 667:lib/STM32F10x_StdPeriph_Driver/src/stm32f10x_adc.c ****   /* For Rank 13 to 16 */
 668:lib/STM32F10x_StdPeriph_Driver/src/stm32f10x_adc.c ****   else
 669:lib/STM32F10x_StdPeriph_Driver/src/stm32f10x_adc.c ****   {
 670:lib/STM32F10x_StdPeriph_Driver/src/stm32f10x_adc.c ****     /* Get the old register value */
 671:lib/STM32F10x_StdPeriph_Driver/src/stm32f10x_adc.c ****     tmpreg1 = ADCx->SQR1;
 655              		.loc 1 671 0
 656 0080 C46A     		ldr	r4, [r0, #44]
 657              	.LVL96:
 672:lib/STM32F10x_StdPeriph_Driver/src/stm32f10x_adc.c ****     /* Calculate the mask to clear */
 673:lib/STM32F10x_StdPeriph_Driver/src/stm32f10x_adc.c ****     tmpreg2 = SQR1_SQ_Set << (5 * (Rank - 13));
 658              		.loc 1 673 0
 659 0082 5343     		muls	r3, r2, r3
 660 0084 413B     		subs	r3, r3, #65
 661              	.LVL97:
 662 0086 1F22     		movs	r2, #31
 663              	.LVL98:
 664 0088 02FA03F2 		lsl	r2, r2, r3
 665              	.LVL99:
 674:lib/STM32F10x_StdPeriph_Driver/src/stm32f10x_adc.c ****     /* Clear the old SQx bits for the selected rank */
 675:lib/STM32F10x_StdPeriph_Driver/src/stm32f10x_adc.c ****     tmpreg1 &= ~tmpreg2;
 666              		.loc 1 675 0
 667 008c 24EA0202 		bic	r2, r4, r2
 668              	.LVL100:
 676:lib/STM32F10x_StdPeriph_Driver/src/stm32f10x_adc.c ****     /* Calculate the mask to set */
 677:lib/STM32F10x_StdPeriph_Driver/src/stm32f10x_adc.c ****     tmpreg2 = (uint32_t)ADC_Channel << (5 * (Rank - 13));
 669              		.loc 1 677 0
 670 0090 01FA03F1 		lsl	r1, r1, r3
 671              	.LVL101:
 678:lib/STM32F10x_StdPeriph_Driver/src/stm32f10x_adc.c ****     /* Set the SQx bits for the selected rank */
 679:lib/STM32F10x_StdPeriph_Driver/src/stm32f10x_adc.c ****     tmpreg1 |= tmpreg2;
 672              		.loc 1 679 0
 673 0094 1143     		orrs	r1, r1, r2
 674              	.LVL102:
 680:lib/STM32F10x_StdPeriph_Driver/src/stm32f10x_adc.c ****     /* Store the new register value */
 681:lib/STM32F10x_StdPeriph_Driver/src/stm32f10x_adc.c ****     ADCx->SQR1 = tmpreg1;
 675              		.loc 1 681 0
 676 0096 C162     		str	r1, [r0, #44]
 677 0098 70BD     		pop	{r4, r5, r6, pc}
 678              		.cfi_endproc
 679              	.LFE70:
 681              		.section	.text.ADC_ExternalTrigConvCmd,"ax",%progbits
 682              		.align	1
 683              		.global	ADC_ExternalTrigConvCmd
 684              		.thumb
 685              		.thumb_func
 687              	ADC_ExternalTrigConvCmd:
 688              	.LFB71:
 682:lib/STM32F10x_StdPeriph_Driver/src/stm32f10x_adc.c ****   }
 683:lib/STM32F10x_StdPeriph_Driver/src/stm32f10x_adc.c **** }
 684:lib/STM32F10x_StdPeriph_Driver/src/stm32f10x_adc.c **** 
 685:lib/STM32F10x_StdPeriph_Driver/src/stm32f10x_adc.c **** /**
 686:lib/STM32F10x_StdPeriph_Driver/src/stm32f10x_adc.c ****   * @brief  Enables or disables the ADCx conversion through external trigger.
 687:lib/STM32F10x_StdPeriph_Driver/src/stm32f10x_adc.c ****   * @param  ADCx: where x can be 1, 2 or 3 to select the ADC peripheral.
 688:lib/STM32F10x_StdPeriph_Driver/src/stm32f10x_adc.c ****   * @param  NewState: new state of the selected ADC external trigger start of conversion.
 689:lib/STM32F10x_StdPeriph_Driver/src/stm32f10x_adc.c ****   *   This parameter can be: ENABLE or DISABLE.
 690:lib/STM32F10x_StdPeriph_Driver/src/stm32f10x_adc.c ****   * @retval None
 691:lib/STM32F10x_StdPeriph_Driver/src/stm32f10x_adc.c ****   */
 692:lib/STM32F10x_StdPeriph_Driver/src/stm32f10x_adc.c **** void ADC_ExternalTrigConvCmd(ADC_TypeDef* ADCx, FunctionalState NewState)
 693:lib/STM32F10x_StdPeriph_Driver/src/stm32f10x_adc.c **** {
 689              		.loc 1 693 0
 690              		.cfi_startproc
 691              		@ args = 0, pretend = 0, frame = 0
 692              		@ frame_needed = 0, uses_anonymous_args = 0
 693              		@ link register save eliminated.
 694              	.LVL103:
 694:lib/STM32F10x_StdPeriph_Driver/src/stm32f10x_adc.c ****   /* Check the parameters */
 695:lib/STM32F10x_StdPeriph_Driver/src/stm32f10x_adc.c ****   assert_param(IS_ADC_ALL_PERIPH(ADCx));
 696:lib/STM32F10x_StdPeriph_Driver/src/stm32f10x_adc.c ****   assert_param(IS_FUNCTIONAL_STATE(NewState));
 697:lib/STM32F10x_StdPeriph_Driver/src/stm32f10x_adc.c ****   if (NewState != DISABLE)
 698:lib/STM32F10x_StdPeriph_Driver/src/stm32f10x_adc.c ****   {
 699:lib/STM32F10x_StdPeriph_Driver/src/stm32f10x_adc.c ****     /* Enable the selected ADC conversion on external event */
 700:lib/STM32F10x_StdPeriph_Driver/src/stm32f10x_adc.c ****     ADCx->CR2 |= CR2_EXTTRIG_Set;
 695              		.loc 1 700 0
 696 0000 8368     		ldr	r3, [r0, #8]
 697:lib/STM32F10x_StdPeriph_Driver/src/stm32f10x_adc.c ****   if (NewState != DISABLE)
 697              		.loc 1 697 0
 698 0002 11B1     		cbz	r1, .L46
 699              		.loc 1 700 0
 700 0004 43F48011 		orr	r1, r3, #1048576
 701              	.LVL104:
 702 0008 01E0     		b	.L48
 703              	.LVL105:
 704              	.L46:
 701:lib/STM32F10x_StdPeriph_Driver/src/stm32f10x_adc.c ****   }
 702:lib/STM32F10x_StdPeriph_Driver/src/stm32f10x_adc.c ****   else
 703:lib/STM32F10x_StdPeriph_Driver/src/stm32f10x_adc.c ****   {
 704:lib/STM32F10x_StdPeriph_Driver/src/stm32f10x_adc.c ****     /* Disable the selected ADC conversion on external event */
 705:lib/STM32F10x_StdPeriph_Driver/src/stm32f10x_adc.c ****     ADCx->CR2 &= CR2_EXTTRIG_Reset;
 705              		.loc 1 705 0
 706 000a 23F48011 		bic	r1, r3, #1048576
 707              	.LVL106:
 708              	.L48:
 709 000e 8160     		str	r1, [r0, #8]
 710 0010 7047     		bx	lr
 711              		.cfi_endproc
 712              	.LFE71:
 714              		.section	.text.ADC_GetConversionValue,"ax",%progbits
 715              		.align	1
 716              		.global	ADC_GetConversionValue
 717              		.thumb
 718              		.thumb_func
 720              	ADC_GetConversionValue:
 721              	.LFB72:
 706:lib/STM32F10x_StdPeriph_Driver/src/stm32f10x_adc.c ****   }
 707:lib/STM32F10x_StdPeriph_Driver/src/stm32f10x_adc.c **** }
 708:lib/STM32F10x_StdPeriph_Driver/src/stm32f10x_adc.c **** 
 709:lib/STM32F10x_StdPeriph_Driver/src/stm32f10x_adc.c **** /**
 710:lib/STM32F10x_StdPeriph_Driver/src/stm32f10x_adc.c ****   * @brief  Returns the last ADCx conversion result data for regular channel.
 711:lib/STM32F10x_StdPeriph_Driver/src/stm32f10x_adc.c ****   * @param  ADCx: where x can be 1, 2 or 3 to select the ADC peripheral.
 712:lib/STM32F10x_StdPeriph_Driver/src/stm32f10x_adc.c ****   * @retval The Data conversion value.
 713:lib/STM32F10x_StdPeriph_Driver/src/stm32f10x_adc.c ****   */
 714:lib/STM32F10x_StdPeriph_Driver/src/stm32f10x_adc.c **** uint16_t ADC_GetConversionValue(ADC_TypeDef* ADCx)
 715:lib/STM32F10x_StdPeriph_Driver/src/stm32f10x_adc.c **** {
 722              		.loc 1 715 0
 723              		.cfi_startproc
 724              		@ args = 0, pretend = 0, frame = 0
 725              		@ frame_needed = 0, uses_anonymous_args = 0
 726              		@ link register save eliminated.
 727              	.LVL107:
 716:lib/STM32F10x_StdPeriph_Driver/src/stm32f10x_adc.c ****   /* Check the parameters */
 717:lib/STM32F10x_StdPeriph_Driver/src/stm32f10x_adc.c ****   assert_param(IS_ADC_ALL_PERIPH(ADCx));
 718:lib/STM32F10x_StdPeriph_Driver/src/stm32f10x_adc.c ****   /* Return the selected ADC conversion value */
 719:lib/STM32F10x_StdPeriph_Driver/src/stm32f10x_adc.c ****   return (uint16_t) ADCx->DR;
 728              		.loc 1 719 0
 729 0000 C06C     		ldr	r0, [r0, #76]
 730              	.LVL108:
 720:lib/STM32F10x_StdPeriph_Driver/src/stm32f10x_adc.c **** }
 731              		.loc 1 720 0
 732 0002 80B2     		uxth	r0, r0
 733 0004 7047     		bx	lr
 734              		.cfi_endproc
 735              	.LFE72:
 737              		.section	.text.ADC_GetDualModeConversionValue,"ax",%progbits
 738              		.align	1
 739              		.global	ADC_GetDualModeConversionValue
 740              		.thumb
 741              		.thumb_func
 743              	ADC_GetDualModeConversionValue:
 744              	.LFB73:
 721:lib/STM32F10x_StdPeriph_Driver/src/stm32f10x_adc.c **** 
 722:lib/STM32F10x_StdPeriph_Driver/src/stm32f10x_adc.c **** /**
 723:lib/STM32F10x_StdPeriph_Driver/src/stm32f10x_adc.c ****   * @brief  Returns the last ADC1 and ADC2 conversion result data in dual mode.
 724:lib/STM32F10x_StdPeriph_Driver/src/stm32f10x_adc.c ****   * @retval The Data conversion value.
 725:lib/STM32F10x_StdPeriph_Driver/src/stm32f10x_adc.c ****   */
 726:lib/STM32F10x_StdPeriph_Driver/src/stm32f10x_adc.c **** uint32_t ADC_GetDualModeConversionValue(void)
 727:lib/STM32F10x_StdPeriph_Driver/src/stm32f10x_adc.c **** {
 745              		.loc 1 727 0
 746              		.cfi_startproc
 747              		@ args = 0, pretend = 0, frame = 0
 748              		@ frame_needed = 0, uses_anonymous_args = 0
 749              		@ link register save eliminated.
 728:lib/STM32F10x_StdPeriph_Driver/src/stm32f10x_adc.c ****   /* Return the dual mode conversion value */
 729:lib/STM32F10x_StdPeriph_Driver/src/stm32f10x_adc.c ****   return (*(__IO uint32_t *) DR_ADDRESS);
 750              		.loc 1 729 0
 751 0000 014B     		ldr	r3, .L51
 752 0002 1868     		ldr	r0, [r3, #0]
 730:lib/STM32F10x_StdPeriph_Driver/src/stm32f10x_adc.c **** }
 753              		.loc 1 730 0
 754 0004 7047     		bx	lr
 755              	.L52:
 756 0006 00BF     		.align	2
 757              	.L51:
 758 0008 4C240140 		.word	1073816652
 759              		.cfi_endproc
 760              	.LFE73:
 762              		.section	.text.ADC_AutoInjectedConvCmd,"ax",%progbits
 763              		.align	1
 764              		.global	ADC_AutoInjectedConvCmd
 765              		.thumb
 766              		.thumb_func
 768              	ADC_AutoInjectedConvCmd:
 769              	.LFB74:
 731:lib/STM32F10x_StdPeriph_Driver/src/stm32f10x_adc.c **** 
 732:lib/STM32F10x_StdPeriph_Driver/src/stm32f10x_adc.c **** /**
 733:lib/STM32F10x_StdPeriph_Driver/src/stm32f10x_adc.c ****   * @brief  Enables or disables the selected ADC automatic injected group
 734:lib/STM32F10x_StdPeriph_Driver/src/stm32f10x_adc.c ****   *         conversion after regular one.
 735:lib/STM32F10x_StdPeriph_Driver/src/stm32f10x_adc.c ****   * @param  ADCx: where x can be 1, 2 or 3 to select the ADC peripheral.
 736:lib/STM32F10x_StdPeriph_Driver/src/stm32f10x_adc.c ****   * @param  NewState: new state of the selected ADC auto injected conversion
 737:lib/STM32F10x_StdPeriph_Driver/src/stm32f10x_adc.c ****   *   This parameter can be: ENABLE or DISABLE.
 738:lib/STM32F10x_StdPeriph_Driver/src/stm32f10x_adc.c ****   * @retval None
 739:lib/STM32F10x_StdPeriph_Driver/src/stm32f10x_adc.c ****   */
 740:lib/STM32F10x_StdPeriph_Driver/src/stm32f10x_adc.c **** void ADC_AutoInjectedConvCmd(ADC_TypeDef* ADCx, FunctionalState NewState)
 741:lib/STM32F10x_StdPeriph_Driver/src/stm32f10x_adc.c **** {
 770              		.loc 1 741 0
 771              		.cfi_startproc
 772              		@ args = 0, pretend = 0, frame = 0
 773              		@ frame_needed = 0, uses_anonymous_args = 0
 774              		@ link register save eliminated.
 775              	.LVL109:
 742:lib/STM32F10x_StdPeriph_Driver/src/stm32f10x_adc.c ****   /* Check the parameters */
 743:lib/STM32F10x_StdPeriph_Driver/src/stm32f10x_adc.c ****   assert_param(IS_ADC_ALL_PERIPH(ADCx));
 744:lib/STM32F10x_StdPeriph_Driver/src/stm32f10x_adc.c ****   assert_param(IS_FUNCTIONAL_STATE(NewState));
 745:lib/STM32F10x_StdPeriph_Driver/src/stm32f10x_adc.c ****   if (NewState != DISABLE)
 746:lib/STM32F10x_StdPeriph_Driver/src/stm32f10x_adc.c ****   {
 747:lib/STM32F10x_StdPeriph_Driver/src/stm32f10x_adc.c ****     /* Enable the selected ADC automatic injected group conversion */
 748:lib/STM32F10x_StdPeriph_Driver/src/stm32f10x_adc.c ****     ADCx->CR1 |= CR1_JAUTO_Set;
 776              		.loc 1 748 0
 777 0000 4368     		ldr	r3, [r0, #4]
 745:lib/STM32F10x_StdPeriph_Driver/src/stm32f10x_adc.c ****   if (NewState != DISABLE)
 778              		.loc 1 745 0
 779 0002 11B1     		cbz	r1, .L54
 780              		.loc 1 748 0
 781 0004 43F48061 		orr	r1, r3, #1024
 782              	.LVL110:
 783 0008 01E0     		b	.L56
 784              	.LVL111:
 785              	.L54:
 749:lib/STM32F10x_StdPeriph_Driver/src/stm32f10x_adc.c ****   }
 750:lib/STM32F10x_StdPeriph_Driver/src/stm32f10x_adc.c ****   else
 751:lib/STM32F10x_StdPeriph_Driver/src/stm32f10x_adc.c ****   {
 752:lib/STM32F10x_StdPeriph_Driver/src/stm32f10x_adc.c ****     /* Disable the selected ADC automatic injected group conversion */
 753:lib/STM32F10x_StdPeriph_Driver/src/stm32f10x_adc.c ****     ADCx->CR1 &= CR1_JAUTO_Reset;
 786              		.loc 1 753 0
 787 000a 23F48061 		bic	r1, r3, #1024
 788              	.LVL112:
 789              	.L56:
 790 000e 4160     		str	r1, [r0, #4]
 791 0010 7047     		bx	lr
 792              		.cfi_endproc
 793              	.LFE74:
 795              		.section	.text.ADC_InjectedDiscModeCmd,"ax",%progbits
 796              		.align	1
 797              		.global	ADC_InjectedDiscModeCmd
 798              		.thumb
 799              		.thumb_func
 801              	ADC_InjectedDiscModeCmd:
 802              	.LFB75:
 754:lib/STM32F10x_StdPeriph_Driver/src/stm32f10x_adc.c ****   }
 755:lib/STM32F10x_StdPeriph_Driver/src/stm32f10x_adc.c **** }
 756:lib/STM32F10x_StdPeriph_Driver/src/stm32f10x_adc.c **** 
 757:lib/STM32F10x_StdPeriph_Driver/src/stm32f10x_adc.c **** /**
 758:lib/STM32F10x_StdPeriph_Driver/src/stm32f10x_adc.c ****   * @brief  Enables or disables the discontinuous mode for injected group
 759:lib/STM32F10x_StdPeriph_Driver/src/stm32f10x_adc.c ****   *         channel for the specified ADC
 760:lib/STM32F10x_StdPeriph_Driver/src/stm32f10x_adc.c ****   * @param  ADCx: where x can be 1, 2 or 3 to select the ADC peripheral.
 761:lib/STM32F10x_StdPeriph_Driver/src/stm32f10x_adc.c ****   * @param  NewState: new state of the selected ADC discontinuous mode
 762:lib/STM32F10x_StdPeriph_Driver/src/stm32f10x_adc.c ****   *         on injected group channel.
 763:lib/STM32F10x_StdPeriph_Driver/src/stm32f10x_adc.c ****   *   This parameter can be: ENABLE or DISABLE.
 764:lib/STM32F10x_StdPeriph_Driver/src/stm32f10x_adc.c ****   * @retval None
 765:lib/STM32F10x_StdPeriph_Driver/src/stm32f10x_adc.c ****   */
 766:lib/STM32F10x_StdPeriph_Driver/src/stm32f10x_adc.c **** void ADC_InjectedDiscModeCmd(ADC_TypeDef* ADCx, FunctionalState NewState)
 767:lib/STM32F10x_StdPeriph_Driver/src/stm32f10x_adc.c **** {
 803              		.loc 1 767 0
 804              		.cfi_startproc
 805              		@ args = 0, pretend = 0, frame = 0
 806              		@ frame_needed = 0, uses_anonymous_args = 0
 807              		@ link register save eliminated.
 808              	.LVL113:
 768:lib/STM32F10x_StdPeriph_Driver/src/stm32f10x_adc.c ****   /* Check the parameters */
 769:lib/STM32F10x_StdPeriph_Driver/src/stm32f10x_adc.c ****   assert_param(IS_ADC_ALL_PERIPH(ADCx));
 770:lib/STM32F10x_StdPeriph_Driver/src/stm32f10x_adc.c ****   assert_param(IS_FUNCTIONAL_STATE(NewState));
 771:lib/STM32F10x_StdPeriph_Driver/src/stm32f10x_adc.c ****   if (NewState != DISABLE)
 772:lib/STM32F10x_StdPeriph_Driver/src/stm32f10x_adc.c ****   {
 773:lib/STM32F10x_StdPeriph_Driver/src/stm32f10x_adc.c ****     /* Enable the selected ADC injected discontinuous mode */
 774:lib/STM32F10x_StdPeriph_Driver/src/stm32f10x_adc.c ****     ADCx->CR1 |= CR1_JDISCEN_Set;
 809              		.loc 1 774 0
 810 0000 4368     		ldr	r3, [r0, #4]
 771:lib/STM32F10x_StdPeriph_Driver/src/stm32f10x_adc.c ****   if (NewState != DISABLE)
 811              		.loc 1 771 0
 812 0002 11B1     		cbz	r1, .L58
 813              		.loc 1 774 0
 814 0004 43F48051 		orr	r1, r3, #4096
 815              	.LVL114:
 816 0008 01E0     		b	.L60
 817              	.LVL115:
 818              	.L58:
 775:lib/STM32F10x_StdPeriph_Driver/src/stm32f10x_adc.c ****   }
 776:lib/STM32F10x_StdPeriph_Driver/src/stm32f10x_adc.c ****   else
 777:lib/STM32F10x_StdPeriph_Driver/src/stm32f10x_adc.c ****   {
 778:lib/STM32F10x_StdPeriph_Driver/src/stm32f10x_adc.c ****     /* Disable the selected ADC injected discontinuous mode */
 779:lib/STM32F10x_StdPeriph_Driver/src/stm32f10x_adc.c ****     ADCx->CR1 &= CR1_JDISCEN_Reset;
 819              		.loc 1 779 0
 820 000a 23F48051 		bic	r1, r3, #4096
 821              	.LVL116:
 822              	.L60:
 823 000e 4160     		str	r1, [r0, #4]
 824 0010 7047     		bx	lr
 825              		.cfi_endproc
 826              	.LFE75:
 828              		.section	.text.ADC_ExternalTrigInjectedConvConfig,"ax",%progbits
 829              		.align	1
 830              		.global	ADC_ExternalTrigInjectedConvConfig
 831              		.thumb
 832              		.thumb_func
 834              	ADC_ExternalTrigInjectedConvConfig:
 835              	.LFB76:
 780:lib/STM32F10x_StdPeriph_Driver/src/stm32f10x_adc.c ****   }
 781:lib/STM32F10x_StdPeriph_Driver/src/stm32f10x_adc.c **** }
 782:lib/STM32F10x_StdPeriph_Driver/src/stm32f10x_adc.c **** 
 783:lib/STM32F10x_StdPeriph_Driver/src/stm32f10x_adc.c **** /**
 784:lib/STM32F10x_StdPeriph_Driver/src/stm32f10x_adc.c ****   * @brief  Configures the ADCx external trigger for injected channels conversion.
 785:lib/STM32F10x_StdPeriph_Driver/src/stm32f10x_adc.c ****   * @param  ADCx: where x can be 1, 2 or 3 to select the ADC peripheral.
 786:lib/STM32F10x_StdPeriph_Driver/src/stm32f10x_adc.c ****   * @param  ADC_ExternalTrigInjecConv: specifies the ADC trigger to start injected conversion. 
 787:lib/STM32F10x_StdPeriph_Driver/src/stm32f10x_adc.c ****   *   This parameter can be one of the following values:
 788:lib/STM32F10x_StdPeriph_Driver/src/stm32f10x_adc.c ****   *     @arg ADC_ExternalTrigInjecConv_T1_TRGO: Timer1 TRGO event selected (for ADC1, ADC2 and ADC3
 789:lib/STM32F10x_StdPeriph_Driver/src/stm32f10x_adc.c ****   *     @arg ADC_ExternalTrigInjecConv_T1_CC4: Timer1 capture compare4 selected (for ADC1, ADC2 and
 790:lib/STM32F10x_StdPeriph_Driver/src/stm32f10x_adc.c ****   *     @arg ADC_ExternalTrigInjecConv_T2_TRGO: Timer2 TRGO event selected (for ADC1 and ADC2)
 791:lib/STM32F10x_StdPeriph_Driver/src/stm32f10x_adc.c ****   *     @arg ADC_ExternalTrigInjecConv_T2_CC1: Timer2 capture compare1 selected (for ADC1 and ADC2)
 792:lib/STM32F10x_StdPeriph_Driver/src/stm32f10x_adc.c ****   *     @arg ADC_ExternalTrigInjecConv_T3_CC4: Timer3 capture compare4 selected (for ADC1 and ADC2)
 793:lib/STM32F10x_StdPeriph_Driver/src/stm32f10x_adc.c ****   *     @arg ADC_ExternalTrigInjecConv_T4_TRGO: Timer4 TRGO event selected (for ADC1 and ADC2)
 794:lib/STM32F10x_StdPeriph_Driver/src/stm32f10x_adc.c ****   *     @arg ADC_ExternalTrigInjecConv_Ext_IT15_TIM8_CC4: External interrupt line 15 or Timer8
 795:lib/STM32F10x_StdPeriph_Driver/src/stm32f10x_adc.c ****   *                                                       capture compare4 event selected (for ADC1
 796:lib/STM32F10x_StdPeriph_Driver/src/stm32f10x_adc.c ****   *     @arg ADC_ExternalTrigInjecConv_T4_CC3: Timer4 capture compare3 selected (for ADC3 only)
 797:lib/STM32F10x_StdPeriph_Driver/src/stm32f10x_adc.c ****   *     @arg ADC_ExternalTrigInjecConv_T8_CC2: Timer8 capture compare2 selected (for ADC3 only)    
 798:lib/STM32F10x_StdPeriph_Driver/src/stm32f10x_adc.c ****   *     @arg ADC_ExternalTrigInjecConv_T8_CC4: Timer8 capture compare4 selected (for ADC3 only)
 799:lib/STM32F10x_StdPeriph_Driver/src/stm32f10x_adc.c ****   *     @arg ADC_ExternalTrigInjecConv_T5_TRGO: Timer5 TRGO event selected (for ADC3 only)         
 800:lib/STM32F10x_StdPeriph_Driver/src/stm32f10x_adc.c ****   *     @arg ADC_ExternalTrigInjecConv_T5_CC4: Timer5 capture compare4 selected (for ADC3 only)    
 801:lib/STM32F10x_StdPeriph_Driver/src/stm32f10x_adc.c ****   *     @arg ADC_ExternalTrigInjecConv_None: Injected conversion started by software and not
 802:lib/STM32F10x_StdPeriph_Driver/src/stm32f10x_adc.c ****   *                                          by external trigger (for ADC1, ADC2 and ADC3)
 803:lib/STM32F10x_StdPeriph_Driver/src/stm32f10x_adc.c ****   * @retval None
 804:lib/STM32F10x_StdPeriph_Driver/src/stm32f10x_adc.c ****   */
 805:lib/STM32F10x_StdPeriph_Driver/src/stm32f10x_adc.c **** void ADC_ExternalTrigInjectedConvConfig(ADC_TypeDef* ADCx, uint32_t ADC_ExternalTrigInjecConv)
 806:lib/STM32F10x_StdPeriph_Driver/src/stm32f10x_adc.c **** {
 836              		.loc 1 806 0
 837              		.cfi_startproc
 838              		@ args = 0, pretend = 0, frame = 0
 839              		@ frame_needed = 0, uses_anonymous_args = 0
 840              		@ link register save eliminated.
 841              	.LVL117:
 842              	.LVL118:
 807:lib/STM32F10x_StdPeriph_Driver/src/stm32f10x_adc.c ****   uint32_t tmpreg = 0;
 808:lib/STM32F10x_StdPeriph_Driver/src/stm32f10x_adc.c ****   /* Check the parameters */
 809:lib/STM32F10x_StdPeriph_Driver/src/stm32f10x_adc.c ****   assert_param(IS_ADC_ALL_PERIPH(ADCx));
 810:lib/STM32F10x_StdPeriph_Driver/src/stm32f10x_adc.c ****   assert_param(IS_ADC_EXT_INJEC_TRIG(ADC_ExternalTrigInjecConv));
 811:lib/STM32F10x_StdPeriph_Driver/src/stm32f10x_adc.c ****   /* Get the old register value */
 812:lib/STM32F10x_StdPeriph_Driver/src/stm32f10x_adc.c ****   tmpreg = ADCx->CR2;
 843              		.loc 1 812 0
 844 0000 8368     		ldr	r3, [r0, #8]
 845              	.LVL119:
 813:lib/STM32F10x_StdPeriph_Driver/src/stm32f10x_adc.c ****   /* Clear the old external event selection for injected group */
 814:lib/STM32F10x_StdPeriph_Driver/src/stm32f10x_adc.c ****   tmpreg &= CR2_JEXTSEL_Reset;
 846              		.loc 1 814 0
 847 0002 23F4E042 		bic	r2, r3, #28672
 848              	.LVL120:
 815:lib/STM32F10x_StdPeriph_Driver/src/stm32f10x_adc.c ****   /* Set the external event selection for injected group */
 816:lib/STM32F10x_StdPeriph_Driver/src/stm32f10x_adc.c ****   tmpreg |= ADC_ExternalTrigInjecConv;
 849              		.loc 1 816 0
 850 0006 1143     		orrs	r1, r1, r2
 851              	.LVL121:
 817:lib/STM32F10x_StdPeriph_Driver/src/stm32f10x_adc.c ****   /* Store the new register value */
 818:lib/STM32F10x_StdPeriph_Driver/src/stm32f10x_adc.c ****   ADCx->CR2 = tmpreg;
 852              		.loc 1 818 0
 853 0008 8160     		str	r1, [r0, #8]
 854 000a 7047     		bx	lr
 855              		.cfi_endproc
 856              	.LFE76:
 858              		.section	.text.ADC_ExternalTrigInjectedConvCmd,"ax",%progbits
 859              		.align	1
 860              		.global	ADC_ExternalTrigInjectedConvCmd
 861              		.thumb
 862              		.thumb_func
 864              	ADC_ExternalTrigInjectedConvCmd:
 865              	.LFB77:
 819:lib/STM32F10x_StdPeriph_Driver/src/stm32f10x_adc.c **** }
 820:lib/STM32F10x_StdPeriph_Driver/src/stm32f10x_adc.c **** 
 821:lib/STM32F10x_StdPeriph_Driver/src/stm32f10x_adc.c **** /**
 822:lib/STM32F10x_StdPeriph_Driver/src/stm32f10x_adc.c ****   * @brief  Enables or disables the ADCx injected channels conversion through
 823:lib/STM32F10x_StdPeriph_Driver/src/stm32f10x_adc.c ****   *         external trigger
 824:lib/STM32F10x_StdPeriph_Driver/src/stm32f10x_adc.c ****   * @param  ADCx: where x can be 1, 2 or 3 to select the ADC peripheral.
 825:lib/STM32F10x_StdPeriph_Driver/src/stm32f10x_adc.c ****   * @param  NewState: new state of the selected ADC external trigger start of
 826:lib/STM32F10x_StdPeriph_Driver/src/stm32f10x_adc.c ****   *         injected conversion.
 827:lib/STM32F10x_StdPeriph_Driver/src/stm32f10x_adc.c ****   *   This parameter can be: ENABLE or DISABLE.
 828:lib/STM32F10x_StdPeriph_Driver/src/stm32f10x_adc.c ****   * @retval None
 829:lib/STM32F10x_StdPeriph_Driver/src/stm32f10x_adc.c ****   */
 830:lib/STM32F10x_StdPeriph_Driver/src/stm32f10x_adc.c **** void ADC_ExternalTrigInjectedConvCmd(ADC_TypeDef* ADCx, FunctionalState NewState)
 831:lib/STM32F10x_StdPeriph_Driver/src/stm32f10x_adc.c **** {
 866              		.loc 1 831 0
 867              		.cfi_startproc
 868              		@ args = 0, pretend = 0, frame = 0
 869              		@ frame_needed = 0, uses_anonymous_args = 0
 870              		@ link register save eliminated.
 871              	.LVL122:
 832:lib/STM32F10x_StdPeriph_Driver/src/stm32f10x_adc.c ****   /* Check the parameters */
 833:lib/STM32F10x_StdPeriph_Driver/src/stm32f10x_adc.c ****   assert_param(IS_ADC_ALL_PERIPH(ADCx));
 834:lib/STM32F10x_StdPeriph_Driver/src/stm32f10x_adc.c ****   assert_param(IS_FUNCTIONAL_STATE(NewState));
 835:lib/STM32F10x_StdPeriph_Driver/src/stm32f10x_adc.c ****   if (NewState != DISABLE)
 836:lib/STM32F10x_StdPeriph_Driver/src/stm32f10x_adc.c ****   {
 837:lib/STM32F10x_StdPeriph_Driver/src/stm32f10x_adc.c ****     /* Enable the selected ADC external event selection for injected group */
 838:lib/STM32F10x_StdPeriph_Driver/src/stm32f10x_adc.c ****     ADCx->CR2 |= CR2_JEXTTRIG_Set;
 872              		.loc 1 838 0
 873 0000 8368     		ldr	r3, [r0, #8]
 835:lib/STM32F10x_StdPeriph_Driver/src/stm32f10x_adc.c ****   if (NewState != DISABLE)
 874              		.loc 1 835 0
 875 0002 11B1     		cbz	r1, .L63
 876              		.loc 1 838 0
 877 0004 43F40041 		orr	r1, r3, #32768
 878              	.LVL123:
 879 0008 01E0     		b	.L65
 880              	.LVL124:
 881              	.L63:
 839:lib/STM32F10x_StdPeriph_Driver/src/stm32f10x_adc.c ****   }
 840:lib/STM32F10x_StdPeriph_Driver/src/stm32f10x_adc.c ****   else
 841:lib/STM32F10x_StdPeriph_Driver/src/stm32f10x_adc.c ****   {
 842:lib/STM32F10x_StdPeriph_Driver/src/stm32f10x_adc.c ****     /* Disable the selected ADC external event selection for injected group */
 843:lib/STM32F10x_StdPeriph_Driver/src/stm32f10x_adc.c ****     ADCx->CR2 &= CR2_JEXTTRIG_Reset;
 882              		.loc 1 843 0
 883 000a 23F40041 		bic	r1, r3, #32768
 884              	.LVL125:
 885              	.L65:
 886 000e 8160     		str	r1, [r0, #8]
 887 0010 7047     		bx	lr
 888              		.cfi_endproc
 889              	.LFE77:
 891              		.section	.text.ADC_SoftwareStartInjectedConvCmd,"ax",%progbits
 892              		.align	1
 893              		.global	ADC_SoftwareStartInjectedConvCmd
 894              		.thumb
 895              		.thumb_func
 897              	ADC_SoftwareStartInjectedConvCmd:
 898              	.LFB78:
 844:lib/STM32F10x_StdPeriph_Driver/src/stm32f10x_adc.c ****   }
 845:lib/STM32F10x_StdPeriph_Driver/src/stm32f10x_adc.c **** }
 846:lib/STM32F10x_StdPeriph_Driver/src/stm32f10x_adc.c **** 
 847:lib/STM32F10x_StdPeriph_Driver/src/stm32f10x_adc.c **** /**
 848:lib/STM32F10x_StdPeriph_Driver/src/stm32f10x_adc.c ****   * @brief  Enables or disables the selected ADC start of the injected 
 849:lib/STM32F10x_StdPeriph_Driver/src/stm32f10x_adc.c ****   *         channels conversion.
 850:lib/STM32F10x_StdPeriph_Driver/src/stm32f10x_adc.c ****   * @param  ADCx: where x can be 1, 2 or 3 to select the ADC peripheral.
 851:lib/STM32F10x_StdPeriph_Driver/src/stm32f10x_adc.c ****   * @param  NewState: new state of the selected ADC software start injected conversion.
 852:lib/STM32F10x_StdPeriph_Driver/src/stm32f10x_adc.c ****   *   This parameter can be: ENABLE or DISABLE.
 853:lib/STM32F10x_StdPeriph_Driver/src/stm32f10x_adc.c ****   * @retval None
 854:lib/STM32F10x_StdPeriph_Driver/src/stm32f10x_adc.c ****   */
 855:lib/STM32F10x_StdPeriph_Driver/src/stm32f10x_adc.c **** void ADC_SoftwareStartInjectedConvCmd(ADC_TypeDef* ADCx, FunctionalState NewState)
 856:lib/STM32F10x_StdPeriph_Driver/src/stm32f10x_adc.c **** {
 899              		.loc 1 856 0
 900              		.cfi_startproc
 901              		@ args = 0, pretend = 0, frame = 0
 902              		@ frame_needed = 0, uses_anonymous_args = 0
 903              		@ link register save eliminated.
 904              	.LVL126:
 857:lib/STM32F10x_StdPeriph_Driver/src/stm32f10x_adc.c ****   /* Check the parameters */
 858:lib/STM32F10x_StdPeriph_Driver/src/stm32f10x_adc.c ****   assert_param(IS_ADC_ALL_PERIPH(ADCx));
 859:lib/STM32F10x_StdPeriph_Driver/src/stm32f10x_adc.c ****   assert_param(IS_FUNCTIONAL_STATE(NewState));
 860:lib/STM32F10x_StdPeriph_Driver/src/stm32f10x_adc.c ****   if (NewState != DISABLE)
 861:lib/STM32F10x_StdPeriph_Driver/src/stm32f10x_adc.c ****   {
 862:lib/STM32F10x_StdPeriph_Driver/src/stm32f10x_adc.c ****     /* Enable the selected ADC conversion for injected group on external event and start the select
 863:lib/STM32F10x_StdPeriph_Driver/src/stm32f10x_adc.c ****        ADC injected conversion */
 864:lib/STM32F10x_StdPeriph_Driver/src/stm32f10x_adc.c ****     ADCx->CR2 |= CR2_JEXTTRIG_JSWSTART_Set;
 905              		.loc 1 864 0
 906 0000 8368     		ldr	r3, [r0, #8]
 860:lib/STM32F10x_StdPeriph_Driver/src/stm32f10x_adc.c ****   if (NewState != DISABLE)
 907              		.loc 1 860 0
 908 0002 11B1     		cbz	r1, .L67
 909              		.loc 1 864 0
 910 0004 43F40211 		orr	r1, r3, #2129920
 911              	.LVL127:
 912 0008 01E0     		b	.L69
 913              	.LVL128:
 914              	.L67:
 865:lib/STM32F10x_StdPeriph_Driver/src/stm32f10x_adc.c ****   }
 866:lib/STM32F10x_StdPeriph_Driver/src/stm32f10x_adc.c ****   else
 867:lib/STM32F10x_StdPeriph_Driver/src/stm32f10x_adc.c ****   {
 868:lib/STM32F10x_StdPeriph_Driver/src/stm32f10x_adc.c ****     /* Disable the selected ADC conversion on external event for injected group and stop the select
 869:lib/STM32F10x_StdPeriph_Driver/src/stm32f10x_adc.c ****        ADC injected conversion */
 870:lib/STM32F10x_StdPeriph_Driver/src/stm32f10x_adc.c ****     ADCx->CR2 &= CR2_JEXTTRIG_JSWSTART_Reset;
 915              		.loc 1 870 0
 916 000a 23F40211 		bic	r1, r3, #2129920
 917              	.LVL129:
 918              	.L69:
 919 000e 8160     		str	r1, [r0, #8]
 920 0010 7047     		bx	lr
 921              		.cfi_endproc
 922              	.LFE78:
 924              		.section	.text.ADC_GetSoftwareStartInjectedConvCmdStatus,"ax",%progbits
 925              		.align	1
 926              		.global	ADC_GetSoftwareStartInjectedConvCmdStatus
 927              		.thumb
 928              		.thumb_func
 930              	ADC_GetSoftwareStartInjectedConvCmdStatus:
 931              	.LFB79:
 871:lib/STM32F10x_StdPeriph_Driver/src/stm32f10x_adc.c ****   }
 872:lib/STM32F10x_StdPeriph_Driver/src/stm32f10x_adc.c **** }
 873:lib/STM32F10x_StdPeriph_Driver/src/stm32f10x_adc.c **** 
 874:lib/STM32F10x_StdPeriph_Driver/src/stm32f10x_adc.c **** /**
 875:lib/STM32F10x_StdPeriph_Driver/src/stm32f10x_adc.c ****   * @brief  Gets the selected ADC Software start injected conversion Status.
 876:lib/STM32F10x_StdPeriph_Driver/src/stm32f10x_adc.c ****   * @param  ADCx: where x can be 1, 2 or 3 to select the ADC peripheral.
 877:lib/STM32F10x_StdPeriph_Driver/src/stm32f10x_adc.c ****   * @retval The new state of ADC software start injected conversion (SET or RESET).
 878:lib/STM32F10x_StdPeriph_Driver/src/stm32f10x_adc.c ****   */
 879:lib/STM32F10x_StdPeriph_Driver/src/stm32f10x_adc.c **** FlagStatus ADC_GetSoftwareStartInjectedConvCmdStatus(ADC_TypeDef* ADCx)
 880:lib/STM32F10x_StdPeriph_Driver/src/stm32f10x_adc.c **** {
 932              		.loc 1 880 0
 933              		.cfi_startproc
 934              		@ args = 0, pretend = 0, frame = 0
 935              		@ frame_needed = 0, uses_anonymous_args = 0
 936              		@ link register save eliminated.
 937              	.LVL130:
 938              	.LVL131:
 881:lib/STM32F10x_StdPeriph_Driver/src/stm32f10x_adc.c ****   FlagStatus bitstatus = RESET;
 882:lib/STM32F10x_StdPeriph_Driver/src/stm32f10x_adc.c ****   /* Check the parameters */
 883:lib/STM32F10x_StdPeriph_Driver/src/stm32f10x_adc.c ****   assert_param(IS_ADC_ALL_PERIPH(ADCx));
 884:lib/STM32F10x_StdPeriph_Driver/src/stm32f10x_adc.c ****   /* Check the status of JSWSTART bit */
 885:lib/STM32F10x_StdPeriph_Driver/src/stm32f10x_adc.c ****   if ((ADCx->CR2 & CR2_JSWSTART_Set) != (uint32_t)RESET)
 939              		.loc 1 885 0
 940 0000 8068     		ldr	r0, [r0, #8]
 941              	.LVL132:
 886:lib/STM32F10x_StdPeriph_Driver/src/stm32f10x_adc.c ****   {
 887:lib/STM32F10x_StdPeriph_Driver/src/stm32f10x_adc.c ****     /* JSWSTART bit is set */
 888:lib/STM32F10x_StdPeriph_Driver/src/stm32f10x_adc.c ****     bitstatus = SET;
 889:lib/STM32F10x_StdPeriph_Driver/src/stm32f10x_adc.c ****   }
 890:lib/STM32F10x_StdPeriph_Driver/src/stm32f10x_adc.c ****   else
 891:lib/STM32F10x_StdPeriph_Driver/src/stm32f10x_adc.c ****   {
 892:lib/STM32F10x_StdPeriph_Driver/src/stm32f10x_adc.c ****     /* JSWSTART bit is reset */
 893:lib/STM32F10x_StdPeriph_Driver/src/stm32f10x_adc.c ****     bitstatus = RESET;
 894:lib/STM32F10x_StdPeriph_Driver/src/stm32f10x_adc.c ****   }
 895:lib/STM32F10x_StdPeriph_Driver/src/stm32f10x_adc.c ****   /* Return the JSWSTART bit status */
 896:lib/STM32F10x_StdPeriph_Driver/src/stm32f10x_adc.c ****   return  bitstatus;
 897:lib/STM32F10x_StdPeriph_Driver/src/stm32f10x_adc.c **** }
 942              		.loc 1 897 0
 943 0002 C0F34050 		ubfx	r0, r0, #21, #1
 944              	.LVL133:
 945 0006 7047     		bx	lr
 946              		.cfi_endproc
 947              	.LFE79:
 949              		.section	.text.ADC_InjectedChannelConfig,"ax",%progbits
 950              		.align	1
 951              		.global	ADC_InjectedChannelConfig
 952              		.thumb
 953              		.thumb_func
 955              	ADC_InjectedChannelConfig:
 956              	.LFB80:
 898:lib/STM32F10x_StdPeriph_Driver/src/stm32f10x_adc.c **** 
 899:lib/STM32F10x_StdPeriph_Driver/src/stm32f10x_adc.c **** /**
 900:lib/STM32F10x_StdPeriph_Driver/src/stm32f10x_adc.c ****   * @brief  Configures for the selected ADC injected channel its corresponding
 901:lib/STM32F10x_StdPeriph_Driver/src/stm32f10x_adc.c ****   *         rank in the sequencer and its sample time.
 902:lib/STM32F10x_StdPeriph_Driver/src/stm32f10x_adc.c ****   * @param  ADCx: where x can be 1, 2 or 3 to select the ADC peripheral.
 903:lib/STM32F10x_StdPeriph_Driver/src/stm32f10x_adc.c ****   * @param  ADC_Channel: the ADC channel to configure. 
 904:lib/STM32F10x_StdPeriph_Driver/src/stm32f10x_adc.c ****   *   This parameter can be one of the following values:
 905:lib/STM32F10x_StdPeriph_Driver/src/stm32f10x_adc.c ****   *     @arg ADC_Channel_0: ADC Channel0 selected
 906:lib/STM32F10x_StdPeriph_Driver/src/stm32f10x_adc.c ****   *     @arg ADC_Channel_1: ADC Channel1 selected
 907:lib/STM32F10x_StdPeriph_Driver/src/stm32f10x_adc.c ****   *     @arg ADC_Channel_2: ADC Channel2 selected
 908:lib/STM32F10x_StdPeriph_Driver/src/stm32f10x_adc.c ****   *     @arg ADC_Channel_3: ADC Channel3 selected
 909:lib/STM32F10x_StdPeriph_Driver/src/stm32f10x_adc.c ****   *     @arg ADC_Channel_4: ADC Channel4 selected
 910:lib/STM32F10x_StdPeriph_Driver/src/stm32f10x_adc.c ****   *     @arg ADC_Channel_5: ADC Channel5 selected
 911:lib/STM32F10x_StdPeriph_Driver/src/stm32f10x_adc.c ****   *     @arg ADC_Channel_6: ADC Channel6 selected
 912:lib/STM32F10x_StdPeriph_Driver/src/stm32f10x_adc.c ****   *     @arg ADC_Channel_7: ADC Channel7 selected
 913:lib/STM32F10x_StdPeriph_Driver/src/stm32f10x_adc.c ****   *     @arg ADC_Channel_8: ADC Channel8 selected
 914:lib/STM32F10x_StdPeriph_Driver/src/stm32f10x_adc.c ****   *     @arg ADC_Channel_9: ADC Channel9 selected
 915:lib/STM32F10x_StdPeriph_Driver/src/stm32f10x_adc.c ****   *     @arg ADC_Channel_10: ADC Channel10 selected
 916:lib/STM32F10x_StdPeriph_Driver/src/stm32f10x_adc.c ****   *     @arg ADC_Channel_11: ADC Channel11 selected
 917:lib/STM32F10x_StdPeriph_Driver/src/stm32f10x_adc.c ****   *     @arg ADC_Channel_12: ADC Channel12 selected
 918:lib/STM32F10x_StdPeriph_Driver/src/stm32f10x_adc.c ****   *     @arg ADC_Channel_13: ADC Channel13 selected
 919:lib/STM32F10x_StdPeriph_Driver/src/stm32f10x_adc.c ****   *     @arg ADC_Channel_14: ADC Channel14 selected
 920:lib/STM32F10x_StdPeriph_Driver/src/stm32f10x_adc.c ****   *     @arg ADC_Channel_15: ADC Channel15 selected
 921:lib/STM32F10x_StdPeriph_Driver/src/stm32f10x_adc.c ****   *     @arg ADC_Channel_16: ADC Channel16 selected
 922:lib/STM32F10x_StdPeriph_Driver/src/stm32f10x_adc.c ****   *     @arg ADC_Channel_17: ADC Channel17 selected
 923:lib/STM32F10x_StdPeriph_Driver/src/stm32f10x_adc.c ****   * @param  Rank: The rank in the injected group sequencer. This parameter must be between 1 and 4.
 924:lib/STM32F10x_StdPeriph_Driver/src/stm32f10x_adc.c ****   * @param  ADC_SampleTime: The sample time value to be set for the selected channel. 
 925:lib/STM32F10x_StdPeriph_Driver/src/stm32f10x_adc.c ****   *   This parameter can be one of the following values:
 926:lib/STM32F10x_StdPeriph_Driver/src/stm32f10x_adc.c ****   *     @arg ADC_SampleTime_1Cycles5: Sample time equal to 1.5 cycles
 927:lib/STM32F10x_StdPeriph_Driver/src/stm32f10x_adc.c ****   *     @arg ADC_SampleTime_7Cycles5: Sample time equal to 7.5 cycles
 928:lib/STM32F10x_StdPeriph_Driver/src/stm32f10x_adc.c ****   *     @arg ADC_SampleTime_13Cycles5: Sample time equal to 13.5 cycles
 929:lib/STM32F10x_StdPeriph_Driver/src/stm32f10x_adc.c ****   *     @arg ADC_SampleTime_28Cycles5: Sample time equal to 28.5 cycles	
 930:lib/STM32F10x_StdPeriph_Driver/src/stm32f10x_adc.c ****   *     @arg ADC_SampleTime_41Cycles5: Sample time equal to 41.5 cycles	
 931:lib/STM32F10x_StdPeriph_Driver/src/stm32f10x_adc.c ****   *     @arg ADC_SampleTime_55Cycles5: Sample time equal to 55.5 cycles	
 932:lib/STM32F10x_StdPeriph_Driver/src/stm32f10x_adc.c ****   *     @arg ADC_SampleTime_71Cycles5: Sample time equal to 71.5 cycles	
 933:lib/STM32F10x_StdPeriph_Driver/src/stm32f10x_adc.c ****   *     @arg ADC_SampleTime_239Cycles5: Sample time equal to 239.5 cycles	
 934:lib/STM32F10x_StdPeriph_Driver/src/stm32f10x_adc.c ****   * @retval None
 935:lib/STM32F10x_StdPeriph_Driver/src/stm32f10x_adc.c ****   */
 936:lib/STM32F10x_StdPeriph_Driver/src/stm32f10x_adc.c **** void ADC_InjectedChannelConfig(ADC_TypeDef* ADCx, uint8_t ADC_Channel, uint8_t Rank, uint8_t ADC_Sa
 937:lib/STM32F10x_StdPeriph_Driver/src/stm32f10x_adc.c **** {
 957              		.loc 1 937 0
 958              		.cfi_startproc
 959              		@ args = 0, pretend = 0, frame = 0
 960              		@ frame_needed = 0, uses_anonymous_args = 0
 961              	.LVL134:
 962 0000 70B5     		push	{r4, r5, r6, lr}
 963              	.LCFI3:
 964              		.cfi_def_cfa_offset 16
 965              		.cfi_offset 4, -16
 966              		.cfi_offset 5, -12
 967              		.cfi_offset 6, -8
 968              		.cfi_offset 14, -4
 969              	.LVL135:
 938:lib/STM32F10x_StdPeriph_Driver/src/stm32f10x_adc.c ****   uint32_t tmpreg1 = 0, tmpreg2 = 0, tmpreg3 = 0;
 939:lib/STM32F10x_StdPeriph_Driver/src/stm32f10x_adc.c ****   /* Check the parameters */
 940:lib/STM32F10x_StdPeriph_Driver/src/stm32f10x_adc.c ****   assert_param(IS_ADC_ALL_PERIPH(ADCx));
 941:lib/STM32F10x_StdPeriph_Driver/src/stm32f10x_adc.c ****   assert_param(IS_ADC_CHANNEL(ADC_Channel));
 942:lib/STM32F10x_StdPeriph_Driver/src/stm32f10x_adc.c ****   assert_param(IS_ADC_INJECTED_RANK(Rank));
 943:lib/STM32F10x_StdPeriph_Driver/src/stm32f10x_adc.c ****   assert_param(IS_ADC_SAMPLE_TIME(ADC_SampleTime));
 944:lib/STM32F10x_StdPeriph_Driver/src/stm32f10x_adc.c ****   /* if ADC_Channel_10 ... ADC_Channel_17 is selected */
 945:lib/STM32F10x_StdPeriph_Driver/src/stm32f10x_adc.c ****   if (ADC_Channel > ADC_Channel_9)
 970              		.loc 1 945 0
 971 0002 0929     		cmp	r1, #9
 972 0004 4FF00304 		mov	r4, #3
 973 0008 0CD9     		bls	.L72
 946:lib/STM32F10x_StdPeriph_Driver/src/stm32f10x_adc.c ****   {
 947:lib/STM32F10x_StdPeriph_Driver/src/stm32f10x_adc.c ****     /* Get the old register value */
 948:lib/STM32F10x_StdPeriph_Driver/src/stm32f10x_adc.c ****     tmpreg1 = ADCx->SMPR1;
 974              		.loc 1 948 0
 975 000a C668     		ldr	r6, [r0, #12]
 976              	.LVL136:
 949:lib/STM32F10x_StdPeriph_Driver/src/stm32f10x_adc.c ****     /* Calculate the mask to clear */
 950:lib/STM32F10x_StdPeriph_Driver/src/stm32f10x_adc.c ****     tmpreg2 = SMPR1_SMP_Set << (3*(ADC_Channel - 10));
 977              		.loc 1 950 0
 978 000c 4C43     		muls	r4, r1, r4
 979 000e 1E3C     		subs	r4, r4, #30
 980              	.LVL137:
 981 0010 0725     		movs	r5, #7
 982 0012 05FA04F5 		lsl	r5, r5, r4
 983              	.LVL138:
 951:lib/STM32F10x_StdPeriph_Driver/src/stm32f10x_adc.c ****     /* Clear the old channel sample time */
 952:lib/STM32F10x_StdPeriph_Driver/src/stm32f10x_adc.c ****     tmpreg1 &= ~tmpreg2;
 984              		.loc 1 952 0
 985 0016 26EA0505 		bic	r5, r6, r5
 986              	.LVL139:
 953:lib/STM32F10x_StdPeriph_Driver/src/stm32f10x_adc.c ****     /* Calculate the mask to set */
 954:lib/STM32F10x_StdPeriph_Driver/src/stm32f10x_adc.c ****     tmpreg2 = (uint32_t)ADC_SampleTime << (3*(ADC_Channel - 10));
 987              		.loc 1 954 0
 988 001a 03FA04F3 		lsl	r3, r3, r4
 989              	.LVL140:
 955:lib/STM32F10x_StdPeriph_Driver/src/stm32f10x_adc.c ****     /* Set the new channel sample time */
 956:lib/STM32F10x_StdPeriph_Driver/src/stm32f10x_adc.c ****     tmpreg1 |= tmpreg2;
 990              		.loc 1 956 0
 991 001e 2B43     		orrs	r3, r3, r5
 992              	.LVL141:
 957:lib/STM32F10x_StdPeriph_Driver/src/stm32f10x_adc.c ****     /* Store the new register value */
 958:lib/STM32F10x_StdPeriph_Driver/src/stm32f10x_adc.c ****     ADCx->SMPR1 = tmpreg1;
 993              		.loc 1 958 0
 994 0020 C360     		str	r3, [r0, #12]
 995 0022 0BE0     		b	.L73
 996              	.LVL142:
 997              	.L72:
 959:lib/STM32F10x_StdPeriph_Driver/src/stm32f10x_adc.c ****   }
 960:lib/STM32F10x_StdPeriph_Driver/src/stm32f10x_adc.c ****   else /* ADC_Channel include in ADC_Channel_[0..9] */
 961:lib/STM32F10x_StdPeriph_Driver/src/stm32f10x_adc.c ****   {
 962:lib/STM32F10x_StdPeriph_Driver/src/stm32f10x_adc.c ****     /* Get the old register value */
 963:lib/STM32F10x_StdPeriph_Driver/src/stm32f10x_adc.c ****     tmpreg1 = ADCx->SMPR2;
 998              		.loc 1 963 0
 999 0024 0669     		ldr	r6, [r0, #16]
 1000              	.LVL143:
 964:lib/STM32F10x_StdPeriph_Driver/src/stm32f10x_adc.c ****     /* Calculate the mask to clear */
 965:lib/STM32F10x_StdPeriph_Driver/src/stm32f10x_adc.c ****     tmpreg2 = SMPR2_SMP_Set << (3 * ADC_Channel);
 1001              		.loc 1 965 0
 1002 0026 4C43     		muls	r4, r1, r4
 1003              	.LVL144:
 1004 0028 0725     		movs	r5, #7
 1005 002a 05FA04F5 		lsl	r5, r5, r4
 1006              	.LVL145:
 966:lib/STM32F10x_StdPeriph_Driver/src/stm32f10x_adc.c ****     /* Clear the old channel sample time */
 967:lib/STM32F10x_StdPeriph_Driver/src/stm32f10x_adc.c ****     tmpreg1 &= ~tmpreg2;
 1007              		.loc 1 967 0
 1008 002e 26EA0505 		bic	r5, r6, r5
 1009              	.LVL146:
 968:lib/STM32F10x_StdPeriph_Driver/src/stm32f10x_adc.c ****     /* Calculate the mask to set */
 969:lib/STM32F10x_StdPeriph_Driver/src/stm32f10x_adc.c ****     tmpreg2 = (uint32_t)ADC_SampleTime << (3 * ADC_Channel);
 1010              		.loc 1 969 0
 1011 0032 03FA04F3 		lsl	r3, r3, r4
 1012              	.LVL147:
 970:lib/STM32F10x_StdPeriph_Driver/src/stm32f10x_adc.c ****     /* Set the new channel sample time */
 971:lib/STM32F10x_StdPeriph_Driver/src/stm32f10x_adc.c ****     tmpreg1 |= tmpreg2;
 1013              		.loc 1 971 0
 1014 0036 45EA0304 		orr	r4, r5, r3
 1015              	.LVL148:
 972:lib/STM32F10x_StdPeriph_Driver/src/stm32f10x_adc.c ****     /* Store the new register value */
 973:lib/STM32F10x_StdPeriph_Driver/src/stm32f10x_adc.c ****     ADCx->SMPR2 = tmpreg1;
 1016              		.loc 1 973 0
 1017 003a 0461     		str	r4, [r0, #16]
 1018              	.LVL149:
 1019              	.L73:
 974:lib/STM32F10x_StdPeriph_Driver/src/stm32f10x_adc.c ****   }
 975:lib/STM32F10x_StdPeriph_Driver/src/stm32f10x_adc.c ****   /* Rank configuration */
 976:lib/STM32F10x_StdPeriph_Driver/src/stm32f10x_adc.c ****   /* Get the old register value */
 977:lib/STM32F10x_StdPeriph_Driver/src/stm32f10x_adc.c ****   tmpreg1 = ADCx->JSQR;
 1020              		.loc 1 977 0
 1021 003c 846B     		ldr	r4, [r0, #56]
 1022              	.LVL150:
 978:lib/STM32F10x_StdPeriph_Driver/src/stm32f10x_adc.c ****   /* Get JL value: Number = JL+1 */
 979:lib/STM32F10x_StdPeriph_Driver/src/stm32f10x_adc.c ****   tmpreg3 =  (tmpreg1 & JSQR_JL_Set)>> 20;
 1023              		.loc 1 979 0
 1024 003e C4F30153 		ubfx	r3, r4, #20, #2
 980:lib/STM32F10x_StdPeriph_Driver/src/stm32f10x_adc.c ****   /* Calculate the mask to clear: ((Rank-1)+(4-JL-1)) */
 981:lib/STM32F10x_StdPeriph_Driver/src/stm32f10x_adc.c ****   tmpreg2 = JSQR_JSQ_Set << (5 * (uint8_t)((Rank + 3) - (tmpreg3 + 1)));
 1025              		.loc 1 981 0
 1026 0042 D21A     		subs	r2, r2, r3
 1027              	.LVL151:
 1028 0044 931C     		adds	r3, r2, #2
 1029 0046 DBB2     		uxtb	r3, r3
 1030 0048 0522     		movs	r2, #5
 1031 004a 5343     		muls	r3, r2, r3
 1032              	.LVL152:
 1033 004c 1F22     		movs	r2, #31
 1034 004e 02FA03F2 		lsl	r2, r2, r3
 1035              	.LVL153:
 982:lib/STM32F10x_StdPeriph_Driver/src/stm32f10x_adc.c ****   /* Clear the old JSQx bits for the selected rank */
 983:lib/STM32F10x_StdPeriph_Driver/src/stm32f10x_adc.c ****   tmpreg1 &= ~tmpreg2;
 1036              		.loc 1 983 0
 1037 0052 24EA0204 		bic	r4, r4, r2
 1038              	.LVL154:
 984:lib/STM32F10x_StdPeriph_Driver/src/stm32f10x_adc.c ****   /* Calculate the mask to set: ((Rank-1)+(4-JL-1)) */
 985:lib/STM32F10x_StdPeriph_Driver/src/stm32f10x_adc.c ****   tmpreg2 = (uint32_t)ADC_Channel << (5 * (uint8_t)((Rank + 3) - (tmpreg3 + 1)));
 1039              		.loc 1 985 0
 1040 0056 01FA03F1 		lsl	r1, r1, r3
 1041              	.LVL155:
 986:lib/STM32F10x_StdPeriph_Driver/src/stm32f10x_adc.c ****   /* Set the JSQx bits for the selected rank */
 987:lib/STM32F10x_StdPeriph_Driver/src/stm32f10x_adc.c ****   tmpreg1 |= tmpreg2;
 1042              		.loc 1 987 0
 1043 005a 2143     		orrs	r1, r1, r4
 1044              	.LVL156:
 988:lib/STM32F10x_StdPeriph_Driver/src/stm32f10x_adc.c ****   /* Store the new register value */
 989:lib/STM32F10x_StdPeriph_Driver/src/stm32f10x_adc.c ****   ADCx->JSQR = tmpreg1;
 1045              		.loc 1 989 0
 1046 005c 8163     		str	r1, [r0, #56]
 1047 005e 70BD     		pop	{r4, r5, r6, pc}
 1048              		.cfi_endproc
 1049              	.LFE80:
 1051              		.section	.text.ADC_InjectedSequencerLengthConfig,"ax",%progbits
 1052              		.align	1
 1053              		.global	ADC_InjectedSequencerLengthConfig
 1054              		.thumb
 1055              		.thumb_func
 1057              	ADC_InjectedSequencerLengthConfig:
 1058              	.LFB81:
 990:lib/STM32F10x_StdPeriph_Driver/src/stm32f10x_adc.c **** }
 991:lib/STM32F10x_StdPeriph_Driver/src/stm32f10x_adc.c **** 
 992:lib/STM32F10x_StdPeriph_Driver/src/stm32f10x_adc.c **** /**
 993:lib/STM32F10x_StdPeriph_Driver/src/stm32f10x_adc.c ****   * @brief  Configures the sequencer length for injected channels
 994:lib/STM32F10x_StdPeriph_Driver/src/stm32f10x_adc.c ****   * @param  ADCx: where x can be 1, 2 or 3 to select the ADC peripheral.
 995:lib/STM32F10x_StdPeriph_Driver/src/stm32f10x_adc.c ****   * @param  Length: The sequencer length. 
 996:lib/STM32F10x_StdPeriph_Driver/src/stm32f10x_adc.c ****   *   This parameter must be a number between 1 to 4.
 997:lib/STM32F10x_StdPeriph_Driver/src/stm32f10x_adc.c ****   * @retval None
 998:lib/STM32F10x_StdPeriph_Driver/src/stm32f10x_adc.c ****   */
 999:lib/STM32F10x_StdPeriph_Driver/src/stm32f10x_adc.c **** void ADC_InjectedSequencerLengthConfig(ADC_TypeDef* ADCx, uint8_t Length)
1000:lib/STM32F10x_StdPeriph_Driver/src/stm32f10x_adc.c **** {
 1059              		.loc 1 1000 0
 1060              		.cfi_startproc
 1061              		@ args = 0, pretend = 0, frame = 0
 1062              		@ frame_needed = 0, uses_anonymous_args = 0
 1063              		@ link register save eliminated.
 1064              	.LVL157:
 1065              	.LVL158:
1001:lib/STM32F10x_StdPeriph_Driver/src/stm32f10x_adc.c ****   uint32_t tmpreg1 = 0;
1002:lib/STM32F10x_StdPeriph_Driver/src/stm32f10x_adc.c ****   uint32_t tmpreg2 = 0;
1003:lib/STM32F10x_StdPeriph_Driver/src/stm32f10x_adc.c ****   /* Check the parameters */
1004:lib/STM32F10x_StdPeriph_Driver/src/stm32f10x_adc.c ****   assert_param(IS_ADC_ALL_PERIPH(ADCx));
1005:lib/STM32F10x_StdPeriph_Driver/src/stm32f10x_adc.c ****   assert_param(IS_ADC_INJECTED_LENGTH(Length));
1006:lib/STM32F10x_StdPeriph_Driver/src/stm32f10x_adc.c ****   
1007:lib/STM32F10x_StdPeriph_Driver/src/stm32f10x_adc.c ****   /* Get the old register value */
1008:lib/STM32F10x_StdPeriph_Driver/src/stm32f10x_adc.c ****   tmpreg1 = ADCx->JSQR;
 1066              		.loc 1 1008 0
 1067 0000 836B     		ldr	r3, [r0, #56]
 1068              	.LVL159:
1009:lib/STM32F10x_StdPeriph_Driver/src/stm32f10x_adc.c ****   /* Clear the old injected sequnence lenght JL bits */
1010:lib/STM32F10x_StdPeriph_Driver/src/stm32f10x_adc.c ****   tmpreg1 &= JSQR_JL_Reset;
 1069              		.loc 1 1010 0
 1070 0002 23F44012 		bic	r2, r3, #3145728
 1071              	.LVL160:
1011:lib/STM32F10x_StdPeriph_Driver/src/stm32f10x_adc.c ****   /* Set the injected sequnence lenght JL bits */
1012:lib/STM32F10x_StdPeriph_Driver/src/stm32f10x_adc.c ****   tmpreg2 = Length - 1; 
 1072              		.loc 1 1012 0
 1073 0006 0139     		subs	r1, r1, #1
 1074              	.LVL161:
1013:lib/STM32F10x_StdPeriph_Driver/src/stm32f10x_adc.c ****   tmpreg1 |= tmpreg2 << 20;
 1075              		.loc 1 1013 0
 1076 0008 42EA0153 		orr	r3, r2, r1, lsl #20
 1077              	.LVL162:
1014:lib/STM32F10x_StdPeriph_Driver/src/stm32f10x_adc.c ****   /* Store the new register value */
1015:lib/STM32F10x_StdPeriph_Driver/src/stm32f10x_adc.c ****   ADCx->JSQR = tmpreg1;
 1078              		.loc 1 1015 0
 1079 000c 8363     		str	r3, [r0, #56]
 1080 000e 7047     		bx	lr
 1081              		.cfi_endproc
 1082              	.LFE81:
 1084              		.section	.text.ADC_SetInjectedOffset,"ax",%progbits
 1085              		.align	1
 1086              		.global	ADC_SetInjectedOffset
 1087              		.thumb
 1088              		.thumb_func
 1090              	ADC_SetInjectedOffset:
 1091              	.LFB82:
1016:lib/STM32F10x_StdPeriph_Driver/src/stm32f10x_adc.c **** }
1017:lib/STM32F10x_StdPeriph_Driver/src/stm32f10x_adc.c **** 
1018:lib/STM32F10x_StdPeriph_Driver/src/stm32f10x_adc.c **** /**
1019:lib/STM32F10x_StdPeriph_Driver/src/stm32f10x_adc.c ****   * @brief  Set the injected channels conversion value offset
1020:lib/STM32F10x_StdPeriph_Driver/src/stm32f10x_adc.c ****   * @param  ADCx: where x can be 1, 2 or 3 to select the ADC peripheral.
1021:lib/STM32F10x_StdPeriph_Driver/src/stm32f10x_adc.c ****   * @param  ADC_InjectedChannel: the ADC injected channel to set its offset. 
1022:lib/STM32F10x_StdPeriph_Driver/src/stm32f10x_adc.c ****   *   This parameter can be one of the following values:
1023:lib/STM32F10x_StdPeriph_Driver/src/stm32f10x_adc.c ****   *     @arg ADC_InjectedChannel_1: Injected Channel1 selected
1024:lib/STM32F10x_StdPeriph_Driver/src/stm32f10x_adc.c ****   *     @arg ADC_InjectedChannel_2: Injected Channel2 selected
1025:lib/STM32F10x_StdPeriph_Driver/src/stm32f10x_adc.c ****   *     @arg ADC_InjectedChannel_3: Injected Channel3 selected
1026:lib/STM32F10x_StdPeriph_Driver/src/stm32f10x_adc.c ****   *     @arg ADC_InjectedChannel_4: Injected Channel4 selected
1027:lib/STM32F10x_StdPeriph_Driver/src/stm32f10x_adc.c ****   * @param  Offset: the offset value for the selected ADC injected channel
1028:lib/STM32F10x_StdPeriph_Driver/src/stm32f10x_adc.c ****   *   This parameter must be a 12bit value.
1029:lib/STM32F10x_StdPeriph_Driver/src/stm32f10x_adc.c ****   * @retval None
1030:lib/STM32F10x_StdPeriph_Driver/src/stm32f10x_adc.c ****   */
1031:lib/STM32F10x_StdPeriph_Driver/src/stm32f10x_adc.c **** void ADC_SetInjectedOffset(ADC_TypeDef* ADCx, uint8_t ADC_InjectedChannel, uint16_t Offset)
1032:lib/STM32F10x_StdPeriph_Driver/src/stm32f10x_adc.c **** {
 1092              		.loc 1 1032 0
 1093              		.cfi_startproc
 1094              		@ args = 0, pretend = 0, frame = 8
 1095              		@ frame_needed = 0, uses_anonymous_args = 0
 1096              		@ link register save eliminated.
 1097              	.LVL163:
 1098 0000 82B0     		sub	sp, sp, #8
 1099              	.LCFI4:
 1100              		.cfi_def_cfa_offset 8
1033:lib/STM32F10x_StdPeriph_Driver/src/stm32f10x_adc.c ****   __IO uint32_t tmp = 0;
 1101              		.loc 1 1033 0
 1102 0002 0023     		movs	r3, #0
 1103 0004 0193     		str	r3, [sp, #4]
 1104              	.LVL164:
1034:lib/STM32F10x_StdPeriph_Driver/src/stm32f10x_adc.c ****   
1035:lib/STM32F10x_StdPeriph_Driver/src/stm32f10x_adc.c ****   /* Check the parameters */
1036:lib/STM32F10x_StdPeriph_Driver/src/stm32f10x_adc.c ****   assert_param(IS_ADC_ALL_PERIPH(ADCx));
1037:lib/STM32F10x_StdPeriph_Driver/src/stm32f10x_adc.c ****   assert_param(IS_ADC_INJECTED_CHANNEL(ADC_InjectedChannel));
1038:lib/STM32F10x_StdPeriph_Driver/src/stm32f10x_adc.c ****   assert_param(IS_ADC_OFFSET(Offset));  
1039:lib/STM32F10x_StdPeriph_Driver/src/stm32f10x_adc.c ****   
1040:lib/STM32F10x_StdPeriph_Driver/src/stm32f10x_adc.c ****   tmp = (uint32_t)ADCx;
 1105              		.loc 1 1040 0
 1106 0006 0190     		str	r0, [sp, #4]
1041:lib/STM32F10x_StdPeriph_Driver/src/stm32f10x_adc.c ****   tmp += ADC_InjectedChannel;
 1107              		.loc 1 1041 0
 1108 0008 0198     		ldr	r0, [sp, #4]
 1109              	.LVL165:
 1110 000a 0918     		adds	r1, r1, r0
 1111              	.LVL166:
 1112 000c 0191     		str	r1, [sp, #4]
 1113              	.LVL167:
1042:lib/STM32F10x_StdPeriph_Driver/src/stm32f10x_adc.c ****   
1043:lib/STM32F10x_StdPeriph_Driver/src/stm32f10x_adc.c ****   /* Set the selected injected channel data offset */
1044:lib/STM32F10x_StdPeriph_Driver/src/stm32f10x_adc.c ****   *(__IO uint32_t *) tmp = (uint32_t)Offset;
 1114              		.loc 1 1044 0
 1115 000e 019B     		ldr	r3, [sp, #4]
 1116 0010 1A60     		str	r2, [r3, #0]
1045:lib/STM32F10x_StdPeriph_Driver/src/stm32f10x_adc.c **** }
 1117              		.loc 1 1045 0
 1118 0012 02B0     		add	sp, sp, #8
 1119 0014 7047     		bx	lr
 1120              		.cfi_endproc
 1121              	.LFE82:
 1123              		.section	.text.ADC_GetInjectedConversionValue,"ax",%progbits
 1124              		.align	1
 1125              		.global	ADC_GetInjectedConversionValue
 1126              		.thumb
 1127              		.thumb_func
 1129              	ADC_GetInjectedConversionValue:
 1130              	.LFB83:
1046:lib/STM32F10x_StdPeriph_Driver/src/stm32f10x_adc.c **** 
1047:lib/STM32F10x_StdPeriph_Driver/src/stm32f10x_adc.c **** /**
1048:lib/STM32F10x_StdPeriph_Driver/src/stm32f10x_adc.c ****   * @brief  Returns the ADC injected channel conversion result
1049:lib/STM32F10x_StdPeriph_Driver/src/stm32f10x_adc.c ****   * @param  ADCx: where x can be 1, 2 or 3 to select the ADC peripheral.
1050:lib/STM32F10x_StdPeriph_Driver/src/stm32f10x_adc.c ****   * @param  ADC_InjectedChannel: the converted ADC injected channel.
1051:lib/STM32F10x_StdPeriph_Driver/src/stm32f10x_adc.c ****   *   This parameter can be one of the following values:
1052:lib/STM32F10x_StdPeriph_Driver/src/stm32f10x_adc.c ****   *     @arg ADC_InjectedChannel_1: Injected Channel1 selected
1053:lib/STM32F10x_StdPeriph_Driver/src/stm32f10x_adc.c ****   *     @arg ADC_InjectedChannel_2: Injected Channel2 selected
1054:lib/STM32F10x_StdPeriph_Driver/src/stm32f10x_adc.c ****   *     @arg ADC_InjectedChannel_3: Injected Channel3 selected
1055:lib/STM32F10x_StdPeriph_Driver/src/stm32f10x_adc.c ****   *     @arg ADC_InjectedChannel_4: Injected Channel4 selected
1056:lib/STM32F10x_StdPeriph_Driver/src/stm32f10x_adc.c ****   * @retval The Data conversion value.
1057:lib/STM32F10x_StdPeriph_Driver/src/stm32f10x_adc.c ****   */
1058:lib/STM32F10x_StdPeriph_Driver/src/stm32f10x_adc.c **** uint16_t ADC_GetInjectedConversionValue(ADC_TypeDef* ADCx, uint8_t ADC_InjectedChannel)
1059:lib/STM32F10x_StdPeriph_Driver/src/stm32f10x_adc.c **** {
 1131              		.loc 1 1059 0
 1132              		.cfi_startproc
 1133              		@ args = 0, pretend = 0, frame = 8
 1134              		@ frame_needed = 0, uses_anonymous_args = 0
 1135              		@ link register save eliminated.
 1136              	.LVL168:
 1137 0000 82B0     		sub	sp, sp, #8
 1138              	.LCFI5:
 1139              		.cfi_def_cfa_offset 8
1060:lib/STM32F10x_StdPeriph_Driver/src/stm32f10x_adc.c ****   __IO uint32_t tmp = 0;
 1140              		.loc 1 1060 0
 1141 0002 0023     		movs	r3, #0
 1142 0004 0193     		str	r3, [sp, #4]
 1143              	.LVL169:
1061:lib/STM32F10x_StdPeriph_Driver/src/stm32f10x_adc.c ****   
1062:lib/STM32F10x_StdPeriph_Driver/src/stm32f10x_adc.c ****   /* Check the parameters */
1063:lib/STM32F10x_StdPeriph_Driver/src/stm32f10x_adc.c ****   assert_param(IS_ADC_ALL_PERIPH(ADCx));
1064:lib/STM32F10x_StdPeriph_Driver/src/stm32f10x_adc.c ****   assert_param(IS_ADC_INJECTED_CHANNEL(ADC_InjectedChannel));
1065:lib/STM32F10x_StdPeriph_Driver/src/stm32f10x_adc.c **** 
1066:lib/STM32F10x_StdPeriph_Driver/src/stm32f10x_adc.c ****   tmp = (uint32_t)ADCx;
 1144              		.loc 1 1066 0
 1145 0006 0190     		str	r0, [sp, #4]
1067:lib/STM32F10x_StdPeriph_Driver/src/stm32f10x_adc.c ****   tmp += ADC_InjectedChannel + JDR_Offset;
 1146              		.loc 1 1067 0
 1147 0008 0198     		ldr	r0, [sp, #4]
 1148              	.LVL170:
 1149 000a 2830     		adds	r0, r0, #40
 1150 000c 4118     		adds	r1, r0, r1
 1151              	.LVL171:
 1152 000e 0191     		str	r1, [sp, #4]
 1153              	.LVL172:
1068:lib/STM32F10x_StdPeriph_Driver/src/stm32f10x_adc.c ****   
1069:lib/STM32F10x_StdPeriph_Driver/src/stm32f10x_adc.c ****   /* Returns the selected injected channel conversion data value */
1070:lib/STM32F10x_StdPeriph_Driver/src/stm32f10x_adc.c ****   return (uint16_t) (*(__IO uint32_t*)  tmp);   
 1154              		.loc 1 1070 0
 1155 0010 019A     		ldr	r2, [sp, #4]
 1156 0012 1368     		ldr	r3, [r2, #0]
1071:lib/STM32F10x_StdPeriph_Driver/src/stm32f10x_adc.c **** }
 1157              		.loc 1 1071 0
 1158 0014 98B2     		uxth	r0, r3
 1159 0016 02B0     		add	sp, sp, #8
 1160 0018 7047     		bx	lr
 1161              		.cfi_endproc
 1162              	.LFE83:
 1164              		.section	.text.ADC_AnalogWatchdogCmd,"ax",%progbits
 1165              		.align	1
 1166              		.global	ADC_AnalogWatchdogCmd
 1167              		.thumb
 1168              		.thumb_func
 1170              	ADC_AnalogWatchdogCmd:
 1171              	.LFB84:
1072:lib/STM32F10x_StdPeriph_Driver/src/stm32f10x_adc.c **** 
1073:lib/STM32F10x_StdPeriph_Driver/src/stm32f10x_adc.c **** /**
1074:lib/STM32F10x_StdPeriph_Driver/src/stm32f10x_adc.c ****   * @brief  Enables or disables the analog watchdog on single/all regular
1075:lib/STM32F10x_StdPeriph_Driver/src/stm32f10x_adc.c ****   *         or injected channels
1076:lib/STM32F10x_StdPeriph_Driver/src/stm32f10x_adc.c ****   * @param  ADCx: where x can be 1, 2 or 3 to select the ADC peripheral.
1077:lib/STM32F10x_StdPeriph_Driver/src/stm32f10x_adc.c ****   * @param  ADC_AnalogWatchdog: the ADC analog watchdog configuration.
1078:lib/STM32F10x_StdPeriph_Driver/src/stm32f10x_adc.c ****   *   This parameter can be one of the following values:
1079:lib/STM32F10x_StdPeriph_Driver/src/stm32f10x_adc.c ****   *     @arg ADC_AnalogWatchdog_SingleRegEnable: Analog watchdog on a single regular channel
1080:lib/STM32F10x_StdPeriph_Driver/src/stm32f10x_adc.c ****   *     @arg ADC_AnalogWatchdog_SingleInjecEnable: Analog watchdog on a single injected channel
1081:lib/STM32F10x_StdPeriph_Driver/src/stm32f10x_adc.c ****   *     @arg ADC_AnalogWatchdog_SingleRegOrInjecEnable: Analog watchdog on a single regular or inje
1082:lib/STM32F10x_StdPeriph_Driver/src/stm32f10x_adc.c ****   *     @arg ADC_AnalogWatchdog_AllRegEnable: Analog watchdog on  all regular channel
1083:lib/STM32F10x_StdPeriph_Driver/src/stm32f10x_adc.c ****   *     @arg ADC_AnalogWatchdog_AllInjecEnable: Analog watchdog on  all injected channel
1084:lib/STM32F10x_StdPeriph_Driver/src/stm32f10x_adc.c ****   *     @arg ADC_AnalogWatchdog_AllRegAllInjecEnable: Analog watchdog on all regular and injected c
1085:lib/STM32F10x_StdPeriph_Driver/src/stm32f10x_adc.c ****   *     @arg ADC_AnalogWatchdog_None: No channel guarded by the analog watchdog
1086:lib/STM32F10x_StdPeriph_Driver/src/stm32f10x_adc.c ****   * @retval None	  
1087:lib/STM32F10x_StdPeriph_Driver/src/stm32f10x_adc.c ****   */
1088:lib/STM32F10x_StdPeriph_Driver/src/stm32f10x_adc.c **** void ADC_AnalogWatchdogCmd(ADC_TypeDef* ADCx, uint32_t ADC_AnalogWatchdog)
1089:lib/STM32F10x_StdPeriph_Driver/src/stm32f10x_adc.c **** {
 1172              		.loc 1 1089 0
 1173              		.cfi_startproc
 1174              		@ args = 0, pretend = 0, frame = 0
 1175              		@ frame_needed = 0, uses_anonymous_args = 0
 1176              		@ link register save eliminated.
 1177              	.LVL173:
 1178              	.LVL174:
1090:lib/STM32F10x_StdPeriph_Driver/src/stm32f10x_adc.c ****   uint32_t tmpreg = 0;
1091:lib/STM32F10x_StdPeriph_Driver/src/stm32f10x_adc.c ****   /* Check the parameters */
1092:lib/STM32F10x_StdPeriph_Driver/src/stm32f10x_adc.c ****   assert_param(IS_ADC_ALL_PERIPH(ADCx));
1093:lib/STM32F10x_StdPeriph_Driver/src/stm32f10x_adc.c ****   assert_param(IS_ADC_ANALOG_WATCHDOG(ADC_AnalogWatchdog));
1094:lib/STM32F10x_StdPeriph_Driver/src/stm32f10x_adc.c ****   /* Get the old register value */
1095:lib/STM32F10x_StdPeriph_Driver/src/stm32f10x_adc.c ****   tmpreg = ADCx->CR1;
 1179              		.loc 1 1095 0
 1180 0000 4368     		ldr	r3, [r0, #4]
 1181              	.LVL175:
1096:lib/STM32F10x_StdPeriph_Driver/src/stm32f10x_adc.c ****   /* Clear AWDEN, AWDENJ and AWDSGL bits */
1097:lib/STM32F10x_StdPeriph_Driver/src/stm32f10x_adc.c ****   tmpreg &= CR1_AWDMode_Reset;
 1182              		.loc 1 1097 0
 1183 0002 23F44002 		bic	r2, r3, #12582912
 1184 0006 22F40073 		bic	r3, r2, #512
 1185              	.LVL176:
1098:lib/STM32F10x_StdPeriph_Driver/src/stm32f10x_adc.c ****   /* Set the analog watchdog enable mode */
1099:lib/STM32F10x_StdPeriph_Driver/src/stm32f10x_adc.c ****   tmpreg |= ADC_AnalogWatchdog;
 1186              		.loc 1 1099 0
 1187 000a 1943     		orrs	r1, r1, r3
 1188              	.LVL177:
1100:lib/STM32F10x_StdPeriph_Driver/src/stm32f10x_adc.c ****   /* Store the new register value */
1101:lib/STM32F10x_StdPeriph_Driver/src/stm32f10x_adc.c ****   ADCx->CR1 = tmpreg;
 1189              		.loc 1 1101 0
 1190 000c 4160     		str	r1, [r0, #4]
 1191 000e 7047     		bx	lr
 1192              		.cfi_endproc
 1193              	.LFE84:
 1195              		.section	.text.ADC_AnalogWatchdogThresholdsConfig,"ax",%progbits
 1196              		.align	1
 1197              		.global	ADC_AnalogWatchdogThresholdsConfig
 1198              		.thumb
 1199              		.thumb_func
 1201              	ADC_AnalogWatchdogThresholdsConfig:
 1202              	.LFB85:
1102:lib/STM32F10x_StdPeriph_Driver/src/stm32f10x_adc.c **** }
1103:lib/STM32F10x_StdPeriph_Driver/src/stm32f10x_adc.c **** 
1104:lib/STM32F10x_StdPeriph_Driver/src/stm32f10x_adc.c **** /**
1105:lib/STM32F10x_StdPeriph_Driver/src/stm32f10x_adc.c ****   * @brief  Configures the high and low thresholds of the analog watchdog.
1106:lib/STM32F10x_StdPeriph_Driver/src/stm32f10x_adc.c ****   * @param  ADCx: where x can be 1, 2 or 3 to select the ADC peripheral.
1107:lib/STM32F10x_StdPeriph_Driver/src/stm32f10x_adc.c ****   * @param  HighThreshold: the ADC analog watchdog High threshold value.
1108:lib/STM32F10x_StdPeriph_Driver/src/stm32f10x_adc.c ****   *   This parameter must be a 12bit value.
1109:lib/STM32F10x_StdPeriph_Driver/src/stm32f10x_adc.c ****   * @param  LowThreshold: the ADC analog watchdog Low threshold value.
1110:lib/STM32F10x_StdPeriph_Driver/src/stm32f10x_adc.c ****   *   This parameter must be a 12bit value.
1111:lib/STM32F10x_StdPeriph_Driver/src/stm32f10x_adc.c ****   * @retval None
1112:lib/STM32F10x_StdPeriph_Driver/src/stm32f10x_adc.c ****   */
1113:lib/STM32F10x_StdPeriph_Driver/src/stm32f10x_adc.c **** void ADC_AnalogWatchdogThresholdsConfig(ADC_TypeDef* ADCx, uint16_t HighThreshold,
1114:lib/STM32F10x_StdPeriph_Driver/src/stm32f10x_adc.c ****                                         uint16_t LowThreshold)
1115:lib/STM32F10x_StdPeriph_Driver/src/stm32f10x_adc.c **** {
 1203              		.loc 1 1115 0
 1204              		.cfi_startproc
 1205              		@ args = 0, pretend = 0, frame = 0
 1206              		@ frame_needed = 0, uses_anonymous_args = 0
 1207              		@ link register save eliminated.
 1208              	.LVL178:
1116:lib/STM32F10x_StdPeriph_Driver/src/stm32f10x_adc.c ****   /* Check the parameters */
1117:lib/STM32F10x_StdPeriph_Driver/src/stm32f10x_adc.c ****   assert_param(IS_ADC_ALL_PERIPH(ADCx));
1118:lib/STM32F10x_StdPeriph_Driver/src/stm32f10x_adc.c ****   assert_param(IS_ADC_THRESHOLD(HighThreshold));
1119:lib/STM32F10x_StdPeriph_Driver/src/stm32f10x_adc.c ****   assert_param(IS_ADC_THRESHOLD(LowThreshold));
1120:lib/STM32F10x_StdPeriph_Driver/src/stm32f10x_adc.c ****   /* Set the ADCx high threshold */
1121:lib/STM32F10x_StdPeriph_Driver/src/stm32f10x_adc.c ****   ADCx->HTR = HighThreshold;
 1209              		.loc 1 1121 0
 1210 0000 4162     		str	r1, [r0, #36]
1122:lib/STM32F10x_StdPeriph_Driver/src/stm32f10x_adc.c ****   /* Set the ADCx low threshold */
1123:lib/STM32F10x_StdPeriph_Driver/src/stm32f10x_adc.c ****   ADCx->LTR = LowThreshold;
 1211              		.loc 1 1123 0
 1212 0002 8262     		str	r2, [r0, #40]
 1213 0004 7047     		bx	lr
 1214              		.cfi_endproc
 1215              	.LFE85:
 1217              		.section	.text.ADC_AnalogWatchdogSingleChannelConfig,"ax",%progbits
 1218              		.align	1
 1219              		.global	ADC_AnalogWatchdogSingleChannelConfig
 1220              		.thumb
 1221              		.thumb_func
 1223              	ADC_AnalogWatchdogSingleChannelConfig:
 1224              	.LFB86:
1124:lib/STM32F10x_StdPeriph_Driver/src/stm32f10x_adc.c **** }
1125:lib/STM32F10x_StdPeriph_Driver/src/stm32f10x_adc.c **** 
1126:lib/STM32F10x_StdPeriph_Driver/src/stm32f10x_adc.c **** /**
1127:lib/STM32F10x_StdPeriph_Driver/src/stm32f10x_adc.c ****   * @brief  Configures the analog watchdog guarded single channel
1128:lib/STM32F10x_StdPeriph_Driver/src/stm32f10x_adc.c ****   * @param  ADCx: where x can be 1, 2 or 3 to select the ADC peripheral.
1129:lib/STM32F10x_StdPeriph_Driver/src/stm32f10x_adc.c ****   * @param  ADC_Channel: the ADC channel to configure for the analog watchdog. 
1130:lib/STM32F10x_StdPeriph_Driver/src/stm32f10x_adc.c ****   *   This parameter can be one of the following values:
1131:lib/STM32F10x_StdPeriph_Driver/src/stm32f10x_adc.c ****   *     @arg ADC_Channel_0: ADC Channel0 selected
1132:lib/STM32F10x_StdPeriph_Driver/src/stm32f10x_adc.c ****   *     @arg ADC_Channel_1: ADC Channel1 selected
1133:lib/STM32F10x_StdPeriph_Driver/src/stm32f10x_adc.c ****   *     @arg ADC_Channel_2: ADC Channel2 selected
1134:lib/STM32F10x_StdPeriph_Driver/src/stm32f10x_adc.c ****   *     @arg ADC_Channel_3: ADC Channel3 selected
1135:lib/STM32F10x_StdPeriph_Driver/src/stm32f10x_adc.c ****   *     @arg ADC_Channel_4: ADC Channel4 selected
1136:lib/STM32F10x_StdPeriph_Driver/src/stm32f10x_adc.c ****   *     @arg ADC_Channel_5: ADC Channel5 selected
1137:lib/STM32F10x_StdPeriph_Driver/src/stm32f10x_adc.c ****   *     @arg ADC_Channel_6: ADC Channel6 selected
1138:lib/STM32F10x_StdPeriph_Driver/src/stm32f10x_adc.c ****   *     @arg ADC_Channel_7: ADC Channel7 selected
1139:lib/STM32F10x_StdPeriph_Driver/src/stm32f10x_adc.c ****   *     @arg ADC_Channel_8: ADC Channel8 selected
1140:lib/STM32F10x_StdPeriph_Driver/src/stm32f10x_adc.c ****   *     @arg ADC_Channel_9: ADC Channel9 selected
1141:lib/STM32F10x_StdPeriph_Driver/src/stm32f10x_adc.c ****   *     @arg ADC_Channel_10: ADC Channel10 selected
1142:lib/STM32F10x_StdPeriph_Driver/src/stm32f10x_adc.c ****   *     @arg ADC_Channel_11: ADC Channel11 selected
1143:lib/STM32F10x_StdPeriph_Driver/src/stm32f10x_adc.c ****   *     @arg ADC_Channel_12: ADC Channel12 selected
1144:lib/STM32F10x_StdPeriph_Driver/src/stm32f10x_adc.c ****   *     @arg ADC_Channel_13: ADC Channel13 selected
1145:lib/STM32F10x_StdPeriph_Driver/src/stm32f10x_adc.c ****   *     @arg ADC_Channel_14: ADC Channel14 selected
1146:lib/STM32F10x_StdPeriph_Driver/src/stm32f10x_adc.c ****   *     @arg ADC_Channel_15: ADC Channel15 selected
1147:lib/STM32F10x_StdPeriph_Driver/src/stm32f10x_adc.c ****   *     @arg ADC_Channel_16: ADC Channel16 selected
1148:lib/STM32F10x_StdPeriph_Driver/src/stm32f10x_adc.c ****   *     @arg ADC_Channel_17: ADC Channel17 selected
1149:lib/STM32F10x_StdPeriph_Driver/src/stm32f10x_adc.c ****   * @retval None
1150:lib/STM32F10x_StdPeriph_Driver/src/stm32f10x_adc.c ****   */
1151:lib/STM32F10x_StdPeriph_Driver/src/stm32f10x_adc.c **** void ADC_AnalogWatchdogSingleChannelConfig(ADC_TypeDef* ADCx, uint8_t ADC_Channel)
1152:lib/STM32F10x_StdPeriph_Driver/src/stm32f10x_adc.c **** {
 1225              		.loc 1 1152 0
 1226              		.cfi_startproc
 1227              		@ args = 0, pretend = 0, frame = 0
 1228              		@ frame_needed = 0, uses_anonymous_args = 0
 1229              		@ link register save eliminated.
 1230              	.LVL179:
 1231              	.LVL180:
1153:lib/STM32F10x_StdPeriph_Driver/src/stm32f10x_adc.c ****   uint32_t tmpreg = 0;
1154:lib/STM32F10x_StdPeriph_Driver/src/stm32f10x_adc.c ****   /* Check the parameters */
1155:lib/STM32F10x_StdPeriph_Driver/src/stm32f10x_adc.c ****   assert_param(IS_ADC_ALL_PERIPH(ADCx));
1156:lib/STM32F10x_StdPeriph_Driver/src/stm32f10x_adc.c ****   assert_param(IS_ADC_CHANNEL(ADC_Channel));
1157:lib/STM32F10x_StdPeriph_Driver/src/stm32f10x_adc.c ****   /* Get the old register value */
1158:lib/STM32F10x_StdPeriph_Driver/src/stm32f10x_adc.c ****   tmpreg = ADCx->CR1;
 1232              		.loc 1 1158 0
 1233 0000 4368     		ldr	r3, [r0, #4]
 1234              	.LVL181:
1159:lib/STM32F10x_StdPeriph_Driver/src/stm32f10x_adc.c ****   /* Clear the Analog watchdog channel select bits */
1160:lib/STM32F10x_StdPeriph_Driver/src/stm32f10x_adc.c ****   tmpreg &= CR1_AWDCH_Reset;
 1235              		.loc 1 1160 0
 1236 0002 23F01F02 		bic	r2, r3, #31
 1237              	.LVL182:
1161:lib/STM32F10x_StdPeriph_Driver/src/stm32f10x_adc.c ****   /* Set the Analog watchdog channel */
1162:lib/STM32F10x_StdPeriph_Driver/src/stm32f10x_adc.c ****   tmpreg |= ADC_Channel;
 1238              		.loc 1 1162 0
 1239 0006 1143     		orrs	r1, r1, r2
 1240              	.LVL183:
1163:lib/STM32F10x_StdPeriph_Driver/src/stm32f10x_adc.c ****   /* Store the new register value */
1164:lib/STM32F10x_StdPeriph_Driver/src/stm32f10x_adc.c ****   ADCx->CR1 = tmpreg;
 1241              		.loc 1 1164 0
 1242 0008 4160     		str	r1, [r0, #4]
 1243 000a 7047     		bx	lr
 1244              		.cfi_endproc
 1245              	.LFE86:
 1247              		.section	.text.ADC_TempSensorVrefintCmd,"ax",%progbits
 1248              		.align	1
 1249              		.global	ADC_TempSensorVrefintCmd
 1250              		.thumb
 1251              		.thumb_func
 1253              	ADC_TempSensorVrefintCmd:
 1254              	.LFB87:
1165:lib/STM32F10x_StdPeriph_Driver/src/stm32f10x_adc.c **** }
1166:lib/STM32F10x_StdPeriph_Driver/src/stm32f10x_adc.c **** 
1167:lib/STM32F10x_StdPeriph_Driver/src/stm32f10x_adc.c **** /**
1168:lib/STM32F10x_StdPeriph_Driver/src/stm32f10x_adc.c ****   * @brief  Enables or disables the temperature sensor and Vrefint channel.
1169:lib/STM32F10x_StdPeriph_Driver/src/stm32f10x_adc.c ****   * @param  NewState: new state of the temperature sensor.
1170:lib/STM32F10x_StdPeriph_Driver/src/stm32f10x_adc.c ****   *   This parameter can be: ENABLE or DISABLE.
1171:lib/STM32F10x_StdPeriph_Driver/src/stm32f10x_adc.c ****   * @retval None
1172:lib/STM32F10x_StdPeriph_Driver/src/stm32f10x_adc.c ****   */
1173:lib/STM32F10x_StdPeriph_Driver/src/stm32f10x_adc.c **** void ADC_TempSensorVrefintCmd(FunctionalState NewState)
1174:lib/STM32F10x_StdPeriph_Driver/src/stm32f10x_adc.c **** {
 1255              		.loc 1 1174 0
 1256              		.cfi_startproc
 1257              		@ args = 0, pretend = 0, frame = 0
 1258              		@ frame_needed = 0, uses_anonymous_args = 0
 1259              		@ link register save eliminated.
 1260              	.LVL184:
 1261 0000 044B     		ldr	r3, .L84
1175:lib/STM32F10x_StdPeriph_Driver/src/stm32f10x_adc.c ****   /* Check the parameters */
1176:lib/STM32F10x_StdPeriph_Driver/src/stm32f10x_adc.c ****   assert_param(IS_FUNCTIONAL_STATE(NewState));
1177:lib/STM32F10x_StdPeriph_Driver/src/stm32f10x_adc.c ****   if (NewState != DISABLE)
1178:lib/STM32F10x_StdPeriph_Driver/src/stm32f10x_adc.c ****   {
1179:lib/STM32F10x_StdPeriph_Driver/src/stm32f10x_adc.c ****     /* Enable the temperature sensor and Vrefint channel*/
1180:lib/STM32F10x_StdPeriph_Driver/src/stm32f10x_adc.c ****     ADC1->CR2 |= CR2_TSVREFE_Set;
 1262              		.loc 1 1180 0
 1263 0002 9A68     		ldr	r2, [r3, #8]
1177:lib/STM32F10x_StdPeriph_Driver/src/stm32f10x_adc.c ****   if (NewState != DISABLE)
 1264              		.loc 1 1177 0
 1265 0004 10B1     		cbz	r0, .L81
 1266              		.loc 1 1180 0
 1267 0006 42F40000 		orr	r0, r2, #8388608
 1268              	.LVL185:
 1269 000a 01E0     		b	.L83
 1270              	.LVL186:
 1271              	.L81:
1181:lib/STM32F10x_StdPeriph_Driver/src/stm32f10x_adc.c ****   }
1182:lib/STM32F10x_StdPeriph_Driver/src/stm32f10x_adc.c ****   else
1183:lib/STM32F10x_StdPeriph_Driver/src/stm32f10x_adc.c ****   {
1184:lib/STM32F10x_StdPeriph_Driver/src/stm32f10x_adc.c ****     /* Disable the temperature sensor and Vrefint channel*/
1185:lib/STM32F10x_StdPeriph_Driver/src/stm32f10x_adc.c ****     ADC1->CR2 &= CR2_TSVREFE_Reset;
 1272              		.loc 1 1185 0
 1273 000c 22F40000 		bic	r0, r2, #8388608
 1274              	.LVL187:
 1275              	.L83:
 1276 0010 9860     		str	r0, [r3, #8]
 1277 0012 7047     		bx	lr
 1278              	.L85:
 1279              		.align	2
 1280              	.L84:
 1281 0014 00240140 		.word	1073816576
 1282              		.cfi_endproc
 1283              	.LFE87:
 1285              		.section	.text.ADC_GetFlagStatus,"ax",%progbits
 1286              		.align	1
 1287              		.global	ADC_GetFlagStatus
 1288              		.thumb
 1289              		.thumb_func
 1291              	ADC_GetFlagStatus:
 1292              	.LFB88:
1186:lib/STM32F10x_StdPeriph_Driver/src/stm32f10x_adc.c ****   }
1187:lib/STM32F10x_StdPeriph_Driver/src/stm32f10x_adc.c **** }
1188:lib/STM32F10x_StdPeriph_Driver/src/stm32f10x_adc.c **** 
1189:lib/STM32F10x_StdPeriph_Driver/src/stm32f10x_adc.c **** /**
1190:lib/STM32F10x_StdPeriph_Driver/src/stm32f10x_adc.c ****   * @brief  Checks whether the specified ADC flag is set or not.
1191:lib/STM32F10x_StdPeriph_Driver/src/stm32f10x_adc.c ****   * @param  ADCx: where x can be 1, 2 or 3 to select the ADC peripheral.
1192:lib/STM32F10x_StdPeriph_Driver/src/stm32f10x_adc.c ****   * @param  ADC_FLAG: specifies the flag to check. 
1193:lib/STM32F10x_StdPeriph_Driver/src/stm32f10x_adc.c ****   *   This parameter can be one of the following values:
1194:lib/STM32F10x_StdPeriph_Driver/src/stm32f10x_adc.c ****   *     @arg ADC_FLAG_AWD: Analog watchdog flag
1195:lib/STM32F10x_StdPeriph_Driver/src/stm32f10x_adc.c ****   *     @arg ADC_FLAG_EOC: End of conversion flag
1196:lib/STM32F10x_StdPeriph_Driver/src/stm32f10x_adc.c ****   *     @arg ADC_FLAG_JEOC: End of injected group conversion flag
1197:lib/STM32F10x_StdPeriph_Driver/src/stm32f10x_adc.c ****   *     @arg ADC_FLAG_JSTRT: Start of injected group conversion flag
1198:lib/STM32F10x_StdPeriph_Driver/src/stm32f10x_adc.c ****   *     @arg ADC_FLAG_STRT: Start of regular group conversion flag
1199:lib/STM32F10x_StdPeriph_Driver/src/stm32f10x_adc.c ****   * @retval The new state of ADC_FLAG (SET or RESET).
1200:lib/STM32F10x_StdPeriph_Driver/src/stm32f10x_adc.c ****   */
1201:lib/STM32F10x_StdPeriph_Driver/src/stm32f10x_adc.c **** FlagStatus ADC_GetFlagStatus(ADC_TypeDef* ADCx, uint8_t ADC_FLAG)
1202:lib/STM32F10x_StdPeriph_Driver/src/stm32f10x_adc.c **** {
 1293              		.loc 1 1202 0
 1294              		.cfi_startproc
 1295              		@ args = 0, pretend = 0, frame = 0
 1296              		@ frame_needed = 0, uses_anonymous_args = 0
 1297              		@ link register save eliminated.
 1298              	.LVL188:
 1299              	.LVL189:
1203:lib/STM32F10x_StdPeriph_Driver/src/stm32f10x_adc.c ****   FlagStatus bitstatus = RESET;
1204:lib/STM32F10x_StdPeriph_Driver/src/stm32f10x_adc.c ****   /* Check the parameters */
1205:lib/STM32F10x_StdPeriph_Driver/src/stm32f10x_adc.c ****   assert_param(IS_ADC_ALL_PERIPH(ADCx));
1206:lib/STM32F10x_StdPeriph_Driver/src/stm32f10x_adc.c ****   assert_param(IS_ADC_GET_FLAG(ADC_FLAG));
1207:lib/STM32F10x_StdPeriph_Driver/src/stm32f10x_adc.c ****   /* Check the status of the specified ADC flag */
1208:lib/STM32F10x_StdPeriph_Driver/src/stm32f10x_adc.c ****   if ((ADCx->SR & ADC_FLAG) != (uint8_t)RESET)
 1300              		.loc 1 1208 0
 1301 0000 0368     		ldr	r3, [r0, #0]
 1302              	.LVL190:
 1303 0002 1942     		tst	r1, r3
1209:lib/STM32F10x_StdPeriph_Driver/src/stm32f10x_adc.c ****   {
1210:lib/STM32F10x_StdPeriph_Driver/src/stm32f10x_adc.c ****     /* ADC_FLAG is set */
1211:lib/STM32F10x_StdPeriph_Driver/src/stm32f10x_adc.c ****     bitstatus = SET;
1212:lib/STM32F10x_StdPeriph_Driver/src/stm32f10x_adc.c ****   }
1213:lib/STM32F10x_StdPeriph_Driver/src/stm32f10x_adc.c ****   else
1214:lib/STM32F10x_StdPeriph_Driver/src/stm32f10x_adc.c ****   {
1215:lib/STM32F10x_StdPeriph_Driver/src/stm32f10x_adc.c ****     /* ADC_FLAG is reset */
1216:lib/STM32F10x_StdPeriph_Driver/src/stm32f10x_adc.c ****     bitstatus = RESET;
1217:lib/STM32F10x_StdPeriph_Driver/src/stm32f10x_adc.c ****   }
1218:lib/STM32F10x_StdPeriph_Driver/src/stm32f10x_adc.c ****   /* Return the ADC_FLAG status */
1219:lib/STM32F10x_StdPeriph_Driver/src/stm32f10x_adc.c ****   return  bitstatus;
1220:lib/STM32F10x_StdPeriph_Driver/src/stm32f10x_adc.c **** }
 1304              		.loc 1 1220 0
 1305 0004 0CBF     		ite	eq
 1306 0006 0020     		moveq	r0, #0
 1307 0008 0120     		movne	r0, #1
 1308              	.LVL191:
 1309 000a 7047     		bx	lr
 1310              		.cfi_endproc
 1311              	.LFE88:
 1313              		.section	.text.ADC_ClearFlag,"ax",%progbits
 1314              		.align	1
 1315              		.global	ADC_ClearFlag
 1316              		.thumb
 1317              		.thumb_func
 1319              	ADC_ClearFlag:
 1320              	.LFB89:
1221:lib/STM32F10x_StdPeriph_Driver/src/stm32f10x_adc.c **** 
1222:lib/STM32F10x_StdPeriph_Driver/src/stm32f10x_adc.c **** /**
1223:lib/STM32F10x_StdPeriph_Driver/src/stm32f10x_adc.c ****   * @brief  Clears the ADCx's pending flags.
1224:lib/STM32F10x_StdPeriph_Driver/src/stm32f10x_adc.c ****   * @param  ADCx: where x can be 1, 2 or 3 to select the ADC peripheral.
1225:lib/STM32F10x_StdPeriph_Driver/src/stm32f10x_adc.c ****   * @param  ADC_FLAG: specifies the flag to clear. 
1226:lib/STM32F10x_StdPeriph_Driver/src/stm32f10x_adc.c ****   *   This parameter can be any combination of the following values:
1227:lib/STM32F10x_StdPeriph_Driver/src/stm32f10x_adc.c ****   *     @arg ADC_FLAG_AWD: Analog watchdog flag
1228:lib/STM32F10x_StdPeriph_Driver/src/stm32f10x_adc.c ****   *     @arg ADC_FLAG_EOC: End of conversion flag
1229:lib/STM32F10x_StdPeriph_Driver/src/stm32f10x_adc.c ****   *     @arg ADC_FLAG_JEOC: End of injected group conversion flag
1230:lib/STM32F10x_StdPeriph_Driver/src/stm32f10x_adc.c ****   *     @arg ADC_FLAG_JSTRT: Start of injected group conversion flag
1231:lib/STM32F10x_StdPeriph_Driver/src/stm32f10x_adc.c ****   *     @arg ADC_FLAG_STRT: Start of regular group conversion flag
1232:lib/STM32F10x_StdPeriph_Driver/src/stm32f10x_adc.c ****   * @retval None
1233:lib/STM32F10x_StdPeriph_Driver/src/stm32f10x_adc.c ****   */
1234:lib/STM32F10x_StdPeriph_Driver/src/stm32f10x_adc.c **** void ADC_ClearFlag(ADC_TypeDef* ADCx, uint8_t ADC_FLAG)
1235:lib/STM32F10x_StdPeriph_Driver/src/stm32f10x_adc.c **** {
 1321              		.loc 1 1235 0
 1322              		.cfi_startproc
 1323              		@ args = 0, pretend = 0, frame = 0
 1324              		@ frame_needed = 0, uses_anonymous_args = 0
 1325              		@ link register save eliminated.
 1326              	.LVL192:
1236:lib/STM32F10x_StdPeriph_Driver/src/stm32f10x_adc.c ****   /* Check the parameters */
1237:lib/STM32F10x_StdPeriph_Driver/src/stm32f10x_adc.c ****   assert_param(IS_ADC_ALL_PERIPH(ADCx));
1238:lib/STM32F10x_StdPeriph_Driver/src/stm32f10x_adc.c ****   assert_param(IS_ADC_CLEAR_FLAG(ADC_FLAG));
1239:lib/STM32F10x_StdPeriph_Driver/src/stm32f10x_adc.c ****   /* Clear the selected ADC flags */
1240:lib/STM32F10x_StdPeriph_Driver/src/stm32f10x_adc.c ****   ADCx->SR = ~(uint32_t)ADC_FLAG;
 1327              		.loc 1 1240 0
 1328 0000 C943     		mvns	r1, r1
 1329              	.LVL193:
 1330 0002 0160     		str	r1, [r0, #0]
 1331 0004 7047     		bx	lr
 1332              		.cfi_endproc
 1333              	.LFE89:
 1335              		.section	.text.ADC_GetITStatus,"ax",%progbits
 1336              		.align	1
 1337              		.global	ADC_GetITStatus
 1338              		.thumb
 1339              		.thumb_func
 1341              	ADC_GetITStatus:
 1342              	.LFB90:
1241:lib/STM32F10x_StdPeriph_Driver/src/stm32f10x_adc.c **** }
1242:lib/STM32F10x_StdPeriph_Driver/src/stm32f10x_adc.c **** 
1243:lib/STM32F10x_StdPeriph_Driver/src/stm32f10x_adc.c **** /**
1244:lib/STM32F10x_StdPeriph_Driver/src/stm32f10x_adc.c ****   * @brief  Checks whether the specified ADC interrupt has occurred or not.
1245:lib/STM32F10x_StdPeriph_Driver/src/stm32f10x_adc.c ****   * @param  ADCx: where x can be 1, 2 or 3 to select the ADC peripheral.
1246:lib/STM32F10x_StdPeriph_Driver/src/stm32f10x_adc.c ****   * @param  ADC_IT: specifies the ADC interrupt source to check. 
1247:lib/STM32F10x_StdPeriph_Driver/src/stm32f10x_adc.c ****   *   This parameter can be one of the following values:
1248:lib/STM32F10x_StdPeriph_Driver/src/stm32f10x_adc.c ****   *     @arg ADC_IT_EOC: End of conversion interrupt mask
1249:lib/STM32F10x_StdPeriph_Driver/src/stm32f10x_adc.c ****   *     @arg ADC_IT_AWD: Analog watchdog interrupt mask
1250:lib/STM32F10x_StdPeriph_Driver/src/stm32f10x_adc.c ****   *     @arg ADC_IT_JEOC: End of injected conversion interrupt mask
1251:lib/STM32F10x_StdPeriph_Driver/src/stm32f10x_adc.c ****   * @retval The new state of ADC_IT (SET or RESET).
1252:lib/STM32F10x_StdPeriph_Driver/src/stm32f10x_adc.c ****   */
1253:lib/STM32F10x_StdPeriph_Driver/src/stm32f10x_adc.c **** ITStatus ADC_GetITStatus(ADC_TypeDef* ADCx, uint16_t ADC_IT)
1254:lib/STM32F10x_StdPeriph_Driver/src/stm32f10x_adc.c **** {
 1343              		.loc 1 1254 0
 1344              		.cfi_startproc
 1345              		@ args = 0, pretend = 0, frame = 0
 1346              		@ frame_needed = 0, uses_anonymous_args = 0
 1347              		@ link register save eliminated.
 1348              	.LVL194:
 1349              	.LVL195:
1255:lib/STM32F10x_StdPeriph_Driver/src/stm32f10x_adc.c ****   ITStatus bitstatus = RESET;
1256:lib/STM32F10x_StdPeriph_Driver/src/stm32f10x_adc.c ****   uint32_t itmask = 0, enablestatus = 0;
1257:lib/STM32F10x_StdPeriph_Driver/src/stm32f10x_adc.c ****   /* Check the parameters */
1258:lib/STM32F10x_StdPeriph_Driver/src/stm32f10x_adc.c ****   assert_param(IS_ADC_ALL_PERIPH(ADCx));
1259:lib/STM32F10x_StdPeriph_Driver/src/stm32f10x_adc.c ****   assert_param(IS_ADC_GET_IT(ADC_IT));
1260:lib/STM32F10x_StdPeriph_Driver/src/stm32f10x_adc.c ****   /* Get the ADC IT index */
1261:lib/STM32F10x_StdPeriph_Driver/src/stm32f10x_adc.c ****   itmask = ADC_IT >> 8;
1262:lib/STM32F10x_StdPeriph_Driver/src/stm32f10x_adc.c ****   /* Get the ADC_IT enable bit status */
1263:lib/STM32F10x_StdPeriph_Driver/src/stm32f10x_adc.c ****   enablestatus = (ADCx->CR1 & (uint8_t)ADC_IT) ;
 1350              		.loc 1 1263 0
 1351 0000 4368     		ldr	r3, [r0, #4]
 1352              	.LVL196:
1264:lib/STM32F10x_StdPeriph_Driver/src/stm32f10x_adc.c ****   /* Check the status of the specified ADC interrupt */
1265:lib/STM32F10x_StdPeriph_Driver/src/stm32f10x_adc.c ****   if (((ADCx->SR & itmask) != (uint32_t)RESET) && enablestatus)
 1353              		.loc 1 1265 0
 1354 0002 0068     		ldr	r0, [r0, #0]
 1355              	.LVL197:
 1356 0004 10EA1120 		ands	r0, r0, r1, lsr #8
 1357 0008 04D0     		beq	.L89
1263:lib/STM32F10x_StdPeriph_Driver/src/stm32f10x_adc.c ****   enablestatus = (ADCx->CR1 & (uint8_t)ADC_IT) ;
 1358              		.loc 1 1263 0 discriminator 1
 1359 000a C9B2     		uxtb	r1, r1
 1360              	.LVL198:
 1361              		.loc 1 1265 0 discriminator 1
 1362 000c 1942     		tst	r1, r3
1266:lib/STM32F10x_StdPeriph_Driver/src/stm32f10x_adc.c ****   {
1267:lib/STM32F10x_StdPeriph_Driver/src/stm32f10x_adc.c ****     /* ADC_IT is set */
1268:lib/STM32F10x_StdPeriph_Driver/src/stm32f10x_adc.c ****     bitstatus = SET;
 1363              		.loc 1 1268 0 discriminator 1
 1364 000e 0CBF     		ite	eq
 1365 0010 0020     		moveq	r0, #0
 1366 0012 0120     		movne	r0, #1
 1367              	.L89:
 1368              	.LVL199:
1269:lib/STM32F10x_StdPeriph_Driver/src/stm32f10x_adc.c ****   }
1270:lib/STM32F10x_StdPeriph_Driver/src/stm32f10x_adc.c ****   else
1271:lib/STM32F10x_StdPeriph_Driver/src/stm32f10x_adc.c ****   {
1272:lib/STM32F10x_StdPeriph_Driver/src/stm32f10x_adc.c ****     /* ADC_IT is reset */
1273:lib/STM32F10x_StdPeriph_Driver/src/stm32f10x_adc.c ****     bitstatus = RESET;
1274:lib/STM32F10x_StdPeriph_Driver/src/stm32f10x_adc.c ****   }
1275:lib/STM32F10x_StdPeriph_Driver/src/stm32f10x_adc.c ****   /* Return the ADC_IT status */
1276:lib/STM32F10x_StdPeriph_Driver/src/stm32f10x_adc.c ****   return  bitstatus;
1277:lib/STM32F10x_StdPeriph_Driver/src/stm32f10x_adc.c **** }
 1369              		.loc 1 1277 0
 1370 0014 7047     		bx	lr
 1371              		.cfi_endproc
 1372              	.LFE90:
 1374              		.section	.text.ADC_ClearITPendingBit,"ax",%progbits
 1375              		.align	1
 1376              		.global	ADC_ClearITPendingBit
 1377              		.thumb
 1378              		.thumb_func
 1380              	ADC_ClearITPendingBit:
 1381              	.LFB91:
1278:lib/STM32F10x_StdPeriph_Driver/src/stm32f10x_adc.c **** 
1279:lib/STM32F10x_StdPeriph_Driver/src/stm32f10x_adc.c **** /**
1280:lib/STM32F10x_StdPeriph_Driver/src/stm32f10x_adc.c ****   * @brief  Clears the ADCx's interrupt pending bits.
1281:lib/STM32F10x_StdPeriph_Driver/src/stm32f10x_adc.c ****   * @param  ADCx: where x can be 1, 2 or 3 to select the ADC peripheral.
1282:lib/STM32F10x_StdPeriph_Driver/src/stm32f10x_adc.c ****   * @param  ADC_IT: specifies the ADC interrupt pending bit to clear.
1283:lib/STM32F10x_StdPeriph_Driver/src/stm32f10x_adc.c ****   *   This parameter can be any combination of the following values:
1284:lib/STM32F10x_StdPeriph_Driver/src/stm32f10x_adc.c ****   *     @arg ADC_IT_EOC: End of conversion interrupt mask
1285:lib/STM32F10x_StdPeriph_Driver/src/stm32f10x_adc.c ****   *     @arg ADC_IT_AWD: Analog watchdog interrupt mask
1286:lib/STM32F10x_StdPeriph_Driver/src/stm32f10x_adc.c ****   *     @arg ADC_IT_JEOC: End of injected conversion interrupt mask
1287:lib/STM32F10x_StdPeriph_Driver/src/stm32f10x_adc.c ****   * @retval None
1288:lib/STM32F10x_StdPeriph_Driver/src/stm32f10x_adc.c ****   */
1289:lib/STM32F10x_StdPeriph_Driver/src/stm32f10x_adc.c **** void ADC_ClearITPendingBit(ADC_TypeDef* ADCx, uint16_t ADC_IT)
1290:lib/STM32F10x_StdPeriph_Driver/src/stm32f10x_adc.c **** {
 1382              		.loc 1 1290 0
 1383              		.cfi_startproc
 1384              		@ args = 0, pretend = 0, frame = 0
 1385              		@ frame_needed = 0, uses_anonymous_args = 0
 1386              		@ link register save eliminated.
 1387              	.LVL200:
 1388              	.LVL201:
1291:lib/STM32F10x_StdPeriph_Driver/src/stm32f10x_adc.c ****   uint8_t itmask = 0;
1292:lib/STM32F10x_StdPeriph_Driver/src/stm32f10x_adc.c ****   /* Check the parameters */
1293:lib/STM32F10x_StdPeriph_Driver/src/stm32f10x_adc.c ****   assert_param(IS_ADC_ALL_PERIPH(ADCx));
1294:lib/STM32F10x_StdPeriph_Driver/src/stm32f10x_adc.c ****   assert_param(IS_ADC_IT(ADC_IT));
1295:lib/STM32F10x_StdPeriph_Driver/src/stm32f10x_adc.c ****   /* Get the ADC IT index */
1296:lib/STM32F10x_StdPeriph_Driver/src/stm32f10x_adc.c ****   itmask = (uint8_t)(ADC_IT >> 8);
1297:lib/STM32F10x_StdPeriph_Driver/src/stm32f10x_adc.c ****   /* Clear the selected ADC interrupt pending bits */
1298:lib/STM32F10x_StdPeriph_Driver/src/stm32f10x_adc.c ****   ADCx->SR = ~(uint32_t)itmask;
 1389              		.loc 1 1298 0
 1390 0000 6FEA1121 		mvn	r1, r1, lsr #8
 1391              	.LVL202:
 1392 0004 0160     		str	r1, [r0, #0]
 1393 0006 7047     		bx	lr
 1394              		.cfi_endproc
 1395              	.LFE91:
 1397              		.text
 1398              	.Letext0:
 1399              		.file 2 "c:\\devz\\arm\\launchpad\\bin\\../lib/gcc/arm-none-eabi/4.7.3/include/stdint-gcc.h"
 1400              		.file 3 "./lib/CMSIS/Device/ST/STM32F10x/Include/stm32f10x.h"
 1401              		.file 4 "./lib/STM32F10x_StdPeriph_Driver/inc/stm32f10x_adc.h"
 1402              		.file 5 "./lib/CMSIS/Include/core_cm3.h"
 1403              		.file 6 "./lib/STM32F10x_StdPeriph_Driver/inc/stm32f10x_rcc.h"