   1              		.syntax unified
   2              		.cpu cortex-m3
   3              		.fpu softvfp
   4              		.eabi_attribute 20, 1
   5              		.eabi_attribute 21, 1
   6              		.eabi_attribute 23, 3
   7              		.eabi_attribute 24, 1
   8              		.eabi_attribute 25, 1
   9              		.eabi_attribute 26, 1
  10              		.eabi_attribute 30, 4
  11              		.eabi_attribute 34, 0
  12              		.eabi_attribute 18, 4
  13              		.thumb
  14              		.file	"stm32f10x_dma.c"
  15              		.text
  16              	.Ltext0:
  17              		.cfi_sections	.debug_frame
  18              		.section	.text.DMA_DeInit,"ax",%progbits
  19              		.align	1
  20              		.global	DMA_DeInit
  21              		.thumb
  22              		.thumb_func
  24              	DMA_DeInit:
  25              	.LFB56:
  26              		.file 1 "lib/STM32F10x_StdPeriph_Driver/src/stm32f10x_dma.c"
   1:lib/STM32F10x_StdPeriph_Driver/src/stm32f10x_dma.c **** /**
   2:lib/STM32F10x_StdPeriph_Driver/src/stm32f10x_dma.c ****   ******************************************************************************
   3:lib/STM32F10x_StdPeriph_Driver/src/stm32f10x_dma.c ****   * @file    stm32f10x_dma.c
   4:lib/STM32F10x_StdPeriph_Driver/src/stm32f10x_dma.c ****   * @author  MCD Application Team
   5:lib/STM32F10x_StdPeriph_Driver/src/stm32f10x_dma.c ****   * @version V3.6.1
   6:lib/STM32F10x_StdPeriph_Driver/src/stm32f10x_dma.c ****   * @date    05-March-2012
   7:lib/STM32F10x_StdPeriph_Driver/src/stm32f10x_dma.c ****   * @brief   This file provides all the DMA firmware functions.
   8:lib/STM32F10x_StdPeriph_Driver/src/stm32f10x_dma.c ****   ******************************************************************************
   9:lib/STM32F10x_StdPeriph_Driver/src/stm32f10x_dma.c ****   * @attention
  10:lib/STM32F10x_StdPeriph_Driver/src/stm32f10x_dma.c ****   *
  11:lib/STM32F10x_StdPeriph_Driver/src/stm32f10x_dma.c ****   * <h2><center>&copy; COPYRIGHT 2012 STMicroelectronics</center></h2>
  12:lib/STM32F10x_StdPeriph_Driver/src/stm32f10x_dma.c ****   *
  13:lib/STM32F10x_StdPeriph_Driver/src/stm32f10x_dma.c ****   * Licensed under MCD-ST Liberty SW License Agreement V2, (the "License");
  14:lib/STM32F10x_StdPeriph_Driver/src/stm32f10x_dma.c ****   * You may not use this file except in compliance with the License.
  15:lib/STM32F10x_StdPeriph_Driver/src/stm32f10x_dma.c ****   * You may obtain a copy of the License at:
  16:lib/STM32F10x_StdPeriph_Driver/src/stm32f10x_dma.c ****   *
  17:lib/STM32F10x_StdPeriph_Driver/src/stm32f10x_dma.c ****   *        http://www.st.com/software_license_agreement_liberty_v2
  18:lib/STM32F10x_StdPeriph_Driver/src/stm32f10x_dma.c ****   *
  19:lib/STM32F10x_StdPeriph_Driver/src/stm32f10x_dma.c ****   * Unless required by applicable law or agreed to in writing, software 
  20:lib/STM32F10x_StdPeriph_Driver/src/stm32f10x_dma.c ****   * distributed under the License is distributed on an "AS IS" BASIS, 
  21:lib/STM32F10x_StdPeriph_Driver/src/stm32f10x_dma.c ****   * WITHOUT WARRANTIES OR CONDITIONS OF ANY KIND, either express or implied.
  22:lib/STM32F10x_StdPeriph_Driver/src/stm32f10x_dma.c ****   * See the License for the specific language governing permissions and
  23:lib/STM32F10x_StdPeriph_Driver/src/stm32f10x_dma.c ****   * limitations under the License.
  24:lib/STM32F10x_StdPeriph_Driver/src/stm32f10x_dma.c ****   *
  25:lib/STM32F10x_StdPeriph_Driver/src/stm32f10x_dma.c ****   ******************************************************************************
  26:lib/STM32F10x_StdPeriph_Driver/src/stm32f10x_dma.c ****   */
  27:lib/STM32F10x_StdPeriph_Driver/src/stm32f10x_dma.c **** 
  28:lib/STM32F10x_StdPeriph_Driver/src/stm32f10x_dma.c **** /* Includes ------------------------------------------------------------------*/
  29:lib/STM32F10x_StdPeriph_Driver/src/stm32f10x_dma.c **** #include "stm32f10x_dma.h"
  30:lib/STM32F10x_StdPeriph_Driver/src/stm32f10x_dma.c **** #include "stm32f10x_rcc.h"
  31:lib/STM32F10x_StdPeriph_Driver/src/stm32f10x_dma.c **** 
  32:lib/STM32F10x_StdPeriph_Driver/src/stm32f10x_dma.c **** /** @addtogroup STM32F10x_StdPeriph_Driver
  33:lib/STM32F10x_StdPeriph_Driver/src/stm32f10x_dma.c ****   * @{
  34:lib/STM32F10x_StdPeriph_Driver/src/stm32f10x_dma.c ****   */
  35:lib/STM32F10x_StdPeriph_Driver/src/stm32f10x_dma.c **** 
  36:lib/STM32F10x_StdPeriph_Driver/src/stm32f10x_dma.c **** /** @defgroup DMA 
  37:lib/STM32F10x_StdPeriph_Driver/src/stm32f10x_dma.c ****   * @brief DMA driver modules
  38:lib/STM32F10x_StdPeriph_Driver/src/stm32f10x_dma.c ****   * @{
  39:lib/STM32F10x_StdPeriph_Driver/src/stm32f10x_dma.c ****   */ 
  40:lib/STM32F10x_StdPeriph_Driver/src/stm32f10x_dma.c **** 
  41:lib/STM32F10x_StdPeriph_Driver/src/stm32f10x_dma.c **** /** @defgroup DMA_Private_TypesDefinitions
  42:lib/STM32F10x_StdPeriph_Driver/src/stm32f10x_dma.c ****   * @{
  43:lib/STM32F10x_StdPeriph_Driver/src/stm32f10x_dma.c ****   */ 
  44:lib/STM32F10x_StdPeriph_Driver/src/stm32f10x_dma.c **** /**
  45:lib/STM32F10x_StdPeriph_Driver/src/stm32f10x_dma.c ****   * @}
  46:lib/STM32F10x_StdPeriph_Driver/src/stm32f10x_dma.c ****   */
  47:lib/STM32F10x_StdPeriph_Driver/src/stm32f10x_dma.c **** 
  48:lib/STM32F10x_StdPeriph_Driver/src/stm32f10x_dma.c **** /** @defgroup DMA_Private_Defines
  49:lib/STM32F10x_StdPeriph_Driver/src/stm32f10x_dma.c ****   * @{
  50:lib/STM32F10x_StdPeriph_Driver/src/stm32f10x_dma.c ****   */
  51:lib/STM32F10x_StdPeriph_Driver/src/stm32f10x_dma.c **** 
  52:lib/STM32F10x_StdPeriph_Driver/src/stm32f10x_dma.c **** 
  53:lib/STM32F10x_StdPeriph_Driver/src/stm32f10x_dma.c **** /* DMA1 Channelx interrupt pending bit masks */
  54:lib/STM32F10x_StdPeriph_Driver/src/stm32f10x_dma.c **** #define DMA1_Channel1_IT_Mask    ((uint32_t)(DMA_ISR_GIF1 | DMA_ISR_TCIF1 | DMA_ISR_HTIF1 | DMA_ISR
  55:lib/STM32F10x_StdPeriph_Driver/src/stm32f10x_dma.c **** #define DMA1_Channel2_IT_Mask    ((uint32_t)(DMA_ISR_GIF2 | DMA_ISR_TCIF2 | DMA_ISR_HTIF2 | DMA_ISR
  56:lib/STM32F10x_StdPeriph_Driver/src/stm32f10x_dma.c **** #define DMA1_Channel3_IT_Mask    ((uint32_t)(DMA_ISR_GIF3 | DMA_ISR_TCIF3 | DMA_ISR_HTIF3 | DMA_ISR
  57:lib/STM32F10x_StdPeriph_Driver/src/stm32f10x_dma.c **** #define DMA1_Channel4_IT_Mask    ((uint32_t)(DMA_ISR_GIF4 | DMA_ISR_TCIF4 | DMA_ISR_HTIF4 | DMA_ISR
  58:lib/STM32F10x_StdPeriph_Driver/src/stm32f10x_dma.c **** #define DMA1_Channel5_IT_Mask    ((uint32_t)(DMA_ISR_GIF5 | DMA_ISR_TCIF5 | DMA_ISR_HTIF5 | DMA_ISR
  59:lib/STM32F10x_StdPeriph_Driver/src/stm32f10x_dma.c **** #define DMA1_Channel6_IT_Mask    ((uint32_t)(DMA_ISR_GIF6 | DMA_ISR_TCIF6 | DMA_ISR_HTIF6 | DMA_ISR
  60:lib/STM32F10x_StdPeriph_Driver/src/stm32f10x_dma.c **** #define DMA1_Channel7_IT_Mask    ((uint32_t)(DMA_ISR_GIF7 | DMA_ISR_TCIF7 | DMA_ISR_HTIF7 | DMA_ISR
  61:lib/STM32F10x_StdPeriph_Driver/src/stm32f10x_dma.c **** 
  62:lib/STM32F10x_StdPeriph_Driver/src/stm32f10x_dma.c **** /* DMA2 Channelx interrupt pending bit masks */
  63:lib/STM32F10x_StdPeriph_Driver/src/stm32f10x_dma.c **** #define DMA2_Channel1_IT_Mask    ((uint32_t)(DMA_ISR_GIF1 | DMA_ISR_TCIF1 | DMA_ISR_HTIF1 | DMA_ISR
  64:lib/STM32F10x_StdPeriph_Driver/src/stm32f10x_dma.c **** #define DMA2_Channel2_IT_Mask    ((uint32_t)(DMA_ISR_GIF2 | DMA_ISR_TCIF2 | DMA_ISR_HTIF2 | DMA_ISR
  65:lib/STM32F10x_StdPeriph_Driver/src/stm32f10x_dma.c **** #define DMA2_Channel3_IT_Mask    ((uint32_t)(DMA_ISR_GIF3 | DMA_ISR_TCIF3 | DMA_ISR_HTIF3 | DMA_ISR
  66:lib/STM32F10x_StdPeriph_Driver/src/stm32f10x_dma.c **** #define DMA2_Channel4_IT_Mask    ((uint32_t)(DMA_ISR_GIF4 | DMA_ISR_TCIF4 | DMA_ISR_HTIF4 | DMA_ISR
  67:lib/STM32F10x_StdPeriph_Driver/src/stm32f10x_dma.c **** #define DMA2_Channel5_IT_Mask    ((uint32_t)(DMA_ISR_GIF5 | DMA_ISR_TCIF5 | DMA_ISR_HTIF5 | DMA_ISR
  68:lib/STM32F10x_StdPeriph_Driver/src/stm32f10x_dma.c **** 
  69:lib/STM32F10x_StdPeriph_Driver/src/stm32f10x_dma.c **** /* DMA2 FLAG mask */
  70:lib/STM32F10x_StdPeriph_Driver/src/stm32f10x_dma.c **** #define FLAG_Mask                ((uint32_t)0x10000000)
  71:lib/STM32F10x_StdPeriph_Driver/src/stm32f10x_dma.c **** 
  72:lib/STM32F10x_StdPeriph_Driver/src/stm32f10x_dma.c **** /* DMA registers Masks */
  73:lib/STM32F10x_StdPeriph_Driver/src/stm32f10x_dma.c **** #define CCR_CLEAR_Mask           ((uint32_t)0xFFFF800F)
  74:lib/STM32F10x_StdPeriph_Driver/src/stm32f10x_dma.c **** 
  75:lib/STM32F10x_StdPeriph_Driver/src/stm32f10x_dma.c **** /**
  76:lib/STM32F10x_StdPeriph_Driver/src/stm32f10x_dma.c ****   * @}
  77:lib/STM32F10x_StdPeriph_Driver/src/stm32f10x_dma.c ****   */
  78:lib/STM32F10x_StdPeriph_Driver/src/stm32f10x_dma.c **** 
  79:lib/STM32F10x_StdPeriph_Driver/src/stm32f10x_dma.c **** /** @defgroup DMA_Private_Macros
  80:lib/STM32F10x_StdPeriph_Driver/src/stm32f10x_dma.c ****   * @{
  81:lib/STM32F10x_StdPeriph_Driver/src/stm32f10x_dma.c ****   */
  82:lib/STM32F10x_StdPeriph_Driver/src/stm32f10x_dma.c **** 
  83:lib/STM32F10x_StdPeriph_Driver/src/stm32f10x_dma.c **** /**
  84:lib/STM32F10x_StdPeriph_Driver/src/stm32f10x_dma.c ****   * @}
  85:lib/STM32F10x_StdPeriph_Driver/src/stm32f10x_dma.c ****   */
  86:lib/STM32F10x_StdPeriph_Driver/src/stm32f10x_dma.c **** 
  87:lib/STM32F10x_StdPeriph_Driver/src/stm32f10x_dma.c **** /** @defgroup DMA_Private_Variables
  88:lib/STM32F10x_StdPeriph_Driver/src/stm32f10x_dma.c ****   * @{
  89:lib/STM32F10x_StdPeriph_Driver/src/stm32f10x_dma.c ****   */
  90:lib/STM32F10x_StdPeriph_Driver/src/stm32f10x_dma.c **** 
  91:lib/STM32F10x_StdPeriph_Driver/src/stm32f10x_dma.c **** /**
  92:lib/STM32F10x_StdPeriph_Driver/src/stm32f10x_dma.c ****   * @}
  93:lib/STM32F10x_StdPeriph_Driver/src/stm32f10x_dma.c ****   */
  94:lib/STM32F10x_StdPeriph_Driver/src/stm32f10x_dma.c **** 
  95:lib/STM32F10x_StdPeriph_Driver/src/stm32f10x_dma.c **** /** @defgroup DMA_Private_FunctionPrototypes
  96:lib/STM32F10x_StdPeriph_Driver/src/stm32f10x_dma.c ****   * @{
  97:lib/STM32F10x_StdPeriph_Driver/src/stm32f10x_dma.c ****   */
  98:lib/STM32F10x_StdPeriph_Driver/src/stm32f10x_dma.c **** 
  99:lib/STM32F10x_StdPeriph_Driver/src/stm32f10x_dma.c **** /**
 100:lib/STM32F10x_StdPeriph_Driver/src/stm32f10x_dma.c ****   * @}
 101:lib/STM32F10x_StdPeriph_Driver/src/stm32f10x_dma.c ****   */
 102:lib/STM32F10x_StdPeriph_Driver/src/stm32f10x_dma.c **** 
 103:lib/STM32F10x_StdPeriph_Driver/src/stm32f10x_dma.c **** /** @defgroup DMA_Private_Functions
 104:lib/STM32F10x_StdPeriph_Driver/src/stm32f10x_dma.c ****   * @{
 105:lib/STM32F10x_StdPeriph_Driver/src/stm32f10x_dma.c ****   */
 106:lib/STM32F10x_StdPeriph_Driver/src/stm32f10x_dma.c **** 
 107:lib/STM32F10x_StdPeriph_Driver/src/stm32f10x_dma.c **** /**
 108:lib/STM32F10x_StdPeriph_Driver/src/stm32f10x_dma.c ****   * @brief  Deinitializes the DMAy Channelx registers to their default reset
 109:lib/STM32F10x_StdPeriph_Driver/src/stm32f10x_dma.c ****   *         values.
 110:lib/STM32F10x_StdPeriph_Driver/src/stm32f10x_dma.c ****   * @param  DMAy_Channelx: where y can be 1 or 2 to select the DMA and
 111:lib/STM32F10x_StdPeriph_Driver/src/stm32f10x_dma.c ****   *   x can be 1 to 7 for DMA1 and 1 to 5 for DMA2 to select the DMA Channel.
 112:lib/STM32F10x_StdPeriph_Driver/src/stm32f10x_dma.c ****   * @retval None
 113:lib/STM32F10x_StdPeriph_Driver/src/stm32f10x_dma.c ****   */
 114:lib/STM32F10x_StdPeriph_Driver/src/stm32f10x_dma.c **** void DMA_DeInit(DMA_Channel_TypeDef* DMAy_Channelx)
 115:lib/STM32F10x_StdPeriph_Driver/src/stm32f10x_dma.c **** {
  27              		.loc 1 115 0
  28              		.cfi_startproc
  29              		@ args = 0, pretend = 0, frame = 0
  30              		@ frame_needed = 0, uses_anonymous_args = 0
  31              		@ link register save eliminated.
  32              	.LVL0:
 116:lib/STM32F10x_StdPeriph_Driver/src/stm32f10x_dma.c ****   /* Check the parameters */
 117:lib/STM32F10x_StdPeriph_Driver/src/stm32f10x_dma.c ****   assert_param(IS_DMA_ALL_PERIPH(DMAy_Channelx));
 118:lib/STM32F10x_StdPeriph_Driver/src/stm32f10x_dma.c ****   
 119:lib/STM32F10x_StdPeriph_Driver/src/stm32f10x_dma.c ****   /* Disable the selected DMAy Channelx */
 120:lib/STM32F10x_StdPeriph_Driver/src/stm32f10x_dma.c ****   DMAy_Channelx->CCR &= (uint16_t)(~DMA_CCR1_EN);
  33              		.loc 1 120 0
  34 0000 0268     		ldr	r2, [r0, #0]
  35 0002 4FF6FE73 		movw	r3, #65534
  36 0006 1340     		ands	r3, r3, r2
  37 0008 0360     		str	r3, [r0, #0]
 121:lib/STM32F10x_StdPeriph_Driver/src/stm32f10x_dma.c ****   
 122:lib/STM32F10x_StdPeriph_Driver/src/stm32f10x_dma.c ****   /* Reset DMAy Channelx control register */
 123:lib/STM32F10x_StdPeriph_Driver/src/stm32f10x_dma.c ****   DMAy_Channelx->CCR  = 0;
  38              		.loc 1 123 0
  39 000a 0021     		movs	r1, #0
  40 000c 0160     		str	r1, [r0, #0]
 124:lib/STM32F10x_StdPeriph_Driver/src/stm32f10x_dma.c ****   
 125:lib/STM32F10x_StdPeriph_Driver/src/stm32f10x_dma.c ****   /* Reset DMAy Channelx remaining bytes register */
 126:lib/STM32F10x_StdPeriph_Driver/src/stm32f10x_dma.c ****   DMAy_Channelx->CNDTR = 0;
  41              		.loc 1 126 0
  42 000e 4160     		str	r1, [r0, #4]
 127:lib/STM32F10x_StdPeriph_Driver/src/stm32f10x_dma.c ****   
 128:lib/STM32F10x_StdPeriph_Driver/src/stm32f10x_dma.c ****   /* Reset DMAy Channelx peripheral address register */
 129:lib/STM32F10x_StdPeriph_Driver/src/stm32f10x_dma.c ****   DMAy_Channelx->CPAR  = 0;
  43              		.loc 1 129 0
  44 0010 8160     		str	r1, [r0, #8]
 130:lib/STM32F10x_StdPeriph_Driver/src/stm32f10x_dma.c ****   
 131:lib/STM32F10x_StdPeriph_Driver/src/stm32f10x_dma.c ****   /* Reset DMAy Channelx memory address register */
 132:lib/STM32F10x_StdPeriph_Driver/src/stm32f10x_dma.c ****   DMAy_Channelx->CMAR = 0;
  45              		.loc 1 132 0
  46 0012 C160     		str	r1, [r0, #12]
 133:lib/STM32F10x_StdPeriph_Driver/src/stm32f10x_dma.c ****   
 134:lib/STM32F10x_StdPeriph_Driver/src/stm32f10x_dma.c ****   if (DMAy_Channelx == DMA1_Channel1)
  47              		.loc 1 134 0
  48 0014 2A4B     		ldr	r3, .L20
  49 0016 9842     		cmp	r0, r3
  50 0018 22D0     		beq	.L14
  51              	.L2:
 135:lib/STM32F10x_StdPeriph_Driver/src/stm32f10x_dma.c ****   {
 136:lib/STM32F10x_StdPeriph_Driver/src/stm32f10x_dma.c ****     /* Reset interrupt pending bits for DMA1 Channel1 */
 137:lib/STM32F10x_StdPeriph_Driver/src/stm32f10x_dma.c ****     DMA1->IFCR |= DMA1_Channel1_IT_Mask;
 138:lib/STM32F10x_StdPeriph_Driver/src/stm32f10x_dma.c ****   }
 139:lib/STM32F10x_StdPeriph_Driver/src/stm32f10x_dma.c ****   else if (DMAy_Channelx == DMA1_Channel2)
  52              		.loc 1 139 0
  53 001a 2A49     		ldr	r1, .L20+4
  54 001c 8842     		cmp	r0, r1
  55 001e 29D0     		beq	.L15
  56              	.L4:
 140:lib/STM32F10x_StdPeriph_Driver/src/stm32f10x_dma.c ****   {
 141:lib/STM32F10x_StdPeriph_Driver/src/stm32f10x_dma.c ****     /* Reset interrupt pending bits for DMA1 Channel2 */
 142:lib/STM32F10x_StdPeriph_Driver/src/stm32f10x_dma.c ****     DMA1->IFCR |= DMA1_Channel2_IT_Mask;
 143:lib/STM32F10x_StdPeriph_Driver/src/stm32f10x_dma.c ****   }
 144:lib/STM32F10x_StdPeriph_Driver/src/stm32f10x_dma.c ****   else if (DMAy_Channelx == DMA1_Channel3)
  57              		.loc 1 144 0
  58 0020 294B     		ldr	r3, .L20+8
  59 0022 9842     		cmp	r0, r3
  60 0024 30D0     		beq	.L16
  61              	.L5:
 145:lib/STM32F10x_StdPeriph_Driver/src/stm32f10x_dma.c ****   {
 146:lib/STM32F10x_StdPeriph_Driver/src/stm32f10x_dma.c ****     /* Reset interrupt pending bits for DMA1 Channel3 */
 147:lib/STM32F10x_StdPeriph_Driver/src/stm32f10x_dma.c ****     DMA1->IFCR |= DMA1_Channel3_IT_Mask;
 148:lib/STM32F10x_StdPeriph_Driver/src/stm32f10x_dma.c ****   }
 149:lib/STM32F10x_StdPeriph_Driver/src/stm32f10x_dma.c ****   else if (DMAy_Channelx == DMA1_Channel4)
  62              		.loc 1 149 0
  63 0026 2949     		ldr	r1, .L20+12
  64 0028 8842     		cmp	r0, r1
  65 002a 37D0     		beq	.L17
  66              	.L6:
 150:lib/STM32F10x_StdPeriph_Driver/src/stm32f10x_dma.c ****   {
 151:lib/STM32F10x_StdPeriph_Driver/src/stm32f10x_dma.c ****     /* Reset interrupt pending bits for DMA1 Channel4 */
 152:lib/STM32F10x_StdPeriph_Driver/src/stm32f10x_dma.c ****     DMA1->IFCR |= DMA1_Channel4_IT_Mask;
 153:lib/STM32F10x_StdPeriph_Driver/src/stm32f10x_dma.c ****   }
 154:lib/STM32F10x_StdPeriph_Driver/src/stm32f10x_dma.c ****   else if (DMAy_Channelx == DMA1_Channel5)
  67              		.loc 1 154 0
  68 002c 284B     		ldr	r3, .L20+16
  69 002e 9842     		cmp	r0, r3
  70 0030 3ED0     		beq	.L18
  71              	.L7:
 155:lib/STM32F10x_StdPeriph_Driver/src/stm32f10x_dma.c ****   {
 156:lib/STM32F10x_StdPeriph_Driver/src/stm32f10x_dma.c ****     /* Reset interrupt pending bits for DMA1 Channel5 */
 157:lib/STM32F10x_StdPeriph_Driver/src/stm32f10x_dma.c ****     DMA1->IFCR |= DMA1_Channel5_IT_Mask;
 158:lib/STM32F10x_StdPeriph_Driver/src/stm32f10x_dma.c ****   }
 159:lib/STM32F10x_StdPeriph_Driver/src/stm32f10x_dma.c ****   else if (DMAy_Channelx == DMA1_Channel6)
  72              		.loc 1 159 0
  73 0032 284B     		ldr	r3, .L20+20
  74 0034 9842     		cmp	r0, r3
  75 0036 06D1     		bne	.L8
 160:lib/STM32F10x_StdPeriph_Driver/src/stm32f10x_dma.c ****   {
 161:lib/STM32F10x_StdPeriph_Driver/src/stm32f10x_dma.c ****     /* Reset interrupt pending bits for DMA1 Channel6 */
 162:lib/STM32F10x_StdPeriph_Driver/src/stm32f10x_dma.c ****     DMA1->IFCR |= DMA1_Channel6_IT_Mask;
  76              		.loc 1 162 0
  77 0038 53F8681C 		ldr	r1, [r3, #-104]
  78 003c 41F47000 		orr	r0, r1, #15728640
  79              	.LVL1:
  80 0040 43F8680C 		str	r0, [r3, #-104]
  81 0044 7047     		bx	lr
  82              	.LVL2:
  83              	.L8:
 163:lib/STM32F10x_StdPeriph_Driver/src/stm32f10x_dma.c ****   }
 164:lib/STM32F10x_StdPeriph_Driver/src/stm32f10x_dma.c ****   else if (DMAy_Channelx == DMA1_Channel7)
  84              		.loc 1 164 0
  85 0046 2449     		ldr	r1, .L20+24
  86 0048 8842     		cmp	r0, r1
  87 004a 06D1     		bne	.L9
 165:lib/STM32F10x_StdPeriph_Driver/src/stm32f10x_dma.c ****   {
 166:lib/STM32F10x_StdPeriph_Driver/src/stm32f10x_dma.c ****     /* Reset interrupt pending bits for DMA1 Channel7 */
 167:lib/STM32F10x_StdPeriph_Driver/src/stm32f10x_dma.c ****     DMA1->IFCR |= DMA1_Channel7_IT_Mask;
  88              		.loc 1 167 0
  89 004c 51F87C0C 		ldr	r0, [r1, #-124]
  90              	.LVL3:
  91 0050 40F07062 		orr	r2, r0, #251658240
  92 0054 41F87C2C 		str	r2, [r1, #-124]
  93 0058 7047     		bx	lr
  94              	.LVL4:
  95              	.L9:
 168:lib/STM32F10x_StdPeriph_Driver/src/stm32f10x_dma.c ****   }
 169:lib/STM32F10x_StdPeriph_Driver/src/stm32f10x_dma.c ****   else if (DMAy_Channelx == DMA2_Channel1)
  96              		.loc 1 169 0
  97 005a 204B     		ldr	r3, .L20+28
  98 005c 9842     		cmp	r0, r3
  99 005e 06D1     		bne	.L10
 100              	.L14:
 170:lib/STM32F10x_StdPeriph_Driver/src/stm32f10x_dma.c ****   {
 171:lib/STM32F10x_StdPeriph_Driver/src/stm32f10x_dma.c ****     /* Reset interrupt pending bits for DMA2 Channel1 */
 172:lib/STM32F10x_StdPeriph_Driver/src/stm32f10x_dma.c ****     DMA2->IFCR |= DMA2_Channel1_IT_Mask;
 101              		.loc 1 172 0
 102 0060 53F8042C 		ldr	r2, [r3, #-4]
 103 0064 42F00F01 		orr	r1, r2, #15
 104 0068 43F8041C 		str	r1, [r3, #-4]
 105 006c 7047     		bx	lr
 106              	.L10:
 173:lib/STM32F10x_StdPeriph_Driver/src/stm32f10x_dma.c ****   }
 174:lib/STM32F10x_StdPeriph_Driver/src/stm32f10x_dma.c ****   else if (DMAy_Channelx == DMA2_Channel2)
 107              		.loc 1 174 0
 108 006e 1C49     		ldr	r1, .L20+32
 109 0070 8842     		cmp	r0, r1
 110 0072 06D1     		bne	.L11
 111              	.L15:
 175:lib/STM32F10x_StdPeriph_Driver/src/stm32f10x_dma.c ****   {
 176:lib/STM32F10x_StdPeriph_Driver/src/stm32f10x_dma.c ****     /* Reset interrupt pending bits for DMA2 Channel2 */
 177:lib/STM32F10x_StdPeriph_Driver/src/stm32f10x_dma.c ****     DMA2->IFCR |= DMA2_Channel2_IT_Mask;
 112              		.loc 1 177 0
 113 0074 51F8183C 		ldr	r3, [r1, #-24]
 114 0078 43F0F000 		orr	r0, r3, #240
 115              	.LVL5:
 116 007c 41F8180C 		str	r0, [r1, #-24]
 117 0080 7047     		bx	lr
 118              	.LVL6:
 119              	.L11:
 178:lib/STM32F10x_StdPeriph_Driver/src/stm32f10x_dma.c ****   }
 179:lib/STM32F10x_StdPeriph_Driver/src/stm32f10x_dma.c ****   else if (DMAy_Channelx == DMA2_Channel3)
 120              		.loc 1 179 0
 121 0082 184B     		ldr	r3, .L20+36
 122 0084 9842     		cmp	r0, r3
 123 0086 06D1     		bne	.L12
 124              	.L16:
 180:lib/STM32F10x_StdPeriph_Driver/src/stm32f10x_dma.c ****   {
 181:lib/STM32F10x_StdPeriph_Driver/src/stm32f10x_dma.c ****     /* Reset interrupt pending bits for DMA2 Channel3 */
 182:lib/STM32F10x_StdPeriph_Driver/src/stm32f10x_dma.c ****     DMA2->IFCR |= DMA2_Channel3_IT_Mask;
 125              		.loc 1 182 0
 126 0088 53F82C2C 		ldr	r2, [r3, #-44]
 127 008c 42F47061 		orr	r1, r2, #3840
 128 0090 43F82C1C 		str	r1, [r3, #-44]
 129 0094 7047     		bx	lr
 130              	.L12:
 183:lib/STM32F10x_StdPeriph_Driver/src/stm32f10x_dma.c ****   }
 184:lib/STM32F10x_StdPeriph_Driver/src/stm32f10x_dma.c ****   else if (DMAy_Channelx == DMA2_Channel4)
 131              		.loc 1 184 0
 132 0096 1449     		ldr	r1, .L20+40
 133 0098 8842     		cmp	r0, r1
 134 009a 06D1     		bne	.L13
 135              	.L17:
 185:lib/STM32F10x_StdPeriph_Driver/src/stm32f10x_dma.c ****   {
 186:lib/STM32F10x_StdPeriph_Driver/src/stm32f10x_dma.c ****     /* Reset interrupt pending bits for DMA2 Channel4 */
 187:lib/STM32F10x_StdPeriph_Driver/src/stm32f10x_dma.c ****     DMA2->IFCR |= DMA2_Channel4_IT_Mask;
 136              		.loc 1 187 0
 137 009c 51F8403C 		ldr	r3, [r1, #-64]
 138 00a0 43F47040 		orr	r0, r3, #61440
 139              	.LVL7:
 140 00a4 41F8400C 		str	r0, [r1, #-64]
 141 00a8 7047     		bx	lr
 142              	.LVL8:
 143              	.L13:
 188:lib/STM32F10x_StdPeriph_Driver/src/stm32f10x_dma.c ****   }
 189:lib/STM32F10x_StdPeriph_Driver/src/stm32f10x_dma.c ****   else
 190:lib/STM32F10x_StdPeriph_Driver/src/stm32f10x_dma.c ****   { 
 191:lib/STM32F10x_StdPeriph_Driver/src/stm32f10x_dma.c ****     if (DMAy_Channelx == DMA2_Channel5)
 144              		.loc 1 191 0
 145 00aa 104B     		ldr	r3, .L20+44
 146 00ac 9842     		cmp	r0, r3
 147 00ae 05D1     		bne	.L1
 148              	.L18:
 192:lib/STM32F10x_StdPeriph_Driver/src/stm32f10x_dma.c ****     {
 193:lib/STM32F10x_StdPeriph_Driver/src/stm32f10x_dma.c ****       /* Reset interrupt pending bits for DMA2 Channel5 */
 194:lib/STM32F10x_StdPeriph_Driver/src/stm32f10x_dma.c ****       DMA2->IFCR |= DMA2_Channel5_IT_Mask;
 149              		.loc 1 194 0
 150 00b0 53F8542C 		ldr	r2, [r3, #-84]
 151 00b4 42F47021 		orr	r1, r2, #983040
 152 00b8 43F8541C 		str	r1, [r3, #-84]
 153              	.L1:
 154 00bc 7047     		bx	lr
 155              	.L21:
 156 00be 00BF     		.align	2
 157              	.L20:
 158 00c0 08000240 		.word	1073872904
 159 00c4 1C000240 		.word	1073872924
 160 00c8 30000240 		.word	1073872944
 161 00cc 44000240 		.word	1073872964
 162 00d0 58000240 		.word	1073872984
 163 00d4 6C000240 		.word	1073873004
 164 00d8 80000240 		.word	1073873024
 165 00dc 08040240 		.word	1073873928
 166 00e0 1C040240 		.word	1073873948
 167 00e4 30040240 		.word	1073873968
 168 00e8 44040240 		.word	1073873988
 169 00ec 58040240 		.word	1073874008
 170              		.cfi_endproc
 171              	.LFE56:
 173              		.section	.text.DMA_Init,"ax",%progbits
 174              		.align	1
 175              		.global	DMA_Init
 176              		.thumb
 177              		.thumb_func
 179              	DMA_Init:
 180              	.LFB57:
 195:lib/STM32F10x_StdPeriph_Driver/src/stm32f10x_dma.c ****     }
 196:lib/STM32F10x_StdPeriph_Driver/src/stm32f10x_dma.c ****   }
 197:lib/STM32F10x_StdPeriph_Driver/src/stm32f10x_dma.c **** }
 198:lib/STM32F10x_StdPeriph_Driver/src/stm32f10x_dma.c **** 
 199:lib/STM32F10x_StdPeriph_Driver/src/stm32f10x_dma.c **** /**
 200:lib/STM32F10x_StdPeriph_Driver/src/stm32f10x_dma.c ****   * @brief  Initializes the DMAy Channelx according to the specified
 201:lib/STM32F10x_StdPeriph_Driver/src/stm32f10x_dma.c ****   *         parameters in the DMA_InitStruct.
 202:lib/STM32F10x_StdPeriph_Driver/src/stm32f10x_dma.c ****   * @param  DMAy_Channelx: where y can be 1 or 2 to select the DMA and 
 203:lib/STM32F10x_StdPeriph_Driver/src/stm32f10x_dma.c ****   *   x can be 1 to 7 for DMA1 and 1 to 5 for DMA2 to select the DMA Channel.
 204:lib/STM32F10x_StdPeriph_Driver/src/stm32f10x_dma.c ****   * @param  DMA_InitStruct: pointer to a DMA_InitTypeDef structure that
 205:lib/STM32F10x_StdPeriph_Driver/src/stm32f10x_dma.c ****   *         contains the configuration information for the specified DMA Channel.
 206:lib/STM32F10x_StdPeriph_Driver/src/stm32f10x_dma.c ****   * @retval None
 207:lib/STM32F10x_StdPeriph_Driver/src/stm32f10x_dma.c ****   */
 208:lib/STM32F10x_StdPeriph_Driver/src/stm32f10x_dma.c **** void DMA_Init(DMA_Channel_TypeDef* DMAy_Channelx, DMA_InitTypeDef* DMA_InitStruct)
 209:lib/STM32F10x_StdPeriph_Driver/src/stm32f10x_dma.c **** {
 181              		.loc 1 209 0
 182              		.cfi_startproc
 183              		@ args = 0, pretend = 0, frame = 0
 184              		@ frame_needed = 0, uses_anonymous_args = 0
 185              	.LVL9:
 186 0000 70B5     		push	{r4, r5, r6, lr}
 187              	.LCFI0:
 188              		.cfi_def_cfa_offset 16
 189              		.cfi_offset 4, -16
 190              		.cfi_offset 5, -12
 191              		.cfi_offset 6, -8
 192              		.cfi_offset 14, -4
 193              	.LVL10:
 210:lib/STM32F10x_StdPeriph_Driver/src/stm32f10x_dma.c ****   uint32_t tmpreg = 0;
 211:lib/STM32F10x_StdPeriph_Driver/src/stm32f10x_dma.c **** 
 212:lib/STM32F10x_StdPeriph_Driver/src/stm32f10x_dma.c ****   /* Check the parameters */
 213:lib/STM32F10x_StdPeriph_Driver/src/stm32f10x_dma.c ****   assert_param(IS_DMA_ALL_PERIPH(DMAy_Channelx));
 214:lib/STM32F10x_StdPeriph_Driver/src/stm32f10x_dma.c ****   assert_param(IS_DMA_DIR(DMA_InitStruct->DMA_DIR));
 215:lib/STM32F10x_StdPeriph_Driver/src/stm32f10x_dma.c ****   assert_param(IS_DMA_BUFFER_SIZE(DMA_InitStruct->DMA_BufferSize));
 216:lib/STM32F10x_StdPeriph_Driver/src/stm32f10x_dma.c ****   assert_param(IS_DMA_PERIPHERAL_INC_STATE(DMA_InitStruct->DMA_PeripheralInc));
 217:lib/STM32F10x_StdPeriph_Driver/src/stm32f10x_dma.c ****   assert_param(IS_DMA_MEMORY_INC_STATE(DMA_InitStruct->DMA_MemoryInc));   
 218:lib/STM32F10x_StdPeriph_Driver/src/stm32f10x_dma.c ****   assert_param(IS_DMA_PERIPHERAL_DATA_SIZE(DMA_InitStruct->DMA_PeripheralDataSize));
 219:lib/STM32F10x_StdPeriph_Driver/src/stm32f10x_dma.c ****   assert_param(IS_DMA_MEMORY_DATA_SIZE(DMA_InitStruct->DMA_MemoryDataSize));
 220:lib/STM32F10x_StdPeriph_Driver/src/stm32f10x_dma.c ****   assert_param(IS_DMA_MODE(DMA_InitStruct->DMA_Mode));
 221:lib/STM32F10x_StdPeriph_Driver/src/stm32f10x_dma.c ****   assert_param(IS_DMA_PRIORITY(DMA_InitStruct->DMA_Priority));
 222:lib/STM32F10x_StdPeriph_Driver/src/stm32f10x_dma.c ****   assert_param(IS_DMA_M2M_STATE(DMA_InitStruct->DMA_M2M));
 223:lib/STM32F10x_StdPeriph_Driver/src/stm32f10x_dma.c **** 
 224:lib/STM32F10x_StdPeriph_Driver/src/stm32f10x_dma.c **** /*--------------------------- DMAy Channelx CCR Configuration -----------------*/
 225:lib/STM32F10x_StdPeriph_Driver/src/stm32f10x_dma.c ****   /* Get the DMAy_Channelx CCR value */
 226:lib/STM32F10x_StdPeriph_Driver/src/stm32f10x_dma.c ****   tmpreg = DMAy_Channelx->CCR;
 194              		.loc 1 226 0
 195 0002 0668     		ldr	r6, [r0, #0]
 196              	.LVL11:
 227:lib/STM32F10x_StdPeriph_Driver/src/stm32f10x_dma.c ****   /* Clear MEM2MEM, PL, MSIZE, PSIZE, MINC, PINC, CIRC and DIR bits */
 228:lib/STM32F10x_StdPeriph_Driver/src/stm32f10x_dma.c ****   tmpreg &= CCR_CLEAR_Mask;
 197              		.loc 1 228 0
 198 0004 26F4FF42 		bic	r2, r6, #32640
 199 0008 22F07006 		bic	r6, r2, #112
 200              	.LVL12:
 229:lib/STM32F10x_StdPeriph_Driver/src/stm32f10x_dma.c ****   /* Configure DMAy Channelx: data transfer, data size, priority level and mode */
 230:lib/STM32F10x_StdPeriph_Driver/src/stm32f10x_dma.c ****   /* Set DIR bit according to DMA_DIR value */
 231:lib/STM32F10x_StdPeriph_Driver/src/stm32f10x_dma.c ****   /* Set CIRC bit according to DMA_Mode value */
 232:lib/STM32F10x_StdPeriph_Driver/src/stm32f10x_dma.c ****   /* Set PINC bit according to DMA_PeripheralInc value */
 233:lib/STM32F10x_StdPeriph_Driver/src/stm32f10x_dma.c ****   /* Set MINC bit according to DMA_MemoryInc value */
 234:lib/STM32F10x_StdPeriph_Driver/src/stm32f10x_dma.c ****   /* Set PSIZE bits according to DMA_PeripheralDataSize value */
 235:lib/STM32F10x_StdPeriph_Driver/src/stm32f10x_dma.c ****   /* Set MSIZE bits according to DMA_MemoryDataSize value */
 236:lib/STM32F10x_StdPeriph_Driver/src/stm32f10x_dma.c ****   /* Set PL bits according to DMA_Priority value */
 237:lib/STM32F10x_StdPeriph_Driver/src/stm32f10x_dma.c ****   /* Set the MEM2MEM bit according to DMA_M2M value */
 238:lib/STM32F10x_StdPeriph_Driver/src/stm32f10x_dma.c ****   tmpreg |= DMA_InitStruct->DMA_DIR | DMA_InitStruct->DMA_Mode |
 201              		.loc 1 238 0
 202 000c 0D6A     		ldr	r5, [r1, #32]
 203 000e 8C68     		ldr	r4, [r1, #8]
 204 0010 45EA0403 		orr	r3, r5, r4
 205 0014 0A69     		ldr	r2, [r1, #16]
 206 0016 1343     		orrs	r3, r3, r2
 239:lib/STM32F10x_StdPeriph_Driver/src/stm32f10x_dma.c ****             DMA_InitStruct->DMA_PeripheralInc | DMA_InitStruct->DMA_MemoryInc |
 207              		.loc 1 239 0
 208 0018 4C69     		ldr	r4, [r1, #20]
 209 001a 2343     		orrs	r3, r3, r4
 210 001c 8A69     		ldr	r2, [r1, #24]
 211 001e 1343     		orrs	r3, r3, r2
 240:lib/STM32F10x_StdPeriph_Driver/src/stm32f10x_dma.c ****             DMA_InitStruct->DMA_PeripheralDataSize | DMA_InitStruct->DMA_MemoryDataSize |
 212              		.loc 1 240 0
 213 0020 CC69     		ldr	r4, [r1, #28]
 214 0022 1C43     		orrs	r4, r4, r3
 215 0024 4B6A     		ldr	r3, [r1, #36]
 216 0026 44EA0302 		orr	r2, r4, r3
 241:lib/STM32F10x_StdPeriph_Driver/src/stm32f10x_dma.c ****             DMA_InitStruct->DMA_Priority | DMA_InitStruct->DMA_M2M;
 217              		.loc 1 241 0
 218 002a 8B6A     		ldr	r3, [r1, #40]
 219 002c 1A43     		orrs	r2, r2, r3
 238:lib/STM32F10x_StdPeriph_Driver/src/stm32f10x_dma.c ****             DMA_InitStruct->DMA_PeripheralInc | DMA_InitStruct->DMA_MemoryInc |
 220              		.loc 1 238 0
 221 002e 3243     		orrs	r2, r2, r6
 222              	.LVL13:
 242:lib/STM32F10x_StdPeriph_Driver/src/stm32f10x_dma.c **** 
 243:lib/STM32F10x_StdPeriph_Driver/src/stm32f10x_dma.c ****   /* Write to DMAy Channelx CCR */
 244:lib/STM32F10x_StdPeriph_Driver/src/stm32f10x_dma.c ****   DMAy_Channelx->CCR = tmpreg;
 223              		.loc 1 244 0
 224 0030 0260     		str	r2, [r0, #0]
 245:lib/STM32F10x_StdPeriph_Driver/src/stm32f10x_dma.c **** 
 246:lib/STM32F10x_StdPeriph_Driver/src/stm32f10x_dma.c **** /*--------------------------- DMAy Channelx CNDTR Configuration ---------------*/
 247:lib/STM32F10x_StdPeriph_Driver/src/stm32f10x_dma.c ****   /* Write to DMAy Channelx CNDTR */
 248:lib/STM32F10x_StdPeriph_Driver/src/stm32f10x_dma.c ****   DMAy_Channelx->CNDTR = DMA_InitStruct->DMA_BufferSize;
 225              		.loc 1 248 0
 226 0032 CB68     		ldr	r3, [r1, #12]
 227 0034 4360     		str	r3, [r0, #4]
 249:lib/STM32F10x_StdPeriph_Driver/src/stm32f10x_dma.c **** 
 250:lib/STM32F10x_StdPeriph_Driver/src/stm32f10x_dma.c **** /*--------------------------- DMAy Channelx CPAR Configuration ----------------*/
 251:lib/STM32F10x_StdPeriph_Driver/src/stm32f10x_dma.c ****   /* Write to DMAy Channelx CPAR */
 252:lib/STM32F10x_StdPeriph_Driver/src/stm32f10x_dma.c ****   DMAy_Channelx->CPAR = DMA_InitStruct->DMA_PeripheralBaseAddr;
 228              		.loc 1 252 0
 229 0036 0A68     		ldr	r2, [r1, #0]
 230              	.LVL14:
 231 0038 8260     		str	r2, [r0, #8]
 253:lib/STM32F10x_StdPeriph_Driver/src/stm32f10x_dma.c **** 
 254:lib/STM32F10x_StdPeriph_Driver/src/stm32f10x_dma.c **** /*--------------------------- DMAy Channelx CMAR Configuration ----------------*/
 255:lib/STM32F10x_StdPeriph_Driver/src/stm32f10x_dma.c ****   /* Write to DMAy Channelx CMAR */
 256:lib/STM32F10x_StdPeriph_Driver/src/stm32f10x_dma.c ****   DMAy_Channelx->CMAR = DMA_InitStruct->DMA_MemoryBaseAddr;
 232              		.loc 1 256 0
 233 003a 4968     		ldr	r1, [r1, #4]
 234              	.LVL15:
 235 003c C160     		str	r1, [r0, #12]
 236 003e 70BD     		pop	{r4, r5, r6, pc}
 237              		.cfi_endproc
 238              	.LFE57:
 240              		.section	.text.DMA_StructInit,"ax",%progbits
 241              		.align	1
 242              		.global	DMA_StructInit
 243              		.thumb
 244              		.thumb_func
 246              	DMA_StructInit:
 247              	.LFB58:
 257:lib/STM32F10x_StdPeriph_Driver/src/stm32f10x_dma.c **** }
 258:lib/STM32F10x_StdPeriph_Driver/src/stm32f10x_dma.c **** 
 259:lib/STM32F10x_StdPeriph_Driver/src/stm32f10x_dma.c **** /**
 260:lib/STM32F10x_StdPeriph_Driver/src/stm32f10x_dma.c ****   * @brief  Fills each DMA_InitStruct member with its default value.
 261:lib/STM32F10x_StdPeriph_Driver/src/stm32f10x_dma.c ****   * @param  DMA_InitStruct : pointer to a DMA_InitTypeDef structure which will
 262:lib/STM32F10x_StdPeriph_Driver/src/stm32f10x_dma.c ****   *         be initialized.
 263:lib/STM32F10x_StdPeriph_Driver/src/stm32f10x_dma.c ****   * @retval None
 264:lib/STM32F10x_StdPeriph_Driver/src/stm32f10x_dma.c ****   */
 265:lib/STM32F10x_StdPeriph_Driver/src/stm32f10x_dma.c **** void DMA_StructInit(DMA_InitTypeDef* DMA_InitStruct)
 266:lib/STM32F10x_StdPeriph_Driver/src/stm32f10x_dma.c **** {
 248              		.loc 1 266 0
 249              		.cfi_startproc
 250              		@ args = 0, pretend = 0, frame = 0
 251              		@ frame_needed = 0, uses_anonymous_args = 0
 252              		@ link register save eliminated.
 253              	.LVL16:
 267:lib/STM32F10x_StdPeriph_Driver/src/stm32f10x_dma.c **** /*-------------- Reset DMA init structure parameters values ------------------*/
 268:lib/STM32F10x_StdPeriph_Driver/src/stm32f10x_dma.c ****   /* Initialize the DMA_PeripheralBaseAddr member */
 269:lib/STM32F10x_StdPeriph_Driver/src/stm32f10x_dma.c ****   DMA_InitStruct->DMA_PeripheralBaseAddr = 0;
 254              		.loc 1 269 0
 255 0000 0023     		movs	r3, #0
 256 0002 0360     		str	r3, [r0, #0]
 270:lib/STM32F10x_StdPeriph_Driver/src/stm32f10x_dma.c ****   /* Initialize the DMA_MemoryBaseAddr member */
 271:lib/STM32F10x_StdPeriph_Driver/src/stm32f10x_dma.c ****   DMA_InitStruct->DMA_MemoryBaseAddr = 0;
 257              		.loc 1 271 0
 258 0004 4360     		str	r3, [r0, #4]
 272:lib/STM32F10x_StdPeriph_Driver/src/stm32f10x_dma.c ****   /* Initialize the DMA_DIR member */
 273:lib/STM32F10x_StdPeriph_Driver/src/stm32f10x_dma.c ****   DMA_InitStruct->DMA_DIR = DMA_DIR_PeripheralSRC;
 259              		.loc 1 273 0
 260 0006 8360     		str	r3, [r0, #8]
 274:lib/STM32F10x_StdPeriph_Driver/src/stm32f10x_dma.c ****   /* Initialize the DMA_BufferSize member */
 275:lib/STM32F10x_StdPeriph_Driver/src/stm32f10x_dma.c ****   DMA_InitStruct->DMA_BufferSize = 0;
 261              		.loc 1 275 0
 262 0008 C360     		str	r3, [r0, #12]
 276:lib/STM32F10x_StdPeriph_Driver/src/stm32f10x_dma.c ****   /* Initialize the DMA_PeripheralInc member */
 277:lib/STM32F10x_StdPeriph_Driver/src/stm32f10x_dma.c ****   DMA_InitStruct->DMA_PeripheralInc = DMA_PeripheralInc_Disable;
 263              		.loc 1 277 0
 264 000a 0361     		str	r3, [r0, #16]
 278:lib/STM32F10x_StdPeriph_Driver/src/stm32f10x_dma.c ****   /* Initialize the DMA_MemoryInc member */
 279:lib/STM32F10x_StdPeriph_Driver/src/stm32f10x_dma.c ****   DMA_InitStruct->DMA_MemoryInc = DMA_MemoryInc_Disable;
 265              		.loc 1 279 0
 266 000c 4361     		str	r3, [r0, #20]
 280:lib/STM32F10x_StdPeriph_Driver/src/stm32f10x_dma.c ****   /* Initialize the DMA_PeripheralDataSize member */
 281:lib/STM32F10x_StdPeriph_Driver/src/stm32f10x_dma.c ****   DMA_InitStruct->DMA_PeripheralDataSize = DMA_PeripheralDataSize_Byte;
 267              		.loc 1 281 0
 268 000e 8361     		str	r3, [r0, #24]
 282:lib/STM32F10x_StdPeriph_Driver/src/stm32f10x_dma.c ****   /* Initialize the DMA_MemoryDataSize member */
 283:lib/STM32F10x_StdPeriph_Driver/src/stm32f10x_dma.c ****   DMA_InitStruct->DMA_MemoryDataSize = DMA_MemoryDataSize_Byte;
 269              		.loc 1 283 0
 270 0010 C361     		str	r3, [r0, #28]
 284:lib/STM32F10x_StdPeriph_Driver/src/stm32f10x_dma.c ****   /* Initialize the DMA_Mode member */
 285:lib/STM32F10x_StdPeriph_Driver/src/stm32f10x_dma.c ****   DMA_InitStruct->DMA_Mode = DMA_Mode_Normal;
 271              		.loc 1 285 0
 272 0012 0362     		str	r3, [r0, #32]
 286:lib/STM32F10x_StdPeriph_Driver/src/stm32f10x_dma.c ****   /* Initialize the DMA_Priority member */
 287:lib/STM32F10x_StdPeriph_Driver/src/stm32f10x_dma.c ****   DMA_InitStruct->DMA_Priority = DMA_Priority_Low;
 273              		.loc 1 287 0
 274 0014 4362     		str	r3, [r0, #36]
 288:lib/STM32F10x_StdPeriph_Driver/src/stm32f10x_dma.c ****   /* Initialize the DMA_M2M member */
 289:lib/STM32F10x_StdPeriph_Driver/src/stm32f10x_dma.c ****   DMA_InitStruct->DMA_M2M = DMA_M2M_Disable;
 275              		.loc 1 289 0
 276 0016 8362     		str	r3, [r0, #40]
 277 0018 7047     		bx	lr
 278              		.cfi_endproc
 279              	.LFE58:
 281              		.section	.text.DMA_Cmd,"ax",%progbits
 282              		.align	1
 283              		.global	DMA_Cmd
 284              		.thumb
 285              		.thumb_func
 287              	DMA_Cmd:
 288              	.LFB59:
 290:lib/STM32F10x_StdPeriph_Driver/src/stm32f10x_dma.c **** }
 291:lib/STM32F10x_StdPeriph_Driver/src/stm32f10x_dma.c **** 
 292:lib/STM32F10x_StdPeriph_Driver/src/stm32f10x_dma.c **** /**
 293:lib/STM32F10x_StdPeriph_Driver/src/stm32f10x_dma.c ****   * @brief  Enables or disables the specified DMAy Channelx.
 294:lib/STM32F10x_StdPeriph_Driver/src/stm32f10x_dma.c ****   * @param  DMAy_Channelx: where y can be 1 or 2 to select the DMA and 
 295:lib/STM32F10x_StdPeriph_Driver/src/stm32f10x_dma.c ****   *   x can be 1 to 7 for DMA1 and 1 to 5 for DMA2 to select the DMA Channel.
 296:lib/STM32F10x_StdPeriph_Driver/src/stm32f10x_dma.c ****   * @param  NewState: new state of the DMAy Channelx. 
 297:lib/STM32F10x_StdPeriph_Driver/src/stm32f10x_dma.c ****   *   This parameter can be: ENABLE or DISABLE.
 298:lib/STM32F10x_StdPeriph_Driver/src/stm32f10x_dma.c ****   * @retval None
 299:lib/STM32F10x_StdPeriph_Driver/src/stm32f10x_dma.c ****   */
 300:lib/STM32F10x_StdPeriph_Driver/src/stm32f10x_dma.c **** void DMA_Cmd(DMA_Channel_TypeDef* DMAy_Channelx, FunctionalState NewState)
 301:lib/STM32F10x_StdPeriph_Driver/src/stm32f10x_dma.c **** {
 289              		.loc 1 301 0
 290              		.cfi_startproc
 291              		@ args = 0, pretend = 0, frame = 0
 292              		@ frame_needed = 0, uses_anonymous_args = 0
 293              		@ link register save eliminated.
 294              	.LVL17:
 302:lib/STM32F10x_StdPeriph_Driver/src/stm32f10x_dma.c ****   /* Check the parameters */
 303:lib/STM32F10x_StdPeriph_Driver/src/stm32f10x_dma.c ****   assert_param(IS_DMA_ALL_PERIPH(DMAy_Channelx));
 304:lib/STM32F10x_StdPeriph_Driver/src/stm32f10x_dma.c ****   assert_param(IS_FUNCTIONAL_STATE(NewState));
 305:lib/STM32F10x_StdPeriph_Driver/src/stm32f10x_dma.c **** 
 306:lib/STM32F10x_StdPeriph_Driver/src/stm32f10x_dma.c ****   if (NewState != DISABLE)
 295              		.loc 1 306 0
 296 0000 19B1     		cbz	r1, .L25
 307:lib/STM32F10x_StdPeriph_Driver/src/stm32f10x_dma.c ****   {
 308:lib/STM32F10x_StdPeriph_Driver/src/stm32f10x_dma.c ****     /* Enable the selected DMAy Channelx */
 309:lib/STM32F10x_StdPeriph_Driver/src/stm32f10x_dma.c ****     DMAy_Channelx->CCR |= DMA_CCR1_EN;
 297              		.loc 1 309 0
 298 0002 0168     		ldr	r1, [r0, #0]
 299              	.LVL18:
 300 0004 41F00103 		orr	r3, r1, #1
 301 0008 03E0     		b	.L27
 302              	.LVL19:
 303              	.L25:
 310:lib/STM32F10x_StdPeriph_Driver/src/stm32f10x_dma.c ****   }
 311:lib/STM32F10x_StdPeriph_Driver/src/stm32f10x_dma.c ****   else
 312:lib/STM32F10x_StdPeriph_Driver/src/stm32f10x_dma.c ****   {
 313:lib/STM32F10x_StdPeriph_Driver/src/stm32f10x_dma.c ****     /* Disable the selected DMAy Channelx */
 314:lib/STM32F10x_StdPeriph_Driver/src/stm32f10x_dma.c ****     DMAy_Channelx->CCR &= (uint16_t)(~DMA_CCR1_EN);
 304              		.loc 1 314 0
 305 000a 0268     		ldr	r2, [r0, #0]
 306 000c 4FF6FE73 		movw	r3, #65534
 307 0010 1340     		ands	r3, r3, r2
 308              	.LVL20:
 309              	.L27:
 310 0012 0360     		str	r3, [r0, #0]
 311 0014 7047     		bx	lr
 312              		.cfi_endproc
 313              	.LFE59:
 315              		.section	.text.DMA_ITConfig,"ax",%progbits
 316              		.align	1
 317              		.global	DMA_ITConfig
 318              		.thumb
 319              		.thumb_func
 321              	DMA_ITConfig:
 322              	.LFB60:
 315:lib/STM32F10x_StdPeriph_Driver/src/stm32f10x_dma.c ****   }
 316:lib/STM32F10x_StdPeriph_Driver/src/stm32f10x_dma.c **** }
 317:lib/STM32F10x_StdPeriph_Driver/src/stm32f10x_dma.c **** 
 318:lib/STM32F10x_StdPeriph_Driver/src/stm32f10x_dma.c **** /**
 319:lib/STM32F10x_StdPeriph_Driver/src/stm32f10x_dma.c ****   * @brief  Enables or disables the specified DMAy Channelx interrupts.
 320:lib/STM32F10x_StdPeriph_Driver/src/stm32f10x_dma.c ****   * @param  DMAy_Channelx: where y can be 1 or 2 to select the DMA and 
 321:lib/STM32F10x_StdPeriph_Driver/src/stm32f10x_dma.c ****   *   x can be 1 to 7 for DMA1 and 1 to 5 for DMA2 to select the DMA Channel.
 322:lib/STM32F10x_StdPeriph_Driver/src/stm32f10x_dma.c ****   * @param  DMA_IT: specifies the DMA interrupts sources to be enabled
 323:lib/STM32F10x_StdPeriph_Driver/src/stm32f10x_dma.c ****   *   or disabled. 
 324:lib/STM32F10x_StdPeriph_Driver/src/stm32f10x_dma.c ****   *   This parameter can be any combination of the following values:
 325:lib/STM32F10x_StdPeriph_Driver/src/stm32f10x_dma.c ****   *     @arg DMA_IT_TC:  Transfer complete interrupt mask
 326:lib/STM32F10x_StdPeriph_Driver/src/stm32f10x_dma.c ****   *     @arg DMA_IT_HT:  Half transfer interrupt mask
 327:lib/STM32F10x_StdPeriph_Driver/src/stm32f10x_dma.c ****   *     @arg DMA_IT_TE:  Transfer error interrupt mask
 328:lib/STM32F10x_StdPeriph_Driver/src/stm32f10x_dma.c ****   * @param  NewState: new state of the specified DMA interrupts.
 329:lib/STM32F10x_StdPeriph_Driver/src/stm32f10x_dma.c ****   *   This parameter can be: ENABLE or DISABLE.
 330:lib/STM32F10x_StdPeriph_Driver/src/stm32f10x_dma.c ****   * @retval None
 331:lib/STM32F10x_StdPeriph_Driver/src/stm32f10x_dma.c ****   */
 332:lib/STM32F10x_StdPeriph_Driver/src/stm32f10x_dma.c **** void DMA_ITConfig(DMA_Channel_TypeDef* DMAy_Channelx, uint32_t DMA_IT, FunctionalState NewState)
 333:lib/STM32F10x_StdPeriph_Driver/src/stm32f10x_dma.c **** {
 323              		.loc 1 333 0
 324              		.cfi_startproc
 325              		@ args = 0, pretend = 0, frame = 0
 326              		@ frame_needed = 0, uses_anonymous_args = 0
 327              		@ link register save eliminated.
 328              	.LVL21:
 334:lib/STM32F10x_StdPeriph_Driver/src/stm32f10x_dma.c ****   /* Check the parameters */
 335:lib/STM32F10x_StdPeriph_Driver/src/stm32f10x_dma.c ****   assert_param(IS_DMA_ALL_PERIPH(DMAy_Channelx));
 336:lib/STM32F10x_StdPeriph_Driver/src/stm32f10x_dma.c ****   assert_param(IS_DMA_CONFIG_IT(DMA_IT));
 337:lib/STM32F10x_StdPeriph_Driver/src/stm32f10x_dma.c ****   assert_param(IS_FUNCTIONAL_STATE(NewState));
 338:lib/STM32F10x_StdPeriph_Driver/src/stm32f10x_dma.c ****   if (NewState != DISABLE)
 339:lib/STM32F10x_StdPeriph_Driver/src/stm32f10x_dma.c ****   {
 340:lib/STM32F10x_StdPeriph_Driver/src/stm32f10x_dma.c ****     /* Enable the selected DMA interrupts */
 341:lib/STM32F10x_StdPeriph_Driver/src/stm32f10x_dma.c ****     DMAy_Channelx->CCR |= DMA_IT;
 329              		.loc 1 341 0
 330 0000 0368     		ldr	r3, [r0, #0]
 338:lib/STM32F10x_StdPeriph_Driver/src/stm32f10x_dma.c ****   {
 331              		.loc 1 338 0
 332 0002 0AB1     		cbz	r2, .L29
 333              		.loc 1 341 0
 334 0004 1943     		orrs	r1, r1, r3
 335              	.LVL22:
 336 0006 01E0     		b	.L31
 337              	.LVL23:
 338              	.L29:
 342:lib/STM32F10x_StdPeriph_Driver/src/stm32f10x_dma.c ****   }
 343:lib/STM32F10x_StdPeriph_Driver/src/stm32f10x_dma.c ****   else
 344:lib/STM32F10x_StdPeriph_Driver/src/stm32f10x_dma.c ****   {
 345:lib/STM32F10x_StdPeriph_Driver/src/stm32f10x_dma.c ****     /* Disable the selected DMA interrupts */
 346:lib/STM32F10x_StdPeriph_Driver/src/stm32f10x_dma.c ****     DMAy_Channelx->CCR &= ~DMA_IT;
 339              		.loc 1 346 0
 340 0008 23EA0101 		bic	r1, r3, r1
 341              	.LVL24:
 342              	.L31:
 343 000c 0160     		str	r1, [r0, #0]
 344 000e 7047     		bx	lr
 345              		.cfi_endproc
 346              	.LFE60:
 348              		.section	.text.DMA_SetCurrDataCounter,"ax",%progbits
 349              		.align	1
 350              		.global	DMA_SetCurrDataCounter
 351              		.thumb
 352              		.thumb_func
 354              	DMA_SetCurrDataCounter:
 355              	.LFB61:
 347:lib/STM32F10x_StdPeriph_Driver/src/stm32f10x_dma.c ****   }
 348:lib/STM32F10x_StdPeriph_Driver/src/stm32f10x_dma.c **** }
 349:lib/STM32F10x_StdPeriph_Driver/src/stm32f10x_dma.c **** 
 350:lib/STM32F10x_StdPeriph_Driver/src/stm32f10x_dma.c **** /**
 351:lib/STM32F10x_StdPeriph_Driver/src/stm32f10x_dma.c ****   * @brief  Sets the number of data units in the current DMAy Channelx transfer.
 352:lib/STM32F10x_StdPeriph_Driver/src/stm32f10x_dma.c ****   * @param  DMAy_Channelx: where y can be 1 or 2 to select the DMA and 
 353:lib/STM32F10x_StdPeriph_Driver/src/stm32f10x_dma.c ****   *         x can be 1 to 7 for DMA1 and 1 to 5 for DMA2 to select the DMA Channel.
 354:lib/STM32F10x_StdPeriph_Driver/src/stm32f10x_dma.c ****   * @param  DataNumber: The number of data units in the current DMAy Channelx
 355:lib/STM32F10x_StdPeriph_Driver/src/stm32f10x_dma.c ****   *         transfer.   
 356:lib/STM32F10x_StdPeriph_Driver/src/stm32f10x_dma.c ****   * @note   This function can only be used when the DMAy_Channelx is disabled.                 
 357:lib/STM32F10x_StdPeriph_Driver/src/stm32f10x_dma.c ****   * @retval None.
 358:lib/STM32F10x_StdPeriph_Driver/src/stm32f10x_dma.c ****   */
 359:lib/STM32F10x_StdPeriph_Driver/src/stm32f10x_dma.c **** void DMA_SetCurrDataCounter(DMA_Channel_TypeDef* DMAy_Channelx, uint16_t DataNumber)
 360:lib/STM32F10x_StdPeriph_Driver/src/stm32f10x_dma.c **** {
 356              		.loc 1 360 0
 357              		.cfi_startproc
 358              		@ args = 0, pretend = 0, frame = 0
 359              		@ frame_needed = 0, uses_anonymous_args = 0
 360              		@ link register save eliminated.
 361              	.LVL25:
 361:lib/STM32F10x_StdPeriph_Driver/src/stm32f10x_dma.c ****   /* Check the parameters */
 362:lib/STM32F10x_StdPeriph_Driver/src/stm32f10x_dma.c ****   assert_param(IS_DMA_ALL_PERIPH(DMAy_Channelx));
 363:lib/STM32F10x_StdPeriph_Driver/src/stm32f10x_dma.c ****   
 364:lib/STM32F10x_StdPeriph_Driver/src/stm32f10x_dma.c **** /*--------------------------- DMAy Channelx CNDTR Configuration ---------------*/
 365:lib/STM32F10x_StdPeriph_Driver/src/stm32f10x_dma.c ****   /* Write to DMAy Channelx CNDTR */
 366:lib/STM32F10x_StdPeriph_Driver/src/stm32f10x_dma.c ****   DMAy_Channelx->CNDTR = DataNumber;  
 362              		.loc 1 366 0
 363 0000 4160     		str	r1, [r0, #4]
 364 0002 7047     		bx	lr
 365              		.cfi_endproc
 366              	.LFE61:
 368              		.section	.text.DMA_GetCurrDataCounter,"ax",%progbits
 369              		.align	1
 370              		.global	DMA_GetCurrDataCounter
 371              		.thumb
 372              		.thumb_func
 374              	DMA_GetCurrDataCounter:
 375              	.LFB62:
 367:lib/STM32F10x_StdPeriph_Driver/src/stm32f10x_dma.c **** }
 368:lib/STM32F10x_StdPeriph_Driver/src/stm32f10x_dma.c **** 
 369:lib/STM32F10x_StdPeriph_Driver/src/stm32f10x_dma.c **** /**
 370:lib/STM32F10x_StdPeriph_Driver/src/stm32f10x_dma.c ****   * @brief  Returns the number of remaining data units in the current
 371:lib/STM32F10x_StdPeriph_Driver/src/stm32f10x_dma.c ****   *         DMAy Channelx transfer.
 372:lib/STM32F10x_StdPeriph_Driver/src/stm32f10x_dma.c ****   * @param  DMAy_Channelx: where y can be 1 or 2 to select the DMA and 
 373:lib/STM32F10x_StdPeriph_Driver/src/stm32f10x_dma.c ****   *   x can be 1 to 7 for DMA1 and 1 to 5 for DMA2 to select the DMA Channel.
 374:lib/STM32F10x_StdPeriph_Driver/src/stm32f10x_dma.c ****   * @retval The number of remaining data units in the current DMAy Channelx
 375:lib/STM32F10x_StdPeriph_Driver/src/stm32f10x_dma.c ****   *         transfer.
 376:lib/STM32F10x_StdPeriph_Driver/src/stm32f10x_dma.c ****   */
 377:lib/STM32F10x_StdPeriph_Driver/src/stm32f10x_dma.c **** uint16_t DMA_GetCurrDataCounter(DMA_Channel_TypeDef* DMAy_Channelx)
 378:lib/STM32F10x_StdPeriph_Driver/src/stm32f10x_dma.c **** {
 376              		.loc 1 378 0
 377              		.cfi_startproc
 378              		@ args = 0, pretend = 0, frame = 0
 379              		@ frame_needed = 0, uses_anonymous_args = 0
 380              		@ link register save eliminated.
 381              	.LVL26:
 379:lib/STM32F10x_StdPeriph_Driver/src/stm32f10x_dma.c ****   /* Check the parameters */
 380:lib/STM32F10x_StdPeriph_Driver/src/stm32f10x_dma.c ****   assert_param(IS_DMA_ALL_PERIPH(DMAy_Channelx));
 381:lib/STM32F10x_StdPeriph_Driver/src/stm32f10x_dma.c ****   /* Return the number of remaining data units for DMAy Channelx */
 382:lib/STM32F10x_StdPeriph_Driver/src/stm32f10x_dma.c ****   return ((uint16_t)(DMAy_Channelx->CNDTR));
 382              		.loc 1 382 0
 383 0000 4068     		ldr	r0, [r0, #4]
 384              	.LVL27:
 383:lib/STM32F10x_StdPeriph_Driver/src/stm32f10x_dma.c **** }
 385              		.loc 1 383 0
 386 0002 80B2     		uxth	r0, r0
 387 0004 7047     		bx	lr
 388              		.cfi_endproc
 389              	.LFE62:
 391              		.section	.text.DMA_GetFlagStatus,"ax",%progbits
 392              		.align	1
 393              		.global	DMA_GetFlagStatus
 394              		.thumb
 395              		.thumb_func
 397              	DMA_GetFlagStatus:
 398              	.LFB63:
 384:lib/STM32F10x_StdPeriph_Driver/src/stm32f10x_dma.c **** 
 385:lib/STM32F10x_StdPeriph_Driver/src/stm32f10x_dma.c **** /**
 386:lib/STM32F10x_StdPeriph_Driver/src/stm32f10x_dma.c ****   * @brief  Checks whether the specified DMAy Channelx flag is set or not.
 387:lib/STM32F10x_StdPeriph_Driver/src/stm32f10x_dma.c ****   * @param  DMAy_FLAG: specifies the flag to check.
 388:lib/STM32F10x_StdPeriph_Driver/src/stm32f10x_dma.c ****   *   This parameter can be one of the following values:
 389:lib/STM32F10x_StdPeriph_Driver/src/stm32f10x_dma.c ****   *     @arg DMA1_FLAG_GL1: DMA1 Channel1 global flag.
 390:lib/STM32F10x_StdPeriph_Driver/src/stm32f10x_dma.c ****   *     @arg DMA1_FLAG_TC1: DMA1 Channel1 transfer complete flag.
 391:lib/STM32F10x_StdPeriph_Driver/src/stm32f10x_dma.c ****   *     @arg DMA1_FLAG_HT1: DMA1 Channel1 half transfer flag.
 392:lib/STM32F10x_StdPeriph_Driver/src/stm32f10x_dma.c ****   *     @arg DMA1_FLAG_TE1: DMA1 Channel1 transfer error flag.
 393:lib/STM32F10x_StdPeriph_Driver/src/stm32f10x_dma.c ****   *     @arg DMA1_FLAG_GL2: DMA1 Channel2 global flag.
 394:lib/STM32F10x_StdPeriph_Driver/src/stm32f10x_dma.c ****   *     @arg DMA1_FLAG_TC2: DMA1 Channel2 transfer complete flag.
 395:lib/STM32F10x_StdPeriph_Driver/src/stm32f10x_dma.c ****   *     @arg DMA1_FLAG_HT2: DMA1 Channel2 half transfer flag.
 396:lib/STM32F10x_StdPeriph_Driver/src/stm32f10x_dma.c ****   *     @arg DMA1_FLAG_TE2: DMA1 Channel2 transfer error flag.
 397:lib/STM32F10x_StdPeriph_Driver/src/stm32f10x_dma.c ****   *     @arg DMA1_FLAG_GL3: DMA1 Channel3 global flag.
 398:lib/STM32F10x_StdPeriph_Driver/src/stm32f10x_dma.c ****   *     @arg DMA1_FLAG_TC3: DMA1 Channel3 transfer complete flag.
 399:lib/STM32F10x_StdPeriph_Driver/src/stm32f10x_dma.c ****   *     @arg DMA1_FLAG_HT3: DMA1 Channel3 half transfer flag.
 400:lib/STM32F10x_StdPeriph_Driver/src/stm32f10x_dma.c ****   *     @arg DMA1_FLAG_TE3: DMA1 Channel3 transfer error flag.
 401:lib/STM32F10x_StdPeriph_Driver/src/stm32f10x_dma.c ****   *     @arg DMA1_FLAG_GL4: DMA1 Channel4 global flag.
 402:lib/STM32F10x_StdPeriph_Driver/src/stm32f10x_dma.c ****   *     @arg DMA1_FLAG_TC4: DMA1 Channel4 transfer complete flag.
 403:lib/STM32F10x_StdPeriph_Driver/src/stm32f10x_dma.c ****   *     @arg DMA1_FLAG_HT4: DMA1 Channel4 half transfer flag.
 404:lib/STM32F10x_StdPeriph_Driver/src/stm32f10x_dma.c ****   *     @arg DMA1_FLAG_TE4: DMA1 Channel4 transfer error flag.
 405:lib/STM32F10x_StdPeriph_Driver/src/stm32f10x_dma.c ****   *     @arg DMA1_FLAG_GL5: DMA1 Channel5 global flag.
 406:lib/STM32F10x_StdPeriph_Driver/src/stm32f10x_dma.c ****   *     @arg DMA1_FLAG_TC5: DMA1 Channel5 transfer complete flag.
 407:lib/STM32F10x_StdPeriph_Driver/src/stm32f10x_dma.c ****   *     @arg DMA1_FLAG_HT5: DMA1 Channel5 half transfer flag.
 408:lib/STM32F10x_StdPeriph_Driver/src/stm32f10x_dma.c ****   *     @arg DMA1_FLAG_TE5: DMA1 Channel5 transfer error flag.
 409:lib/STM32F10x_StdPeriph_Driver/src/stm32f10x_dma.c ****   *     @arg DMA1_FLAG_GL6: DMA1 Channel6 global flag.
 410:lib/STM32F10x_StdPeriph_Driver/src/stm32f10x_dma.c ****   *     @arg DMA1_FLAG_TC6: DMA1 Channel6 transfer complete flag.
 411:lib/STM32F10x_StdPeriph_Driver/src/stm32f10x_dma.c ****   *     @arg DMA1_FLAG_HT6: DMA1 Channel6 half transfer flag.
 412:lib/STM32F10x_StdPeriph_Driver/src/stm32f10x_dma.c ****   *     @arg DMA1_FLAG_TE6: DMA1 Channel6 transfer error flag.
 413:lib/STM32F10x_StdPeriph_Driver/src/stm32f10x_dma.c ****   *     @arg DMA1_FLAG_GL7: DMA1 Channel7 global flag.
 414:lib/STM32F10x_StdPeriph_Driver/src/stm32f10x_dma.c ****   *     @arg DMA1_FLAG_TC7: DMA1 Channel7 transfer complete flag.
 415:lib/STM32F10x_StdPeriph_Driver/src/stm32f10x_dma.c ****   *     @arg DMA1_FLAG_HT7: DMA1 Channel7 half transfer flag.
 416:lib/STM32F10x_StdPeriph_Driver/src/stm32f10x_dma.c ****   *     @arg DMA1_FLAG_TE7: DMA1 Channel7 transfer error flag.
 417:lib/STM32F10x_StdPeriph_Driver/src/stm32f10x_dma.c ****   *     @arg DMA2_FLAG_GL1: DMA2 Channel1 global flag.
 418:lib/STM32F10x_StdPeriph_Driver/src/stm32f10x_dma.c ****   *     @arg DMA2_FLAG_TC1: DMA2 Channel1 transfer complete flag.
 419:lib/STM32F10x_StdPeriph_Driver/src/stm32f10x_dma.c ****   *     @arg DMA2_FLAG_HT1: DMA2 Channel1 half transfer flag.
 420:lib/STM32F10x_StdPeriph_Driver/src/stm32f10x_dma.c ****   *     @arg DMA2_FLAG_TE1: DMA2 Channel1 transfer error flag.
 421:lib/STM32F10x_StdPeriph_Driver/src/stm32f10x_dma.c ****   *     @arg DMA2_FLAG_GL2: DMA2 Channel2 global flag.
 422:lib/STM32F10x_StdPeriph_Driver/src/stm32f10x_dma.c ****   *     @arg DMA2_FLAG_TC2: DMA2 Channel2 transfer complete flag.
 423:lib/STM32F10x_StdPeriph_Driver/src/stm32f10x_dma.c ****   *     @arg DMA2_FLAG_HT2: DMA2 Channel2 half transfer flag.
 424:lib/STM32F10x_StdPeriph_Driver/src/stm32f10x_dma.c ****   *     @arg DMA2_FLAG_TE2: DMA2 Channel2 transfer error flag.
 425:lib/STM32F10x_StdPeriph_Driver/src/stm32f10x_dma.c ****   *     @arg DMA2_FLAG_GL3: DMA2 Channel3 global flag.
 426:lib/STM32F10x_StdPeriph_Driver/src/stm32f10x_dma.c ****   *     @arg DMA2_FLAG_TC3: DMA2 Channel3 transfer complete flag.
 427:lib/STM32F10x_StdPeriph_Driver/src/stm32f10x_dma.c ****   *     @arg DMA2_FLAG_HT3: DMA2 Channel3 half transfer flag.
 428:lib/STM32F10x_StdPeriph_Driver/src/stm32f10x_dma.c ****   *     @arg DMA2_FLAG_TE3: DMA2 Channel3 transfer error flag.
 429:lib/STM32F10x_StdPeriph_Driver/src/stm32f10x_dma.c ****   *     @arg DMA2_FLAG_GL4: DMA2 Channel4 global flag.
 430:lib/STM32F10x_StdPeriph_Driver/src/stm32f10x_dma.c ****   *     @arg DMA2_FLAG_TC4: DMA2 Channel4 transfer complete flag.
 431:lib/STM32F10x_StdPeriph_Driver/src/stm32f10x_dma.c ****   *     @arg DMA2_FLAG_HT4: DMA2 Channel4 half transfer flag.
 432:lib/STM32F10x_StdPeriph_Driver/src/stm32f10x_dma.c ****   *     @arg DMA2_FLAG_TE4: DMA2 Channel4 transfer error flag.
 433:lib/STM32F10x_StdPeriph_Driver/src/stm32f10x_dma.c ****   *     @arg DMA2_FLAG_GL5: DMA2 Channel5 global flag.
 434:lib/STM32F10x_StdPeriph_Driver/src/stm32f10x_dma.c ****   *     @arg DMA2_FLAG_TC5: DMA2 Channel5 transfer complete flag.
 435:lib/STM32F10x_StdPeriph_Driver/src/stm32f10x_dma.c ****   *     @arg DMA2_FLAG_HT5: DMA2 Channel5 half transfer flag.
 436:lib/STM32F10x_StdPeriph_Driver/src/stm32f10x_dma.c ****   *     @arg DMA2_FLAG_TE5: DMA2 Channel5 transfer error flag.
 437:lib/STM32F10x_StdPeriph_Driver/src/stm32f10x_dma.c ****   * @retval The new state of DMAy_FLAG (SET or RESET).
 438:lib/STM32F10x_StdPeriph_Driver/src/stm32f10x_dma.c ****   */
 439:lib/STM32F10x_StdPeriph_Driver/src/stm32f10x_dma.c **** FlagStatus DMA_GetFlagStatus(uint32_t DMAy_FLAG)
 440:lib/STM32F10x_StdPeriph_Driver/src/stm32f10x_dma.c **** {
 399              		.loc 1 440 0
 400              		.cfi_startproc
 401              		@ args = 0, pretend = 0, frame = 0
 402              		@ frame_needed = 0, uses_anonymous_args = 0
 403              		@ link register save eliminated.
 404              	.LVL28:
 405              	.LVL29:
 441:lib/STM32F10x_StdPeriph_Driver/src/stm32f10x_dma.c ****   FlagStatus bitstatus = RESET;
 442:lib/STM32F10x_StdPeriph_Driver/src/stm32f10x_dma.c ****   uint32_t tmpreg = 0;
 443:lib/STM32F10x_StdPeriph_Driver/src/stm32f10x_dma.c ****   
 444:lib/STM32F10x_StdPeriph_Driver/src/stm32f10x_dma.c ****   /* Check the parameters */
 445:lib/STM32F10x_StdPeriph_Driver/src/stm32f10x_dma.c ****   assert_param(IS_DMA_GET_FLAG(DMAy_FLAG));
 446:lib/STM32F10x_StdPeriph_Driver/src/stm32f10x_dma.c **** 
 447:lib/STM32F10x_StdPeriph_Driver/src/stm32f10x_dma.c ****   /* Calculate the used DMAy */
 448:lib/STM32F10x_StdPeriph_Driver/src/stm32f10x_dma.c ****   if ((DMAy_FLAG & FLAG_Mask) != (uint32_t)RESET)
 406              		.loc 1 448 0
 407 0000 C300     		lsls	r3, r0, #3
 449:lib/STM32F10x_StdPeriph_Driver/src/stm32f10x_dma.c ****   {
 450:lib/STM32F10x_StdPeriph_Driver/src/stm32f10x_dma.c ****     /* Get DMA2 ISR register value */
 451:lib/STM32F10x_StdPeriph_Driver/src/stm32f10x_dma.c ****     tmpreg = DMA2->ISR ;
 408              		.loc 1 451 0
 409 0002 4CBF     		ite	mi
 410 0004 034B     		ldrmi	r3, .L38
 452:lib/STM32F10x_StdPeriph_Driver/src/stm32f10x_dma.c ****   }
 453:lib/STM32F10x_StdPeriph_Driver/src/stm32f10x_dma.c ****   else
 454:lib/STM32F10x_StdPeriph_Driver/src/stm32f10x_dma.c ****   {
 455:lib/STM32F10x_StdPeriph_Driver/src/stm32f10x_dma.c ****     /* Get DMA1 ISR register value */
 456:lib/STM32F10x_StdPeriph_Driver/src/stm32f10x_dma.c ****     tmpreg = DMA1->ISR ;
 411              		.loc 1 456 0
 412 0006 044B     		ldrpl	r3, .L38+4
 413 0008 1968     		ldr	r1, [r3, #0]
 414              	.LVL30:
 457:lib/STM32F10x_StdPeriph_Driver/src/stm32f10x_dma.c ****   }
 458:lib/STM32F10x_StdPeriph_Driver/src/stm32f10x_dma.c **** 
 459:lib/STM32F10x_StdPeriph_Driver/src/stm32f10x_dma.c ****   /* Check the status of the specified DMAy flag */
 460:lib/STM32F10x_StdPeriph_Driver/src/stm32f10x_dma.c ****   if ((tmpreg & DMAy_FLAG) != (uint32_t)RESET)
 415              		.loc 1 460 0
 416 000a 0142     		tst	r1, r0
 461:lib/STM32F10x_StdPeriph_Driver/src/stm32f10x_dma.c ****   {
 462:lib/STM32F10x_StdPeriph_Driver/src/stm32f10x_dma.c ****     /* DMAy_FLAG is set */
 463:lib/STM32F10x_StdPeriph_Driver/src/stm32f10x_dma.c ****     bitstatus = SET;
 464:lib/STM32F10x_StdPeriph_Driver/src/stm32f10x_dma.c ****   }
 465:lib/STM32F10x_StdPeriph_Driver/src/stm32f10x_dma.c ****   else
 466:lib/STM32F10x_StdPeriph_Driver/src/stm32f10x_dma.c ****   {
 467:lib/STM32F10x_StdPeriph_Driver/src/stm32f10x_dma.c ****     /* DMAy_FLAG is reset */
 468:lib/STM32F10x_StdPeriph_Driver/src/stm32f10x_dma.c ****     bitstatus = RESET;
 469:lib/STM32F10x_StdPeriph_Driver/src/stm32f10x_dma.c ****   }
 470:lib/STM32F10x_StdPeriph_Driver/src/stm32f10x_dma.c ****   
 471:lib/STM32F10x_StdPeriph_Driver/src/stm32f10x_dma.c ****   /* Return the DMAy_FLAG status */
 472:lib/STM32F10x_StdPeriph_Driver/src/stm32f10x_dma.c ****   return  bitstatus;
 473:lib/STM32F10x_StdPeriph_Driver/src/stm32f10x_dma.c **** }
 417              		.loc 1 473 0
 418 000c 0CBF     		ite	eq
 419 000e 0020     		moveq	r0, #0
 420 0010 0120     		movne	r0, #1
 421              	.LVL31:
 422 0012 7047     		bx	lr
 423              	.L39:
 424              		.align	2
 425              	.L38:
 426 0014 00040240 		.word	1073873920
 427 0018 00000240 		.word	1073872896
 428              		.cfi_endproc
 429              	.LFE63:
 431              		.section	.text.DMA_ClearFlag,"ax",%progbits
 432              		.align	1
 433              		.global	DMA_ClearFlag
 434              		.thumb
 435              		.thumb_func
 437              	DMA_ClearFlag:
 438              	.LFB64:
 474:lib/STM32F10x_StdPeriph_Driver/src/stm32f10x_dma.c **** 
 475:lib/STM32F10x_StdPeriph_Driver/src/stm32f10x_dma.c **** /**
 476:lib/STM32F10x_StdPeriph_Driver/src/stm32f10x_dma.c ****   * @brief  Clears the DMAy Channelx's pending flags.
 477:lib/STM32F10x_StdPeriph_Driver/src/stm32f10x_dma.c ****   * @param  DMAy_FLAG: specifies the flag to clear.
 478:lib/STM32F10x_StdPeriph_Driver/src/stm32f10x_dma.c ****   *   This parameter can be any combination (for the same DMA) of the following values:
 479:lib/STM32F10x_StdPeriph_Driver/src/stm32f10x_dma.c ****   *     @arg DMA1_FLAG_GL1: DMA1 Channel1 global flag.
 480:lib/STM32F10x_StdPeriph_Driver/src/stm32f10x_dma.c ****   *     @arg DMA1_FLAG_TC1: DMA1 Channel1 transfer complete flag.
 481:lib/STM32F10x_StdPeriph_Driver/src/stm32f10x_dma.c ****   *     @arg DMA1_FLAG_HT1: DMA1 Channel1 half transfer flag.
 482:lib/STM32F10x_StdPeriph_Driver/src/stm32f10x_dma.c ****   *     @arg DMA1_FLAG_TE1: DMA1 Channel1 transfer error flag.
 483:lib/STM32F10x_StdPeriph_Driver/src/stm32f10x_dma.c ****   *     @arg DMA1_FLAG_GL2: DMA1 Channel2 global flag.
 484:lib/STM32F10x_StdPeriph_Driver/src/stm32f10x_dma.c ****   *     @arg DMA1_FLAG_TC2: DMA1 Channel2 transfer complete flag.
 485:lib/STM32F10x_StdPeriph_Driver/src/stm32f10x_dma.c ****   *     @arg DMA1_FLAG_HT2: DMA1 Channel2 half transfer flag.
 486:lib/STM32F10x_StdPeriph_Driver/src/stm32f10x_dma.c ****   *     @arg DMA1_FLAG_TE2: DMA1 Channel2 transfer error flag.
 487:lib/STM32F10x_StdPeriph_Driver/src/stm32f10x_dma.c ****   *     @arg DMA1_FLAG_GL3: DMA1 Channel3 global flag.
 488:lib/STM32F10x_StdPeriph_Driver/src/stm32f10x_dma.c ****   *     @arg DMA1_FLAG_TC3: DMA1 Channel3 transfer complete flag.
 489:lib/STM32F10x_StdPeriph_Driver/src/stm32f10x_dma.c ****   *     @arg DMA1_FLAG_HT3: DMA1 Channel3 half transfer flag.
 490:lib/STM32F10x_StdPeriph_Driver/src/stm32f10x_dma.c ****   *     @arg DMA1_FLAG_TE3: DMA1 Channel3 transfer error flag.
 491:lib/STM32F10x_StdPeriph_Driver/src/stm32f10x_dma.c ****   *     @arg DMA1_FLAG_GL4: DMA1 Channel4 global flag.
 492:lib/STM32F10x_StdPeriph_Driver/src/stm32f10x_dma.c ****   *     @arg DMA1_FLAG_TC4: DMA1 Channel4 transfer complete flag.
 493:lib/STM32F10x_StdPeriph_Driver/src/stm32f10x_dma.c ****   *     @arg DMA1_FLAG_HT4: DMA1 Channel4 half transfer flag.
 494:lib/STM32F10x_StdPeriph_Driver/src/stm32f10x_dma.c ****   *     @arg DMA1_FLAG_TE4: DMA1 Channel4 transfer error flag.
 495:lib/STM32F10x_StdPeriph_Driver/src/stm32f10x_dma.c ****   *     @arg DMA1_FLAG_GL5: DMA1 Channel5 global flag.
 496:lib/STM32F10x_StdPeriph_Driver/src/stm32f10x_dma.c ****   *     @arg DMA1_FLAG_TC5: DMA1 Channel5 transfer complete flag.
 497:lib/STM32F10x_StdPeriph_Driver/src/stm32f10x_dma.c ****   *     @arg DMA1_FLAG_HT5: DMA1 Channel5 half transfer flag.
 498:lib/STM32F10x_StdPeriph_Driver/src/stm32f10x_dma.c ****   *     @arg DMA1_FLAG_TE5: DMA1 Channel5 transfer error flag.
 499:lib/STM32F10x_StdPeriph_Driver/src/stm32f10x_dma.c ****   *     @arg DMA1_FLAG_GL6: DMA1 Channel6 global flag.
 500:lib/STM32F10x_StdPeriph_Driver/src/stm32f10x_dma.c ****   *     @arg DMA1_FLAG_TC6: DMA1 Channel6 transfer complete flag.
 501:lib/STM32F10x_StdPeriph_Driver/src/stm32f10x_dma.c ****   *     @arg DMA1_FLAG_HT6: DMA1 Channel6 half transfer flag.
 502:lib/STM32F10x_StdPeriph_Driver/src/stm32f10x_dma.c ****   *     @arg DMA1_FLAG_TE6: DMA1 Channel6 transfer error flag.
 503:lib/STM32F10x_StdPeriph_Driver/src/stm32f10x_dma.c ****   *     @arg DMA1_FLAG_GL7: DMA1 Channel7 global flag.
 504:lib/STM32F10x_StdPeriph_Driver/src/stm32f10x_dma.c ****   *     @arg DMA1_FLAG_TC7: DMA1 Channel7 transfer complete flag.
 505:lib/STM32F10x_StdPeriph_Driver/src/stm32f10x_dma.c ****   *     @arg DMA1_FLAG_HT7: DMA1 Channel7 half transfer flag.
 506:lib/STM32F10x_StdPeriph_Driver/src/stm32f10x_dma.c ****   *     @arg DMA1_FLAG_TE7: DMA1 Channel7 transfer error flag.
 507:lib/STM32F10x_StdPeriph_Driver/src/stm32f10x_dma.c ****   *     @arg DMA2_FLAG_GL1: DMA2 Channel1 global flag.
 508:lib/STM32F10x_StdPeriph_Driver/src/stm32f10x_dma.c ****   *     @arg DMA2_FLAG_TC1: DMA2 Channel1 transfer complete flag.
 509:lib/STM32F10x_StdPeriph_Driver/src/stm32f10x_dma.c ****   *     @arg DMA2_FLAG_HT1: DMA2 Channel1 half transfer flag.
 510:lib/STM32F10x_StdPeriph_Driver/src/stm32f10x_dma.c ****   *     @arg DMA2_FLAG_TE1: DMA2 Channel1 transfer error flag.
 511:lib/STM32F10x_StdPeriph_Driver/src/stm32f10x_dma.c ****   *     @arg DMA2_FLAG_GL2: DMA2 Channel2 global flag.
 512:lib/STM32F10x_StdPeriph_Driver/src/stm32f10x_dma.c ****   *     @arg DMA2_FLAG_TC2: DMA2 Channel2 transfer complete flag.
 513:lib/STM32F10x_StdPeriph_Driver/src/stm32f10x_dma.c ****   *     @arg DMA2_FLAG_HT2: DMA2 Channel2 half transfer flag.
 514:lib/STM32F10x_StdPeriph_Driver/src/stm32f10x_dma.c ****   *     @arg DMA2_FLAG_TE2: DMA2 Channel2 transfer error flag.
 515:lib/STM32F10x_StdPeriph_Driver/src/stm32f10x_dma.c ****   *     @arg DMA2_FLAG_GL3: DMA2 Channel3 global flag.
 516:lib/STM32F10x_StdPeriph_Driver/src/stm32f10x_dma.c ****   *     @arg DMA2_FLAG_TC3: DMA2 Channel3 transfer complete flag.
 517:lib/STM32F10x_StdPeriph_Driver/src/stm32f10x_dma.c ****   *     @arg DMA2_FLAG_HT3: DMA2 Channel3 half transfer flag.
 518:lib/STM32F10x_StdPeriph_Driver/src/stm32f10x_dma.c ****   *     @arg DMA2_FLAG_TE3: DMA2 Channel3 transfer error flag.
 519:lib/STM32F10x_StdPeriph_Driver/src/stm32f10x_dma.c ****   *     @arg DMA2_FLAG_GL4: DMA2 Channel4 global flag.
 520:lib/STM32F10x_StdPeriph_Driver/src/stm32f10x_dma.c ****   *     @arg DMA2_FLAG_TC4: DMA2 Channel4 transfer complete flag.
 521:lib/STM32F10x_StdPeriph_Driver/src/stm32f10x_dma.c ****   *     @arg DMA2_FLAG_HT4: DMA2 Channel4 half transfer flag.
 522:lib/STM32F10x_StdPeriph_Driver/src/stm32f10x_dma.c ****   *     @arg DMA2_FLAG_TE4: DMA2 Channel4 transfer error flag.
 523:lib/STM32F10x_StdPeriph_Driver/src/stm32f10x_dma.c ****   *     @arg DMA2_FLAG_GL5: DMA2 Channel5 global flag.
 524:lib/STM32F10x_StdPeriph_Driver/src/stm32f10x_dma.c ****   *     @arg DMA2_FLAG_TC5: DMA2 Channel5 transfer complete flag.
 525:lib/STM32F10x_StdPeriph_Driver/src/stm32f10x_dma.c ****   *     @arg DMA2_FLAG_HT5: DMA2 Channel5 half transfer flag.
 526:lib/STM32F10x_StdPeriph_Driver/src/stm32f10x_dma.c ****   *     @arg DMA2_FLAG_TE5: DMA2 Channel5 transfer error flag.
 527:lib/STM32F10x_StdPeriph_Driver/src/stm32f10x_dma.c ****   * @retval None
 528:lib/STM32F10x_StdPeriph_Driver/src/stm32f10x_dma.c ****   */
 529:lib/STM32F10x_StdPeriph_Driver/src/stm32f10x_dma.c **** void DMA_ClearFlag(uint32_t DMAy_FLAG)
 530:lib/STM32F10x_StdPeriph_Driver/src/stm32f10x_dma.c **** {
 439              		.loc 1 530 0
 440              		.cfi_startproc
 441              		@ args = 0, pretend = 0, frame = 0
 442              		@ frame_needed = 0, uses_anonymous_args = 0
 443              		@ link register save eliminated.
 444              	.LVL32:
 531:lib/STM32F10x_StdPeriph_Driver/src/stm32f10x_dma.c ****   /* Check the parameters */
 532:lib/STM32F10x_StdPeriph_Driver/src/stm32f10x_dma.c ****   assert_param(IS_DMA_CLEAR_FLAG(DMAy_FLAG));
 533:lib/STM32F10x_StdPeriph_Driver/src/stm32f10x_dma.c **** 
 534:lib/STM32F10x_StdPeriph_Driver/src/stm32f10x_dma.c ****   /* Calculate the used DMAy */
 535:lib/STM32F10x_StdPeriph_Driver/src/stm32f10x_dma.c ****   if ((DMAy_FLAG & FLAG_Mask) != (uint32_t)RESET)
 445              		.loc 1 535 0
 446 0000 C200     		lsls	r2, r0, #3
 536:lib/STM32F10x_StdPeriph_Driver/src/stm32f10x_dma.c ****   {
 537:lib/STM32F10x_StdPeriph_Driver/src/stm32f10x_dma.c ****     /* Clear the selected DMAy flags */
 538:lib/STM32F10x_StdPeriph_Driver/src/stm32f10x_dma.c ****     DMA2->IFCR = DMAy_FLAG;
 447              		.loc 1 538 0
 448 0002 4CBF     		ite	mi
 449 0004 014B     		ldrmi	r3, .L44
 539:lib/STM32F10x_StdPeriph_Driver/src/stm32f10x_dma.c ****   }
 540:lib/STM32F10x_StdPeriph_Driver/src/stm32f10x_dma.c ****   else
 541:lib/STM32F10x_StdPeriph_Driver/src/stm32f10x_dma.c ****   {
 542:lib/STM32F10x_StdPeriph_Driver/src/stm32f10x_dma.c ****     /* Clear the selected DMAy flags */
 543:lib/STM32F10x_StdPeriph_Driver/src/stm32f10x_dma.c ****     DMA1->IFCR = DMAy_FLAG;
 450              		.loc 1 543 0
 451 0006 024B     		ldrpl	r3, .L44+4
 452 0008 5860     		str	r0, [r3, #4]
 453 000a 7047     		bx	lr
 454              	.L45:
 455              		.align	2
 456              	.L44:
 457 000c 00040240 		.word	1073873920
 458 0010 00000240 		.word	1073872896
 459              		.cfi_endproc
 460              	.LFE64:
 462              		.section	.text.DMA_GetITStatus,"ax",%progbits
 463              		.align	1
 464              		.global	DMA_GetITStatus
 465              		.thumb
 466              		.thumb_func
 468              	DMA_GetITStatus:
 469              	.LFB65:
 544:lib/STM32F10x_StdPeriph_Driver/src/stm32f10x_dma.c ****   }
 545:lib/STM32F10x_StdPeriph_Driver/src/stm32f10x_dma.c **** }
 546:lib/STM32F10x_StdPeriph_Driver/src/stm32f10x_dma.c **** 
 547:lib/STM32F10x_StdPeriph_Driver/src/stm32f10x_dma.c **** /**
 548:lib/STM32F10x_StdPeriph_Driver/src/stm32f10x_dma.c ****   * @brief  Checks whether the specified DMAy Channelx interrupt has occurred or not.
 549:lib/STM32F10x_StdPeriph_Driver/src/stm32f10x_dma.c ****   * @param  DMAy_IT: specifies the DMAy interrupt source to check. 
 550:lib/STM32F10x_StdPeriph_Driver/src/stm32f10x_dma.c ****   *   This parameter can be one of the following values:
 551:lib/STM32F10x_StdPeriph_Driver/src/stm32f10x_dma.c ****   *     @arg DMA1_IT_GL1: DMA1 Channel1 global interrupt.
 552:lib/STM32F10x_StdPeriph_Driver/src/stm32f10x_dma.c ****   *     @arg DMA1_IT_TC1: DMA1 Channel1 transfer complete interrupt.
 553:lib/STM32F10x_StdPeriph_Driver/src/stm32f10x_dma.c ****   *     @arg DMA1_IT_HT1: DMA1 Channel1 half transfer interrupt.
 554:lib/STM32F10x_StdPeriph_Driver/src/stm32f10x_dma.c ****   *     @arg DMA1_IT_TE1: DMA1 Channel1 transfer error interrupt.
 555:lib/STM32F10x_StdPeriph_Driver/src/stm32f10x_dma.c ****   *     @arg DMA1_IT_GL2: DMA1 Channel2 global interrupt.
 556:lib/STM32F10x_StdPeriph_Driver/src/stm32f10x_dma.c ****   *     @arg DMA1_IT_TC2: DMA1 Channel2 transfer complete interrupt.
 557:lib/STM32F10x_StdPeriph_Driver/src/stm32f10x_dma.c ****   *     @arg DMA1_IT_HT2: DMA1 Channel2 half transfer interrupt.
 558:lib/STM32F10x_StdPeriph_Driver/src/stm32f10x_dma.c ****   *     @arg DMA1_IT_TE2: DMA1 Channel2 transfer error interrupt.
 559:lib/STM32F10x_StdPeriph_Driver/src/stm32f10x_dma.c ****   *     @arg DMA1_IT_GL3: DMA1 Channel3 global interrupt.
 560:lib/STM32F10x_StdPeriph_Driver/src/stm32f10x_dma.c ****   *     @arg DMA1_IT_TC3: DMA1 Channel3 transfer complete interrupt.
 561:lib/STM32F10x_StdPeriph_Driver/src/stm32f10x_dma.c ****   *     @arg DMA1_IT_HT3: DMA1 Channel3 half transfer interrupt.
 562:lib/STM32F10x_StdPeriph_Driver/src/stm32f10x_dma.c ****   *     @arg DMA1_IT_TE3: DMA1 Channel3 transfer error interrupt.
 563:lib/STM32F10x_StdPeriph_Driver/src/stm32f10x_dma.c ****   *     @arg DMA1_IT_GL4: DMA1 Channel4 global interrupt.
 564:lib/STM32F10x_StdPeriph_Driver/src/stm32f10x_dma.c ****   *     @arg DMA1_IT_TC4: DMA1 Channel4 transfer complete interrupt.
 565:lib/STM32F10x_StdPeriph_Driver/src/stm32f10x_dma.c ****   *     @arg DMA1_IT_HT4: DMA1 Channel4 half transfer interrupt.
 566:lib/STM32F10x_StdPeriph_Driver/src/stm32f10x_dma.c ****   *     @arg DMA1_IT_TE4: DMA1 Channel4 transfer error interrupt.
 567:lib/STM32F10x_StdPeriph_Driver/src/stm32f10x_dma.c ****   *     @arg DMA1_IT_GL5: DMA1 Channel5 global interrupt.
 568:lib/STM32F10x_StdPeriph_Driver/src/stm32f10x_dma.c ****   *     @arg DMA1_IT_TC5: DMA1 Channel5 transfer complete interrupt.
 569:lib/STM32F10x_StdPeriph_Driver/src/stm32f10x_dma.c ****   *     @arg DMA1_IT_HT5: DMA1 Channel5 half transfer interrupt.
 570:lib/STM32F10x_StdPeriph_Driver/src/stm32f10x_dma.c ****   *     @arg DMA1_IT_TE5: DMA1 Channel5 transfer error interrupt.
 571:lib/STM32F10x_StdPeriph_Driver/src/stm32f10x_dma.c ****   *     @arg DMA1_IT_GL6: DMA1 Channel6 global interrupt.
 572:lib/STM32F10x_StdPeriph_Driver/src/stm32f10x_dma.c ****   *     @arg DMA1_IT_TC6: DMA1 Channel6 transfer complete interrupt.
 573:lib/STM32F10x_StdPeriph_Driver/src/stm32f10x_dma.c ****   *     @arg DMA1_IT_HT6: DMA1 Channel6 half transfer interrupt.
 574:lib/STM32F10x_StdPeriph_Driver/src/stm32f10x_dma.c ****   *     @arg DMA1_IT_TE6: DMA1 Channel6 transfer error interrupt.
 575:lib/STM32F10x_StdPeriph_Driver/src/stm32f10x_dma.c ****   *     @arg DMA1_IT_GL7: DMA1 Channel7 global interrupt.
 576:lib/STM32F10x_StdPeriph_Driver/src/stm32f10x_dma.c ****   *     @arg DMA1_IT_TC7: DMA1 Channel7 transfer complete interrupt.
 577:lib/STM32F10x_StdPeriph_Driver/src/stm32f10x_dma.c ****   *     @arg DMA1_IT_HT7: DMA1 Channel7 half transfer interrupt.
 578:lib/STM32F10x_StdPeriph_Driver/src/stm32f10x_dma.c ****   *     @arg DMA1_IT_TE7: DMA1 Channel7 transfer error interrupt.
 579:lib/STM32F10x_StdPeriph_Driver/src/stm32f10x_dma.c ****   *     @arg DMA2_IT_GL1: DMA2 Channel1 global interrupt.
 580:lib/STM32F10x_StdPeriph_Driver/src/stm32f10x_dma.c ****   *     @arg DMA2_IT_TC1: DMA2 Channel1 transfer complete interrupt.
 581:lib/STM32F10x_StdPeriph_Driver/src/stm32f10x_dma.c ****   *     @arg DMA2_IT_HT1: DMA2 Channel1 half transfer interrupt.
 582:lib/STM32F10x_StdPeriph_Driver/src/stm32f10x_dma.c ****   *     @arg DMA2_IT_TE1: DMA2 Channel1 transfer error interrupt.
 583:lib/STM32F10x_StdPeriph_Driver/src/stm32f10x_dma.c ****   *     @arg DMA2_IT_GL2: DMA2 Channel2 global interrupt.
 584:lib/STM32F10x_StdPeriph_Driver/src/stm32f10x_dma.c ****   *     @arg DMA2_IT_TC2: DMA2 Channel2 transfer complete interrupt.
 585:lib/STM32F10x_StdPeriph_Driver/src/stm32f10x_dma.c ****   *     @arg DMA2_IT_HT2: DMA2 Channel2 half transfer interrupt.
 586:lib/STM32F10x_StdPeriph_Driver/src/stm32f10x_dma.c ****   *     @arg DMA2_IT_TE2: DMA2 Channel2 transfer error interrupt.
 587:lib/STM32F10x_StdPeriph_Driver/src/stm32f10x_dma.c ****   *     @arg DMA2_IT_GL3: DMA2 Channel3 global interrupt.
 588:lib/STM32F10x_StdPeriph_Driver/src/stm32f10x_dma.c ****   *     @arg DMA2_IT_TC3: DMA2 Channel3 transfer complete interrupt.
 589:lib/STM32F10x_StdPeriph_Driver/src/stm32f10x_dma.c ****   *     @arg DMA2_IT_HT3: DMA2 Channel3 half transfer interrupt.
 590:lib/STM32F10x_StdPeriph_Driver/src/stm32f10x_dma.c ****   *     @arg DMA2_IT_TE3: DMA2 Channel3 transfer error interrupt.
 591:lib/STM32F10x_StdPeriph_Driver/src/stm32f10x_dma.c ****   *     @arg DMA2_IT_GL4: DMA2 Channel4 global interrupt.
 592:lib/STM32F10x_StdPeriph_Driver/src/stm32f10x_dma.c ****   *     @arg DMA2_IT_TC4: DMA2 Channel4 transfer complete interrupt.
 593:lib/STM32F10x_StdPeriph_Driver/src/stm32f10x_dma.c ****   *     @arg DMA2_IT_HT4: DMA2 Channel4 half transfer interrupt.
 594:lib/STM32F10x_StdPeriph_Driver/src/stm32f10x_dma.c ****   *     @arg DMA2_IT_TE4: DMA2 Channel4 transfer error interrupt.
 595:lib/STM32F10x_StdPeriph_Driver/src/stm32f10x_dma.c ****   *     @arg DMA2_IT_GL5: DMA2 Channel5 global interrupt.
 596:lib/STM32F10x_StdPeriph_Driver/src/stm32f10x_dma.c ****   *     @arg DMA2_IT_TC5: DMA2 Channel5 transfer complete interrupt.
 597:lib/STM32F10x_StdPeriph_Driver/src/stm32f10x_dma.c ****   *     @arg DMA2_IT_HT5: DMA2 Channel5 half transfer interrupt.
 598:lib/STM32F10x_StdPeriph_Driver/src/stm32f10x_dma.c ****   *     @arg DMA2_IT_TE5: DMA2 Channel5 transfer error interrupt.
 599:lib/STM32F10x_StdPeriph_Driver/src/stm32f10x_dma.c ****   * @retval The new state of DMAy_IT (SET or RESET).
 600:lib/STM32F10x_StdPeriph_Driver/src/stm32f10x_dma.c ****   */
 601:lib/STM32F10x_StdPeriph_Driver/src/stm32f10x_dma.c **** ITStatus DMA_GetITStatus(uint32_t DMAy_IT)
 602:lib/STM32F10x_StdPeriph_Driver/src/stm32f10x_dma.c **** {
 470              		.loc 1 602 0
 471              		.cfi_startproc
 472              		@ args = 0, pretend = 0, frame = 0
 473              		@ frame_needed = 0, uses_anonymous_args = 0
 474              		@ link register save eliminated.
 475              	.LVL33:
 476              	.LVL34:
 603:lib/STM32F10x_StdPeriph_Driver/src/stm32f10x_dma.c ****   ITStatus bitstatus = RESET;
 604:lib/STM32F10x_StdPeriph_Driver/src/stm32f10x_dma.c ****   uint32_t tmpreg = 0;
 605:lib/STM32F10x_StdPeriph_Driver/src/stm32f10x_dma.c **** 
 606:lib/STM32F10x_StdPeriph_Driver/src/stm32f10x_dma.c ****   /* Check the parameters */
 607:lib/STM32F10x_StdPeriph_Driver/src/stm32f10x_dma.c ****   assert_param(IS_DMA_GET_IT(DMAy_IT));
 608:lib/STM32F10x_StdPeriph_Driver/src/stm32f10x_dma.c **** 
 609:lib/STM32F10x_StdPeriph_Driver/src/stm32f10x_dma.c ****   /* Calculate the used DMA */
 610:lib/STM32F10x_StdPeriph_Driver/src/stm32f10x_dma.c ****   if ((DMAy_IT & FLAG_Mask) != (uint32_t)RESET)
 477              		.loc 1 610 0
 478 0000 C100     		lsls	r1, r0, #3
 611:lib/STM32F10x_StdPeriph_Driver/src/stm32f10x_dma.c ****   {
 612:lib/STM32F10x_StdPeriph_Driver/src/stm32f10x_dma.c ****     /* Get DMA2 ISR register value */
 613:lib/STM32F10x_StdPeriph_Driver/src/stm32f10x_dma.c ****     tmpreg = DMA2->ISR;
 479              		.loc 1 613 0
 480 0002 4CBF     		ite	mi
 481 0004 034B     		ldrmi	r3, .L50
 614:lib/STM32F10x_StdPeriph_Driver/src/stm32f10x_dma.c ****   }
 615:lib/STM32F10x_StdPeriph_Driver/src/stm32f10x_dma.c ****   else
 616:lib/STM32F10x_StdPeriph_Driver/src/stm32f10x_dma.c ****   {
 617:lib/STM32F10x_StdPeriph_Driver/src/stm32f10x_dma.c ****     /* Get DMA1 ISR register value */
 618:lib/STM32F10x_StdPeriph_Driver/src/stm32f10x_dma.c ****     tmpreg = DMA1->ISR;
 482              		.loc 1 618 0
 483 0006 044B     		ldrpl	r3, .L50+4
 484 0008 1B68     		ldr	r3, [r3, #0]
 485              	.LVL35:
 619:lib/STM32F10x_StdPeriph_Driver/src/stm32f10x_dma.c ****   }
 620:lib/STM32F10x_StdPeriph_Driver/src/stm32f10x_dma.c **** 
 621:lib/STM32F10x_StdPeriph_Driver/src/stm32f10x_dma.c ****   /* Check the status of the specified DMAy interrupt */
 622:lib/STM32F10x_StdPeriph_Driver/src/stm32f10x_dma.c ****   if ((tmpreg & DMAy_IT) != (uint32_t)RESET)
 486              		.loc 1 622 0
 487 000a 0342     		tst	r3, r0
 623:lib/STM32F10x_StdPeriph_Driver/src/stm32f10x_dma.c ****   {
 624:lib/STM32F10x_StdPeriph_Driver/src/stm32f10x_dma.c ****     /* DMAy_IT is set */
 625:lib/STM32F10x_StdPeriph_Driver/src/stm32f10x_dma.c ****     bitstatus = SET;
 626:lib/STM32F10x_StdPeriph_Driver/src/stm32f10x_dma.c ****   }
 627:lib/STM32F10x_StdPeriph_Driver/src/stm32f10x_dma.c ****   else
 628:lib/STM32F10x_StdPeriph_Driver/src/stm32f10x_dma.c ****   {
 629:lib/STM32F10x_StdPeriph_Driver/src/stm32f10x_dma.c ****     /* DMAy_IT is reset */
 630:lib/STM32F10x_StdPeriph_Driver/src/stm32f10x_dma.c ****     bitstatus = RESET;
 631:lib/STM32F10x_StdPeriph_Driver/src/stm32f10x_dma.c ****   }
 632:lib/STM32F10x_StdPeriph_Driver/src/stm32f10x_dma.c ****   /* Return the DMA_IT status */
 633:lib/STM32F10x_StdPeriph_Driver/src/stm32f10x_dma.c ****   return  bitstatus;
 634:lib/STM32F10x_StdPeriph_Driver/src/stm32f10x_dma.c **** }
 488              		.loc 1 634 0
 489 000c 0CBF     		ite	eq
 490 000e 0020     		moveq	r0, #0
 491 0010 0120     		movne	r0, #1
 492              	.LVL36:
 493 0012 7047     		bx	lr
 494              	.L51:
 495              		.align	2
 496              	.L50:
 497 0014 00040240 		.word	1073873920
 498 0018 00000240 		.word	1073872896
 499              		.cfi_endproc
 500              	.LFE65:
 502              		.section	.text.DMA_ClearITPendingBit,"ax",%progbits
 503              		.align	1
 504              		.global	DMA_ClearITPendingBit
 505              		.thumb
 506              		.thumb_func
 508              	DMA_ClearITPendingBit:
 509              	.LFB66:
 635:lib/STM32F10x_StdPeriph_Driver/src/stm32f10x_dma.c **** 
 636:lib/STM32F10x_StdPeriph_Driver/src/stm32f10x_dma.c **** /**
 637:lib/STM32F10x_StdPeriph_Driver/src/stm32f10x_dma.c ****   * @brief  Clears the DMAy Channelx's interrupt pending bits.
 638:lib/STM32F10x_StdPeriph_Driver/src/stm32f10x_dma.c ****   * @param  DMAy_IT: specifies the DMAy interrupt pending bit to clear.
 639:lib/STM32F10x_StdPeriph_Driver/src/stm32f10x_dma.c ****   *   This parameter can be any combination (for the same DMA) of the following values:
 640:lib/STM32F10x_StdPeriph_Driver/src/stm32f10x_dma.c ****   *     @arg DMA1_IT_GL1: DMA1 Channel1 global interrupt.
 641:lib/STM32F10x_StdPeriph_Driver/src/stm32f10x_dma.c ****   *     @arg DMA1_IT_TC1: DMA1 Channel1 transfer complete interrupt.
 642:lib/STM32F10x_StdPeriph_Driver/src/stm32f10x_dma.c ****   *     @arg DMA1_IT_HT1: DMA1 Channel1 half transfer interrupt.
 643:lib/STM32F10x_StdPeriph_Driver/src/stm32f10x_dma.c ****   *     @arg DMA1_IT_TE1: DMA1 Channel1 transfer error interrupt.
 644:lib/STM32F10x_StdPeriph_Driver/src/stm32f10x_dma.c ****   *     @arg DMA1_IT_GL2: DMA1 Channel2 global interrupt.
 645:lib/STM32F10x_StdPeriph_Driver/src/stm32f10x_dma.c ****   *     @arg DMA1_IT_TC2: DMA1 Channel2 transfer complete interrupt.
 646:lib/STM32F10x_StdPeriph_Driver/src/stm32f10x_dma.c ****   *     @arg DMA1_IT_HT2: DMA1 Channel2 half transfer interrupt.
 647:lib/STM32F10x_StdPeriph_Driver/src/stm32f10x_dma.c ****   *     @arg DMA1_IT_TE2: DMA1 Channel2 transfer error interrupt.
 648:lib/STM32F10x_StdPeriph_Driver/src/stm32f10x_dma.c ****   *     @arg DMA1_IT_GL3: DMA1 Channel3 global interrupt.
 649:lib/STM32F10x_StdPeriph_Driver/src/stm32f10x_dma.c ****   *     @arg DMA1_IT_TC3: DMA1 Channel3 transfer complete interrupt.
 650:lib/STM32F10x_StdPeriph_Driver/src/stm32f10x_dma.c ****   *     @arg DMA1_IT_HT3: DMA1 Channel3 half transfer interrupt.
 651:lib/STM32F10x_StdPeriph_Driver/src/stm32f10x_dma.c ****   *     @arg DMA1_IT_TE3: DMA1 Channel3 transfer error interrupt.
 652:lib/STM32F10x_StdPeriph_Driver/src/stm32f10x_dma.c ****   *     @arg DMA1_IT_GL4: DMA1 Channel4 global interrupt.
 653:lib/STM32F10x_StdPeriph_Driver/src/stm32f10x_dma.c ****   *     @arg DMA1_IT_TC4: DMA1 Channel4 transfer complete interrupt.
 654:lib/STM32F10x_StdPeriph_Driver/src/stm32f10x_dma.c ****   *     @arg DMA1_IT_HT4: DMA1 Channel4 half transfer interrupt.
 655:lib/STM32F10x_StdPeriph_Driver/src/stm32f10x_dma.c ****   *     @arg DMA1_IT_TE4: DMA1 Channel4 transfer error interrupt.
 656:lib/STM32F10x_StdPeriph_Driver/src/stm32f10x_dma.c ****   *     @arg DMA1_IT_GL5: DMA1 Channel5 global interrupt.
 657:lib/STM32F10x_StdPeriph_Driver/src/stm32f10x_dma.c ****   *     @arg DMA1_IT_TC5: DMA1 Channel5 transfer complete interrupt.
 658:lib/STM32F10x_StdPeriph_Driver/src/stm32f10x_dma.c ****   *     @arg DMA1_IT_HT5: DMA1 Channel5 half transfer interrupt.
 659:lib/STM32F10x_StdPeriph_Driver/src/stm32f10x_dma.c ****   *     @arg DMA1_IT_TE5: DMA1 Channel5 transfer error interrupt.
 660:lib/STM32F10x_StdPeriph_Driver/src/stm32f10x_dma.c ****   *     @arg DMA1_IT_GL6: DMA1 Channel6 global interrupt.
 661:lib/STM32F10x_StdPeriph_Driver/src/stm32f10x_dma.c ****   *     @arg DMA1_IT_TC6: DMA1 Channel6 transfer complete interrupt.
 662:lib/STM32F10x_StdPeriph_Driver/src/stm32f10x_dma.c ****   *     @arg DMA1_IT_HT6: DMA1 Channel6 half transfer interrupt.
 663:lib/STM32F10x_StdPeriph_Driver/src/stm32f10x_dma.c ****   *     @arg DMA1_IT_TE6: DMA1 Channel6 transfer error interrupt.
 664:lib/STM32F10x_StdPeriph_Driver/src/stm32f10x_dma.c ****   *     @arg DMA1_IT_GL7: DMA1 Channel7 global interrupt.
 665:lib/STM32F10x_StdPeriph_Driver/src/stm32f10x_dma.c ****   *     @arg DMA1_IT_TC7: DMA1 Channel7 transfer complete interrupt.
 666:lib/STM32F10x_StdPeriph_Driver/src/stm32f10x_dma.c ****   *     @arg DMA1_IT_HT7: DMA1 Channel7 half transfer interrupt.
 667:lib/STM32F10x_StdPeriph_Driver/src/stm32f10x_dma.c ****   *     @arg DMA1_IT_TE7: DMA1 Channel7 transfer error interrupt.
 668:lib/STM32F10x_StdPeriph_Driver/src/stm32f10x_dma.c ****   *     @arg DMA2_IT_GL1: DMA2 Channel1 global interrupt.
 669:lib/STM32F10x_StdPeriph_Driver/src/stm32f10x_dma.c ****   *     @arg DMA2_IT_TC1: DMA2 Channel1 transfer complete interrupt.
 670:lib/STM32F10x_StdPeriph_Driver/src/stm32f10x_dma.c ****   *     @arg DMA2_IT_HT1: DMA2 Channel1 half transfer interrupt.
 671:lib/STM32F10x_StdPeriph_Driver/src/stm32f10x_dma.c ****   *     @arg DMA2_IT_TE1: DMA2 Channel1 transfer error interrupt.
 672:lib/STM32F10x_StdPeriph_Driver/src/stm32f10x_dma.c ****   *     @arg DMA2_IT_GL2: DMA2 Channel2 global interrupt.
 673:lib/STM32F10x_StdPeriph_Driver/src/stm32f10x_dma.c ****   *     @arg DMA2_IT_TC2: DMA2 Channel2 transfer complete interrupt.
 674:lib/STM32F10x_StdPeriph_Driver/src/stm32f10x_dma.c ****   *     @arg DMA2_IT_HT2: DMA2 Channel2 half transfer interrupt.
 675:lib/STM32F10x_StdPeriph_Driver/src/stm32f10x_dma.c ****   *     @arg DMA2_IT_TE2: DMA2 Channel2 transfer error interrupt.
 676:lib/STM32F10x_StdPeriph_Driver/src/stm32f10x_dma.c ****   *     @arg DMA2_IT_GL3: DMA2 Channel3 global interrupt.
 677:lib/STM32F10x_StdPeriph_Driver/src/stm32f10x_dma.c ****   *     @arg DMA2_IT_TC3: DMA2 Channel3 transfer complete interrupt.
 678:lib/STM32F10x_StdPeriph_Driver/src/stm32f10x_dma.c ****   *     @arg DMA2_IT_HT3: DMA2 Channel3 half transfer interrupt.
 679:lib/STM32F10x_StdPeriph_Driver/src/stm32f10x_dma.c ****   *     @arg DMA2_IT_TE3: DMA2 Channel3 transfer error interrupt.
 680:lib/STM32F10x_StdPeriph_Driver/src/stm32f10x_dma.c ****   *     @arg DMA2_IT_GL4: DMA2 Channel4 global interrupt.
 681:lib/STM32F10x_StdPeriph_Driver/src/stm32f10x_dma.c ****   *     @arg DMA2_IT_TC4: DMA2 Channel4 transfer complete interrupt.
 682:lib/STM32F10x_StdPeriph_Driver/src/stm32f10x_dma.c ****   *     @arg DMA2_IT_HT4: DMA2 Channel4 half transfer interrupt.
 683:lib/STM32F10x_StdPeriph_Driver/src/stm32f10x_dma.c ****   *     @arg DMA2_IT_TE4: DMA2 Channel4 transfer error interrupt.
 684:lib/STM32F10x_StdPeriph_Driver/src/stm32f10x_dma.c ****   *     @arg DMA2_IT_GL5: DMA2 Channel5 global interrupt.
 685:lib/STM32F10x_StdPeriph_Driver/src/stm32f10x_dma.c ****   *     @arg DMA2_IT_TC5: DMA2 Channel5 transfer complete interrupt.
 686:lib/STM32F10x_StdPeriph_Driver/src/stm32f10x_dma.c ****   *     @arg DMA2_IT_HT5: DMA2 Channel5 half transfer interrupt.
 687:lib/STM32F10x_StdPeriph_Driver/src/stm32f10x_dma.c ****   *     @arg DMA2_IT_TE5: DMA2 Channel5 transfer error interrupt.
 688:lib/STM32F10x_StdPeriph_Driver/src/stm32f10x_dma.c ****   * @retval None
 689:lib/STM32F10x_StdPeriph_Driver/src/stm32f10x_dma.c ****   */
 690:lib/STM32F10x_StdPeriph_Driver/src/stm32f10x_dma.c **** void DMA_ClearITPendingBit(uint32_t DMAy_IT)
 691:lib/STM32F10x_StdPeriph_Driver/src/stm32f10x_dma.c **** {
 510              		.loc 1 691 0
 511              		.cfi_startproc
 512              		@ args = 0, pretend = 0, frame = 0
 513              		@ frame_needed = 0, uses_anonymous_args = 0
 514              		@ link register save eliminated.
 515              	.LVL37:
 692:lib/STM32F10x_StdPeriph_Driver/src/stm32f10x_dma.c ****   /* Check the parameters */
 693:lib/STM32F10x_StdPeriph_Driver/src/stm32f10x_dma.c ****   assert_param(IS_DMA_CLEAR_IT(DMAy_IT));
 694:lib/STM32F10x_StdPeriph_Driver/src/stm32f10x_dma.c **** 
 695:lib/STM32F10x_StdPeriph_Driver/src/stm32f10x_dma.c ****   /* Calculate the used DMAy */
 696:lib/STM32F10x_StdPeriph_Driver/src/stm32f10x_dma.c ****   if ((DMAy_IT & FLAG_Mask) != (uint32_t)RESET)
 516              		.loc 1 696 0
 517 0000 C300     		lsls	r3, r0, #3
 697:lib/STM32F10x_StdPeriph_Driver/src/stm32f10x_dma.c ****   {
 698:lib/STM32F10x_StdPeriph_Driver/src/stm32f10x_dma.c ****     /* Clear the selected DMAy interrupt pending bits */
 699:lib/STM32F10x_StdPeriph_Driver/src/stm32f10x_dma.c ****     DMA2->IFCR = DMAy_IT;
 518              		.loc 1 699 0
 519 0002 4CBF     		ite	mi
 520 0004 014B     		ldrmi	r3, .L56
 700:lib/STM32F10x_StdPeriph_Driver/src/stm32f10x_dma.c ****   }
 701:lib/STM32F10x_StdPeriph_Driver/src/stm32f10x_dma.c ****   else
 702:lib/STM32F10x_StdPeriph_Driver/src/stm32f10x_dma.c ****   {
 703:lib/STM32F10x_StdPeriph_Driver/src/stm32f10x_dma.c ****     /* Clear the selected DMAy interrupt pending bits */
 704:lib/STM32F10x_StdPeriph_Driver/src/stm32f10x_dma.c ****     DMA1->IFCR = DMAy_IT;
 521              		.loc 1 704 0
 522 0006 024B     		ldrpl	r3, .L56+4
 523 0008 5860     		str	r0, [r3, #4]
 524 000a 7047     		bx	lr
 525              	.L57:
 526              		.align	2
 527              	.L56:
 528 000c 00040240 		.word	1073873920
 529 0010 00000240 		.word	1073872896
 530              		.cfi_endproc
 531              	.LFE66:
 533              		.text
 534              	.Letext0:
 535              		.file 2 "c:\\devz\\arm\\bleeding-edge\\bin\\../lib/gcc/arm-none-eabi/4.7.3/include/stdint-gcc.h"
 536              		.file 3 "./lib/CMSIS/Device/ST/STM32F10x/Include/stm32f10x.h"
 537              		.file 4 "./lib/STM32F10x_StdPeriph_Driver/inc/stm32f10x_dma.h"
 538              		.file 5 "./lib/CMSIS/Include/core_cm3.h"