   1              		.syntax unified
   2              		.cpu cortex-m3
   3              		.fpu softvfp
   4              		.eabi_attribute 20, 1
   5              		.eabi_attribute 21, 1
   6              		.eabi_attribute 23, 3
   7              		.eabi_attribute 24, 1
   8              		.eabi_attribute 25, 1
   9              		.eabi_attribute 26, 1
  10              		.eabi_attribute 30, 4
  11              		.eabi_attribute 34, 0
  12              		.eabi_attribute 18, 4
  13              		.thumb
  14              		.file	"usb_sil.c"
  15              		.text
  16              	.Ltext0:
  17              		.cfi_sections	.debug_frame
  18              		.section	.text.USB_SIL_Init,"ax",%progbits
  19              		.align	1
  20              		.global	USB_SIL_Init
  21              		.thumb
  22              		.thumb_func
  24              	USB_SIL_Init:
  25              	.LFB57:
  26              		.file 1 "lib/STM32_USB-FS-Device_Driver/src/usb_sil.c"
   1:lib/STM32_USB-FS-Device_Driver/src/usb_sil.c **** /**
   2:lib/STM32_USB-FS-Device_Driver/src/usb_sil.c ****   ******************************************************************************
   3:lib/STM32_USB-FS-Device_Driver/src/usb_sil.c ****   * @file    usb_sil.c
   4:lib/STM32_USB-FS-Device_Driver/src/usb_sil.c ****   * @author  MCD Application Team
   5:lib/STM32_USB-FS-Device_Driver/src/usb_sil.c ****   * @version V4.0.0
   6:lib/STM32_USB-FS-Device_Driver/src/usb_sil.c ****   * @date    28-August-2012
   7:lib/STM32_USB-FS-Device_Driver/src/usb_sil.c ****   * @brief   Simplified Interface Layer for Global Initialization and Endpoint
   8:lib/STM32_USB-FS-Device_Driver/src/usb_sil.c ****   *          Rea/Write operations.
   9:lib/STM32_USB-FS-Device_Driver/src/usb_sil.c ****   ******************************************************************************
  10:lib/STM32_USB-FS-Device_Driver/src/usb_sil.c ****   * @attention
  11:lib/STM32_USB-FS-Device_Driver/src/usb_sil.c ****   *
  12:lib/STM32_USB-FS-Device_Driver/src/usb_sil.c ****   * <h2><center>&copy; COPYRIGHT 2012 STMicroelectronics</center></h2>
  13:lib/STM32_USB-FS-Device_Driver/src/usb_sil.c ****   *
  14:lib/STM32_USB-FS-Device_Driver/src/usb_sil.c ****   * Licensed under MCD-ST Liberty SW License Agreement V2, (the "License");
  15:lib/STM32_USB-FS-Device_Driver/src/usb_sil.c ****   * You may not use this file except in compliance with the License.
  16:lib/STM32_USB-FS-Device_Driver/src/usb_sil.c ****   * You may obtain a copy of the License at:
  17:lib/STM32_USB-FS-Device_Driver/src/usb_sil.c ****   *
  18:lib/STM32_USB-FS-Device_Driver/src/usb_sil.c ****   *        http://www.st.com/software_license_agreement_liberty_v2
  19:lib/STM32_USB-FS-Device_Driver/src/usb_sil.c ****   *
  20:lib/STM32_USB-FS-Device_Driver/src/usb_sil.c ****   * Unless required by applicable law or agreed to in writing, software 
  21:lib/STM32_USB-FS-Device_Driver/src/usb_sil.c ****   * distributed under the License is distributed on an "AS IS" BASIS, 
  22:lib/STM32_USB-FS-Device_Driver/src/usb_sil.c ****   * WITHOUT WARRANTIES OR CONDITIONS OF ANY KIND, either express or implied.
  23:lib/STM32_USB-FS-Device_Driver/src/usb_sil.c ****   * See the License for the specific language governing permissions and
  24:lib/STM32_USB-FS-Device_Driver/src/usb_sil.c ****   * limitations under the License.
  25:lib/STM32_USB-FS-Device_Driver/src/usb_sil.c ****   *
  26:lib/STM32_USB-FS-Device_Driver/src/usb_sil.c ****   ******************************************************************************
  27:lib/STM32_USB-FS-Device_Driver/src/usb_sil.c ****   */
  28:lib/STM32_USB-FS-Device_Driver/src/usb_sil.c **** 
  29:lib/STM32_USB-FS-Device_Driver/src/usb_sil.c **** 
  30:lib/STM32_USB-FS-Device_Driver/src/usb_sil.c **** /* Includes ------------------------------------------------------------------*/
  31:lib/STM32_USB-FS-Device_Driver/src/usb_sil.c **** #include "usb_lib.h"
  32:lib/STM32_USB-FS-Device_Driver/src/usb_sil.c **** 
  33:lib/STM32_USB-FS-Device_Driver/src/usb_sil.c **** /* Private typedef -----------------------------------------------------------*/
  34:lib/STM32_USB-FS-Device_Driver/src/usb_sil.c **** /* Private define ------------------------------------------------------------*/
  35:lib/STM32_USB-FS-Device_Driver/src/usb_sil.c **** /* Private macro -------------------------------------------------------------*/
  36:lib/STM32_USB-FS-Device_Driver/src/usb_sil.c **** /* Private variables ---------------------------------------------------------*/
  37:lib/STM32_USB-FS-Device_Driver/src/usb_sil.c **** /* Extern variables ----------------------------------------------------------*/
  38:lib/STM32_USB-FS-Device_Driver/src/usb_sil.c **** /* Private function prototypes -----------------------------------------------*/
  39:lib/STM32_USB-FS-Device_Driver/src/usb_sil.c **** /* Private functions ---------------------------------------------------------*/
  40:lib/STM32_USB-FS-Device_Driver/src/usb_sil.c **** 
  41:lib/STM32_USB-FS-Device_Driver/src/usb_sil.c **** /*******************************************************************************
  42:lib/STM32_USB-FS-Device_Driver/src/usb_sil.c **** * Function Name  : USB_SIL_Init
  43:lib/STM32_USB-FS-Device_Driver/src/usb_sil.c **** * Description    : Initialize the USB Device IP and the Endpoint 0.
  44:lib/STM32_USB-FS-Device_Driver/src/usb_sil.c **** * Input          : None.
  45:lib/STM32_USB-FS-Device_Driver/src/usb_sil.c **** * Output         : None.
  46:lib/STM32_USB-FS-Device_Driver/src/usb_sil.c **** * Return         : Status.
  47:lib/STM32_USB-FS-Device_Driver/src/usb_sil.c **** *******************************************************************************/
  48:lib/STM32_USB-FS-Device_Driver/src/usb_sil.c **** uint32_t USB_SIL_Init(void)
  49:lib/STM32_USB-FS-Device_Driver/src/usb_sil.c **** {
  27              		.loc 1 49 0
  28              		.cfi_startproc
  29              		@ args = 0, pretend = 0, frame = 0
  30              		@ frame_needed = 0, uses_anonymous_args = 0
  31              		@ link register save eliminated.
  50:lib/STM32_USB-FS-Device_Driver/src/usb_sil.c ****   /* USB interrupts initialization */
  51:lib/STM32_USB-FS-Device_Driver/src/usb_sil.c ****   /* clear pending interrupts */
  52:lib/STM32_USB-FS-Device_Driver/src/usb_sil.c ****   _SetISTR(0);
  32              		.loc 1 52 0
  33 0000 0020     		movs	r0, #0
  34 0002 044B     		ldr	r3, .L2
  35 0004 1860     		str	r0, [r3, #0]
  53:lib/STM32_USB-FS-Device_Driver/src/usb_sil.c ****   wInterrupt_Mask = IMR_MSK;
  36              		.loc 1 53 0
  37 0006 4FF40641 		mov	r1, #34304
  38 000a 034A     		ldr	r2, .L2+4
  39 000c 1180     		strh	r1, [r2, #0]	@ movhi
  54:lib/STM32_USB-FS-Device_Driver/src/usb_sil.c ****   /* set interrupts mask */
  55:lib/STM32_USB-FS-Device_Driver/src/usb_sil.c ****   _SetCNTR(wInterrupt_Mask);
  40              		.loc 1 55 0
  41 000e 034B     		ldr	r3, .L2+8
  42 0010 1960     		str	r1, [r3, #0]
  56:lib/STM32_USB-FS-Device_Driver/src/usb_sil.c ****   return 0;
  57:lib/STM32_USB-FS-Device_Driver/src/usb_sil.c **** }
  43              		.loc 1 57 0
  44 0012 7047     		bx	lr
  45              	.L3:
  46              		.align	2
  47              	.L2:
  48 0014 445C0040 		.word	1073765444
  49 0018 00000000 		.word	wInterrupt_Mask
  50 001c 405C0040 		.word	1073765440
  51              		.cfi_endproc
  52              	.LFE57:
  54              		.section	.text.USB_SIL_Write,"ax",%progbits
  55              		.align	1
  56              		.global	USB_SIL_Write
  57              		.thumb
  58              		.thumb_func
  60              	USB_SIL_Write:
  61              	.LFB58:
  58:lib/STM32_USB-FS-Device_Driver/src/usb_sil.c **** 
  59:lib/STM32_USB-FS-Device_Driver/src/usb_sil.c **** /*******************************************************************************
  60:lib/STM32_USB-FS-Device_Driver/src/usb_sil.c **** * Function Name  : USB_SIL_Write
  61:lib/STM32_USB-FS-Device_Driver/src/usb_sil.c **** * Description    : Write a buffer of data to a selected endpoint.
  62:lib/STM32_USB-FS-Device_Driver/src/usb_sil.c **** * Input          : - bEpAddr: The address of the non control endpoint.
  63:lib/STM32_USB-FS-Device_Driver/src/usb_sil.c **** *                  - pBufferPointer: The pointer to the buffer of data to be written
  64:lib/STM32_USB-FS-Device_Driver/src/usb_sil.c **** *                    to the endpoint.
  65:lib/STM32_USB-FS-Device_Driver/src/usb_sil.c **** *                  - wBufferSize: Number of data to be written (in bytes).
  66:lib/STM32_USB-FS-Device_Driver/src/usb_sil.c **** * Output         : None.
  67:lib/STM32_USB-FS-Device_Driver/src/usb_sil.c **** * Return         : Status.
  68:lib/STM32_USB-FS-Device_Driver/src/usb_sil.c **** *******************************************************************************/
  69:lib/STM32_USB-FS-Device_Driver/src/usb_sil.c **** uint32_t USB_SIL_Write(uint8_t bEpAddr, uint8_t* pBufferPointer, uint32_t wBufferSize)
  70:lib/STM32_USB-FS-Device_Driver/src/usb_sil.c **** {
  62              		.loc 1 70 0
  63              		.cfi_startproc
  64              		@ args = 0, pretend = 0, frame = 0
  65              		@ frame_needed = 0, uses_anonymous_args = 0
  66              	.LVL0:
  67 0000 70B5     		push	{r4, r5, r6, lr}
  68              	.LCFI0:
  69              		.cfi_def_cfa_offset 16
  70              		.cfi_offset 4, -16
  71              		.cfi_offset 5, -12
  72              		.cfi_offset 6, -8
  73              		.cfi_offset 14, -4
  74 0002 0E46     		mov	r6, r1
  75 0004 1446     		mov	r4, r2
  71:lib/STM32_USB-FS-Device_Driver/src/usb_sil.c ****   /* Use the memory interface function to write to the selected endpoint */
  72:lib/STM32_USB-FS-Device_Driver/src/usb_sil.c ****   UserToPMABufferCopy(pBufferPointer, GetEPTxAddr(bEpAddr & 0x7F), wBufferSize);
  76              		.loc 1 72 0
  77 0006 00F07F05 		and	r5, r0, #127
  78 000a 2846     		mov	r0, r5
  79              	.LVL1:
  80 000c FFF7FEFF 		bl	GetEPTxAddr
  81              	.LVL2:
  82 0010 0146     		mov	r1, r0
  83 0012 A4B2     		uxth	r4, r4
  84              	.LVL3:
  85 0014 3046     		mov	r0, r6
  86 0016 2246     		mov	r2, r4
  87 0018 FFF7FEFF 		bl	UserToPMABufferCopy
  88              	.LVL4:
  73:lib/STM32_USB-FS-Device_Driver/src/usb_sil.c **** 
  74:lib/STM32_USB-FS-Device_Driver/src/usb_sil.c ****   /* Update the data length in the control register */
  75:lib/STM32_USB-FS-Device_Driver/src/usb_sil.c ****   SetEPTxCount((bEpAddr & 0x7F), wBufferSize);
  89              		.loc 1 75 0
  90 001c 2846     		mov	r0, r5
  91 001e 2146     		mov	r1, r4
  92 0020 FFF7FEFF 		bl	SetEPTxCount
  93              	.LVL5:
  76:lib/STM32_USB-FS-Device_Driver/src/usb_sil.c ****   
  77:lib/STM32_USB-FS-Device_Driver/src/usb_sil.c ****   return 0;
  78:lib/STM32_USB-FS-Device_Driver/src/usb_sil.c **** }
  94              		.loc 1 78 0
  95 0024 0020     		movs	r0, #0
  96 0026 70BD     		pop	{r4, r5, r6, pc}
  97              		.cfi_endproc
  98              	.LFE58:
 100              		.section	.text.USB_SIL_Read,"ax",%progbits
 101              		.align	1
 102              		.global	USB_SIL_Read
 103              		.thumb
 104              		.thumb_func
 106              	USB_SIL_Read:
 107              	.LFB59:
  79:lib/STM32_USB-FS-Device_Driver/src/usb_sil.c **** 
  80:lib/STM32_USB-FS-Device_Driver/src/usb_sil.c **** /*******************************************************************************
  81:lib/STM32_USB-FS-Device_Driver/src/usb_sil.c **** * Function Name  : USB_SIL_Read
  82:lib/STM32_USB-FS-Device_Driver/src/usb_sil.c **** * Description    : Write a buffer of data to a selected endpoint.
  83:lib/STM32_USB-FS-Device_Driver/src/usb_sil.c **** * Input          : - bEpAddr: The address of the non control endpoint.
  84:lib/STM32_USB-FS-Device_Driver/src/usb_sil.c **** *                  - pBufferPointer: The pointer to which will be saved the 
  85:lib/STM32_USB-FS-Device_Driver/src/usb_sil.c **** *                     received data buffer.
  86:lib/STM32_USB-FS-Device_Driver/src/usb_sil.c **** * Output         : None.
  87:lib/STM32_USB-FS-Device_Driver/src/usb_sil.c **** * Return         : Number of received data (in Bytes).
  88:lib/STM32_USB-FS-Device_Driver/src/usb_sil.c **** *******************************************************************************/
  89:lib/STM32_USB-FS-Device_Driver/src/usb_sil.c **** uint32_t USB_SIL_Read(uint8_t bEpAddr, uint8_t* pBufferPointer)
  90:lib/STM32_USB-FS-Device_Driver/src/usb_sil.c **** {
 108              		.loc 1 90 0
 109              		.cfi_startproc
 110              		@ args = 0, pretend = 0, frame = 0
 111              		@ frame_needed = 0, uses_anonymous_args = 0
 112              	.LVL6:
 113 0000 70B5     		push	{r4, r5, r6, lr}
 114              	.LCFI1:
 115              		.cfi_def_cfa_offset 16
 116              		.cfi_offset 4, -16
 117              		.cfi_offset 5, -12
 118              		.cfi_offset 6, -8
 119              		.cfi_offset 14, -4
 120 0002 0E46     		mov	r6, r1
 121              	.LVL7:
  91:lib/STM32_USB-FS-Device_Driver/src/usb_sil.c ****   uint32_t DataLength = 0;
  92:lib/STM32_USB-FS-Device_Driver/src/usb_sil.c **** 
  93:lib/STM32_USB-FS-Device_Driver/src/usb_sil.c ****   /* Get the number of received data on the selected Endpoint */
  94:lib/STM32_USB-FS-Device_Driver/src/usb_sil.c ****   DataLength = GetEPRxCount(bEpAddr & 0x7F);
 122              		.loc 1 94 0
 123 0004 00F07F05 		and	r5, r0, #127
 124 0008 2846     		mov	r0, r5
 125              	.LVL8:
 126 000a FFF7FEFF 		bl	GetEPRxCount
 127              	.LVL9:
 128 000e 0446     		mov	r4, r0
 129              	.LVL10:
  95:lib/STM32_USB-FS-Device_Driver/src/usb_sil.c ****   
  96:lib/STM32_USB-FS-Device_Driver/src/usb_sil.c ****   /* Use the memory interface function to write to the selected endpoint */
  97:lib/STM32_USB-FS-Device_Driver/src/usb_sil.c ****   PMAToUserBufferCopy(pBufferPointer, GetEPRxAddr(bEpAddr & 0x7F), DataLength);
 130              		.loc 1 97 0
 131 0010 2846     		mov	r0, r5
 132              	.LVL11:
 133 0012 FFF7FEFF 		bl	GetEPRxAddr
 134              	.LVL12:
 135 0016 0146     		mov	r1, r0
 136 0018 3046     		mov	r0, r6
 137 001a 2246     		mov	r2, r4
 138 001c FFF7FEFF 		bl	PMAToUserBufferCopy
 139              	.LVL13:
  98:lib/STM32_USB-FS-Device_Driver/src/usb_sil.c **** 
  99:lib/STM32_USB-FS-Device_Driver/src/usb_sil.c ****   /* Return the number of received data */
 100:lib/STM32_USB-FS-Device_Driver/src/usb_sil.c ****   return DataLength;
 101:lib/STM32_USB-FS-Device_Driver/src/usb_sil.c **** }
 140              		.loc 1 101 0
 141 0020 2046     		mov	r0, r4
 142 0022 70BD     		pop	{r4, r5, r6, pc}
 143              		.cfi_endproc
 144              	.LFE59:
 146              		.text
 147              	.Letext0:
 148              		.file 2 "c:\\devz\\arm\\launchpad\\bin\\../lib/gcc/arm-none-eabi/4.7.3/include/stdint-gcc.h"
 149              		.file 3 "./lib/CMSIS/Include/core_cm3.h"
 150              		.file 4 "./inc/systick.h"
 151              		.file 5 "./lib/STM32_USB-FS-Device_Driver/inc/usb_init.h"
 152              		.file 6 "./lib/STM32_USB-FS-Device_Driver/inc/usb_mem.h"
 153              		.file 7 "./lib/STM32_USB-FS-Device_Driver/inc/usb_regs.h"