   1              		.syntax unified
   2              		.cpu cortex-m3
   3              		.fpu softvfp
   4              		.eabi_attribute 20, 1
   5              		.eabi_attribute 21, 1
   6              		.eabi_attribute 23, 3
   7              		.eabi_attribute 24, 1
   8              		.eabi_attribute 25, 1
   9              		.eabi_attribute 26, 1
  10              		.eabi_attribute 30, 4
  11              		.eabi_attribute 34, 0
  12              		.eabi_attribute 18, 4
  13              		.thumb
  14              		.file	"usb_regs.c"
  15              		.text
  16              	.Ltext0:
  17              		.cfi_sections	.debug_frame
  18              		.section	.text.SetCNTR,"ax",%progbits
  19              		.align	1
  20              		.global	SetCNTR
  21              		.thumb
  22              		.thumb_func
  24              	SetCNTR:
  25              	.LFB57:
  26              		.file 1 "lib/STM32_USB-FS-Device_Driver/src/usb_regs.c"
   1:lib/STM32_USB-FS-Device_Driver/src/usb_regs.c **** /**
   2:lib/STM32_USB-FS-Device_Driver/src/usb_regs.c ****   ******************************************************************************
   3:lib/STM32_USB-FS-Device_Driver/src/usb_regs.c ****   * @file    usb_regs.c
   4:lib/STM32_USB-FS-Device_Driver/src/usb_regs.c ****   * @author  MCD Application Team
   5:lib/STM32_USB-FS-Device_Driver/src/usb_regs.c ****   * @version V4.0.0
   6:lib/STM32_USB-FS-Device_Driver/src/usb_regs.c ****   * @date    28-August-2012
   7:lib/STM32_USB-FS-Device_Driver/src/usb_regs.c ****   * @brief   Interface functions to USB cell registers
   8:lib/STM32_USB-FS-Device_Driver/src/usb_regs.c ****   ******************************************************************************
   9:lib/STM32_USB-FS-Device_Driver/src/usb_regs.c ****   * @attention
  10:lib/STM32_USB-FS-Device_Driver/src/usb_regs.c ****   *
  11:lib/STM32_USB-FS-Device_Driver/src/usb_regs.c ****   * <h2><center>&copy; COPYRIGHT 2012 STMicroelectronics</center></h2>
  12:lib/STM32_USB-FS-Device_Driver/src/usb_regs.c ****   *
  13:lib/STM32_USB-FS-Device_Driver/src/usb_regs.c ****   * Licensed under MCD-ST Liberty SW License Agreement V2, (the "License");
  14:lib/STM32_USB-FS-Device_Driver/src/usb_regs.c ****   * You may not use this file except in compliance with the License.
  15:lib/STM32_USB-FS-Device_Driver/src/usb_regs.c ****   * You may obtain a copy of the License at:
  16:lib/STM32_USB-FS-Device_Driver/src/usb_regs.c ****   *
  17:lib/STM32_USB-FS-Device_Driver/src/usb_regs.c ****   *        http://www.st.com/software_license_agreement_liberty_v2
  18:lib/STM32_USB-FS-Device_Driver/src/usb_regs.c ****   *
  19:lib/STM32_USB-FS-Device_Driver/src/usb_regs.c ****   * Unless required by applicable law or agreed to in writing, software 
  20:lib/STM32_USB-FS-Device_Driver/src/usb_regs.c ****   * distributed under the License is distributed on an "AS IS" BASIS, 
  21:lib/STM32_USB-FS-Device_Driver/src/usb_regs.c ****   * WITHOUT WARRANTIES OR CONDITIONS OF ANY KIND, either express or implied.
  22:lib/STM32_USB-FS-Device_Driver/src/usb_regs.c ****   * See the License for the specific language governing permissions and
  23:lib/STM32_USB-FS-Device_Driver/src/usb_regs.c ****   * limitations under the License.
  24:lib/STM32_USB-FS-Device_Driver/src/usb_regs.c ****   *
  25:lib/STM32_USB-FS-Device_Driver/src/usb_regs.c ****   ******************************************************************************
  26:lib/STM32_USB-FS-Device_Driver/src/usb_regs.c ****   */
  27:lib/STM32_USB-FS-Device_Driver/src/usb_regs.c **** 
  28:lib/STM32_USB-FS-Device_Driver/src/usb_regs.c **** /* Includes ------------------------------------------------------------------*/
  29:lib/STM32_USB-FS-Device_Driver/src/usb_regs.c **** #include "usb_lib.h"
  30:lib/STM32_USB-FS-Device_Driver/src/usb_regs.c **** 
  31:lib/STM32_USB-FS-Device_Driver/src/usb_regs.c **** /* Private typedef -----------------------------------------------------------*/
  32:lib/STM32_USB-FS-Device_Driver/src/usb_regs.c **** /* Private define ------------------------------------------------------------*/
  33:lib/STM32_USB-FS-Device_Driver/src/usb_regs.c **** /* Private macro -------------------------------------------------------------*/
  34:lib/STM32_USB-FS-Device_Driver/src/usb_regs.c **** /* Private variables ---------------------------------------------------------*/
  35:lib/STM32_USB-FS-Device_Driver/src/usb_regs.c **** /* Extern variables ----------------------------------------------------------*/
  36:lib/STM32_USB-FS-Device_Driver/src/usb_regs.c **** /* Private function prototypes -----------------------------------------------*/
  37:lib/STM32_USB-FS-Device_Driver/src/usb_regs.c **** /* Private functions ---------------------------------------------------------*/
  38:lib/STM32_USB-FS-Device_Driver/src/usb_regs.c **** 
  39:lib/STM32_USB-FS-Device_Driver/src/usb_regs.c **** /*******************************************************************************
  40:lib/STM32_USB-FS-Device_Driver/src/usb_regs.c **** * Function Name  : SetCNTR.
  41:lib/STM32_USB-FS-Device_Driver/src/usb_regs.c **** * Description    : Set the CNTR register value.
  42:lib/STM32_USB-FS-Device_Driver/src/usb_regs.c **** * Input          : wRegValue: new register value.
  43:lib/STM32_USB-FS-Device_Driver/src/usb_regs.c **** * Output         : None.
  44:lib/STM32_USB-FS-Device_Driver/src/usb_regs.c **** * Return         : None.
  45:lib/STM32_USB-FS-Device_Driver/src/usb_regs.c **** *******************************************************************************/
  46:lib/STM32_USB-FS-Device_Driver/src/usb_regs.c **** void SetCNTR(uint16_t wRegValue)
  47:lib/STM32_USB-FS-Device_Driver/src/usb_regs.c **** {
  27              		.loc 1 47 0
  28              		.cfi_startproc
  29              		@ args = 0, pretend = 0, frame = 0
  30              		@ frame_needed = 0, uses_anonymous_args = 0
  31              		@ link register save eliminated.
  32              	.LVL0:
  48:lib/STM32_USB-FS-Device_Driver/src/usb_regs.c ****   _SetCNTR(wRegValue);
  33              		.loc 1 48 0
  34 0000 014B     		ldr	r3, .L2
  35 0002 1860     		str	r0, [r3, #0]
  36 0004 7047     		bx	lr
  37              	.L3:
  38 0006 00BF     		.align	2
  39              	.L2:
  40 0008 405C0040 		.word	1073765440
  41              		.cfi_endproc
  42              	.LFE57:
  44              		.section	.text.GetCNTR,"ax",%progbits
  45              		.align	1
  46              		.global	GetCNTR
  47              		.thumb
  48              		.thumb_func
  50              	GetCNTR:
  51              	.LFB58:
  49:lib/STM32_USB-FS-Device_Driver/src/usb_regs.c **** }
  50:lib/STM32_USB-FS-Device_Driver/src/usb_regs.c **** 
  51:lib/STM32_USB-FS-Device_Driver/src/usb_regs.c **** /*******************************************************************************
  52:lib/STM32_USB-FS-Device_Driver/src/usb_regs.c **** * Function Name  : GetCNTR.
  53:lib/STM32_USB-FS-Device_Driver/src/usb_regs.c **** * Description    : returns the CNTR register value.
  54:lib/STM32_USB-FS-Device_Driver/src/usb_regs.c **** * Input          : None.
  55:lib/STM32_USB-FS-Device_Driver/src/usb_regs.c **** * Output         : None.
  56:lib/STM32_USB-FS-Device_Driver/src/usb_regs.c **** * Return         : CNTR register Value.
  57:lib/STM32_USB-FS-Device_Driver/src/usb_regs.c **** *******************************************************************************/
  58:lib/STM32_USB-FS-Device_Driver/src/usb_regs.c **** uint16_t GetCNTR(void)
  59:lib/STM32_USB-FS-Device_Driver/src/usb_regs.c **** {
  52              		.loc 1 59 0
  53              		.cfi_startproc
  54              		@ args = 0, pretend = 0, frame = 0
  55              		@ frame_needed = 0, uses_anonymous_args = 0
  56              		@ link register save eliminated.
  60:lib/STM32_USB-FS-Device_Driver/src/usb_regs.c ****   return(_GetCNTR());
  57              		.loc 1 60 0
  58 0000 014B     		ldr	r3, .L5
  59 0002 1868     		ldr	r0, [r3, #0]
  61:lib/STM32_USB-FS-Device_Driver/src/usb_regs.c **** }
  60              		.loc 1 61 0
  61 0004 80B2     		uxth	r0, r0
  62 0006 7047     		bx	lr
  63              	.L6:
  64              		.align	2
  65              	.L5:
  66 0008 405C0040 		.word	1073765440
  67              		.cfi_endproc
  68              	.LFE58:
  70              		.section	.text.SetISTR,"ax",%progbits
  71              		.align	1
  72              		.global	SetISTR
  73              		.thumb
  74              		.thumb_func
  76              	SetISTR:
  77              	.LFB59:
  62:lib/STM32_USB-FS-Device_Driver/src/usb_regs.c **** 
  63:lib/STM32_USB-FS-Device_Driver/src/usb_regs.c **** /*******************************************************************************
  64:lib/STM32_USB-FS-Device_Driver/src/usb_regs.c **** * Function Name  : SetISTR.
  65:lib/STM32_USB-FS-Device_Driver/src/usb_regs.c **** * Description    : Set the ISTR register value.
  66:lib/STM32_USB-FS-Device_Driver/src/usb_regs.c **** * Input          : wRegValue: new register value.
  67:lib/STM32_USB-FS-Device_Driver/src/usb_regs.c **** * Output         : None.
  68:lib/STM32_USB-FS-Device_Driver/src/usb_regs.c **** * Return         : None.
  69:lib/STM32_USB-FS-Device_Driver/src/usb_regs.c **** *******************************************************************************/
  70:lib/STM32_USB-FS-Device_Driver/src/usb_regs.c **** void SetISTR(uint16_t wRegValue)
  71:lib/STM32_USB-FS-Device_Driver/src/usb_regs.c **** {
  78              		.loc 1 71 0
  79              		.cfi_startproc
  80              		@ args = 0, pretend = 0, frame = 0
  81              		@ frame_needed = 0, uses_anonymous_args = 0
  82              		@ link register save eliminated.
  83              	.LVL1:
  72:lib/STM32_USB-FS-Device_Driver/src/usb_regs.c ****   _SetISTR(wRegValue);
  84              		.loc 1 72 0
  85 0000 014B     		ldr	r3, .L8
  86 0002 1860     		str	r0, [r3, #0]
  87 0004 7047     		bx	lr
  88              	.L9:
  89 0006 00BF     		.align	2
  90              	.L8:
  91 0008 445C0040 		.word	1073765444
  92              		.cfi_endproc
  93              	.LFE59:
  95              		.section	.text.GetISTR,"ax",%progbits
  96              		.align	1
  97              		.global	GetISTR
  98              		.thumb
  99              		.thumb_func
 101              	GetISTR:
 102              	.LFB60:
  73:lib/STM32_USB-FS-Device_Driver/src/usb_regs.c **** }
  74:lib/STM32_USB-FS-Device_Driver/src/usb_regs.c **** 
  75:lib/STM32_USB-FS-Device_Driver/src/usb_regs.c **** /*******************************************************************************
  76:lib/STM32_USB-FS-Device_Driver/src/usb_regs.c **** * Function Name  : GetISTR
  77:lib/STM32_USB-FS-Device_Driver/src/usb_regs.c **** * Description    : Returns the ISTR register value.
  78:lib/STM32_USB-FS-Device_Driver/src/usb_regs.c **** * Input          : None.
  79:lib/STM32_USB-FS-Device_Driver/src/usb_regs.c **** * Output         : None.
  80:lib/STM32_USB-FS-Device_Driver/src/usb_regs.c **** * Return         : ISTR register Value
  81:lib/STM32_USB-FS-Device_Driver/src/usb_regs.c **** *******************************************************************************/
  82:lib/STM32_USB-FS-Device_Driver/src/usb_regs.c **** uint16_t GetISTR(void)
  83:lib/STM32_USB-FS-Device_Driver/src/usb_regs.c **** {
 103              		.loc 1 83 0
 104              		.cfi_startproc
 105              		@ args = 0, pretend = 0, frame = 0
 106              		@ frame_needed = 0, uses_anonymous_args = 0
 107              		@ link register save eliminated.
  84:lib/STM32_USB-FS-Device_Driver/src/usb_regs.c ****   return(_GetISTR());
 108              		.loc 1 84 0
 109 0000 014B     		ldr	r3, .L11
 110 0002 1868     		ldr	r0, [r3, #0]
  85:lib/STM32_USB-FS-Device_Driver/src/usb_regs.c **** }
 111              		.loc 1 85 0
 112 0004 80B2     		uxth	r0, r0
 113 0006 7047     		bx	lr
 114              	.L12:
 115              		.align	2
 116              	.L11:
 117 0008 445C0040 		.word	1073765444
 118              		.cfi_endproc
 119              	.LFE60:
 121              		.section	.text.GetFNR,"ax",%progbits
 122              		.align	1
 123              		.global	GetFNR
 124              		.thumb
 125              		.thumb_func
 127              	GetFNR:
 128              	.LFB61:
  86:lib/STM32_USB-FS-Device_Driver/src/usb_regs.c **** 
  87:lib/STM32_USB-FS-Device_Driver/src/usb_regs.c **** /*******************************************************************************
  88:lib/STM32_USB-FS-Device_Driver/src/usb_regs.c **** * Function Name  : GetFNR
  89:lib/STM32_USB-FS-Device_Driver/src/usb_regs.c **** * Description    : Returns the FNR register value.
  90:lib/STM32_USB-FS-Device_Driver/src/usb_regs.c **** * Input          : None.
  91:lib/STM32_USB-FS-Device_Driver/src/usb_regs.c **** * Output         : None.
  92:lib/STM32_USB-FS-Device_Driver/src/usb_regs.c **** * Return         : FNR register Value
  93:lib/STM32_USB-FS-Device_Driver/src/usb_regs.c **** *******************************************************************************/
  94:lib/STM32_USB-FS-Device_Driver/src/usb_regs.c **** uint16_t GetFNR(void)
  95:lib/STM32_USB-FS-Device_Driver/src/usb_regs.c **** {
 129              		.loc 1 95 0
 130              		.cfi_startproc
 131              		@ args = 0, pretend = 0, frame = 0
 132              		@ frame_needed = 0, uses_anonymous_args = 0
 133              		@ link register save eliminated.
  96:lib/STM32_USB-FS-Device_Driver/src/usb_regs.c ****   return(_GetFNR());
 134              		.loc 1 96 0
 135 0000 014B     		ldr	r3, .L14
 136 0002 1868     		ldr	r0, [r3, #0]
  97:lib/STM32_USB-FS-Device_Driver/src/usb_regs.c **** }
 137              		.loc 1 97 0
 138 0004 80B2     		uxth	r0, r0
 139 0006 7047     		bx	lr
 140              	.L15:
 141              		.align	2
 142              	.L14:
 143 0008 485C0040 		.word	1073765448
 144              		.cfi_endproc
 145              	.LFE61:
 147              		.section	.text.SetDADDR,"ax",%progbits
 148              		.align	1
 149              		.global	SetDADDR
 150              		.thumb
 151              		.thumb_func
 153              	SetDADDR:
 154              	.LFB62:
  98:lib/STM32_USB-FS-Device_Driver/src/usb_regs.c **** 
  99:lib/STM32_USB-FS-Device_Driver/src/usb_regs.c **** /*******************************************************************************
 100:lib/STM32_USB-FS-Device_Driver/src/usb_regs.c **** * Function Name  : SetDADDR
 101:lib/STM32_USB-FS-Device_Driver/src/usb_regs.c **** * Description    : Set the DADDR register value.
 102:lib/STM32_USB-FS-Device_Driver/src/usb_regs.c **** * Input          : wRegValue: new register value.
 103:lib/STM32_USB-FS-Device_Driver/src/usb_regs.c **** * Output         : None.
 104:lib/STM32_USB-FS-Device_Driver/src/usb_regs.c **** * Return         : None.
 105:lib/STM32_USB-FS-Device_Driver/src/usb_regs.c **** *******************************************************************************/
 106:lib/STM32_USB-FS-Device_Driver/src/usb_regs.c **** void SetDADDR(uint16_t wRegValue)
 107:lib/STM32_USB-FS-Device_Driver/src/usb_regs.c **** {
 155              		.loc 1 107 0
 156              		.cfi_startproc
 157              		@ args = 0, pretend = 0, frame = 0
 158              		@ frame_needed = 0, uses_anonymous_args = 0
 159              		@ link register save eliminated.
 160              	.LVL2:
 108:lib/STM32_USB-FS-Device_Driver/src/usb_regs.c ****   _SetDADDR(wRegValue);
 161              		.loc 1 108 0
 162 0000 014B     		ldr	r3, .L17
 163 0002 1860     		str	r0, [r3, #0]
 164 0004 7047     		bx	lr
 165              	.L18:
 166 0006 00BF     		.align	2
 167              	.L17:
 168 0008 4C5C0040 		.word	1073765452
 169              		.cfi_endproc
 170              	.LFE62:
 172              		.section	.text.GetDADDR,"ax",%progbits
 173              		.align	1
 174              		.global	GetDADDR
 175              		.thumb
 176              		.thumb_func
 178              	GetDADDR:
 179              	.LFB63:
 109:lib/STM32_USB-FS-Device_Driver/src/usb_regs.c **** }
 110:lib/STM32_USB-FS-Device_Driver/src/usb_regs.c **** 
 111:lib/STM32_USB-FS-Device_Driver/src/usb_regs.c **** /*******************************************************************************
 112:lib/STM32_USB-FS-Device_Driver/src/usb_regs.c **** * Function Name  : GetDADDR
 113:lib/STM32_USB-FS-Device_Driver/src/usb_regs.c **** * Description    : Returns the DADDR register value.
 114:lib/STM32_USB-FS-Device_Driver/src/usb_regs.c **** * Input          : None.
 115:lib/STM32_USB-FS-Device_Driver/src/usb_regs.c **** * Output         : None.
 116:lib/STM32_USB-FS-Device_Driver/src/usb_regs.c **** * Return         : DADDR register Value
 117:lib/STM32_USB-FS-Device_Driver/src/usb_regs.c **** *******************************************************************************/
 118:lib/STM32_USB-FS-Device_Driver/src/usb_regs.c **** uint16_t GetDADDR(void)
 119:lib/STM32_USB-FS-Device_Driver/src/usb_regs.c **** {
 180              		.loc 1 119 0
 181              		.cfi_startproc
 182              		@ args = 0, pretend = 0, frame = 0
 183              		@ frame_needed = 0, uses_anonymous_args = 0
 184              		@ link register save eliminated.
 120:lib/STM32_USB-FS-Device_Driver/src/usb_regs.c ****   return(_GetDADDR());
 185              		.loc 1 120 0
 186 0000 014B     		ldr	r3, .L20
 187 0002 1868     		ldr	r0, [r3, #0]
 121:lib/STM32_USB-FS-Device_Driver/src/usb_regs.c **** }
 188              		.loc 1 121 0
 189 0004 80B2     		uxth	r0, r0
 190 0006 7047     		bx	lr
 191              	.L21:
 192              		.align	2
 193              	.L20:
 194 0008 4C5C0040 		.word	1073765452
 195              		.cfi_endproc
 196              	.LFE63:
 198              		.section	.text.SetBTABLE,"ax",%progbits
 199              		.align	1
 200              		.global	SetBTABLE
 201              		.thumb
 202              		.thumb_func
 204              	SetBTABLE:
 205              	.LFB64:
 122:lib/STM32_USB-FS-Device_Driver/src/usb_regs.c **** 
 123:lib/STM32_USB-FS-Device_Driver/src/usb_regs.c **** /*******************************************************************************
 124:lib/STM32_USB-FS-Device_Driver/src/usb_regs.c **** * Function Name  : SetBTABLE
 125:lib/STM32_USB-FS-Device_Driver/src/usb_regs.c **** * Description    : Set the BTABLE.
 126:lib/STM32_USB-FS-Device_Driver/src/usb_regs.c **** * Input          : wRegValue: New register value.
 127:lib/STM32_USB-FS-Device_Driver/src/usb_regs.c **** * Output         : None.
 128:lib/STM32_USB-FS-Device_Driver/src/usb_regs.c **** * Return         : None.
 129:lib/STM32_USB-FS-Device_Driver/src/usb_regs.c **** *******************************************************************************/
 130:lib/STM32_USB-FS-Device_Driver/src/usb_regs.c **** void SetBTABLE(uint16_t wRegValue)
 131:lib/STM32_USB-FS-Device_Driver/src/usb_regs.c **** {
 206              		.loc 1 131 0
 207              		.cfi_startproc
 208              		@ args = 0, pretend = 0, frame = 0
 209              		@ frame_needed = 0, uses_anonymous_args = 0
 210              		@ link register save eliminated.
 211              	.LVL3:
 132:lib/STM32_USB-FS-Device_Driver/src/usb_regs.c ****   _SetBTABLE(wRegValue);
 212              		.loc 1 132 0
 213 0000 4FF6F873 		movw	r3, #65528
 214 0004 0340     		ands	r3, r3, r0
 215 0006 014A     		ldr	r2, .L23
 216 0008 1360     		str	r3, [r2, #0]
 217 000a 7047     		bx	lr
 218              	.L24:
 219              		.align	2
 220              	.L23:
 221 000c 505C0040 		.word	1073765456
 222              		.cfi_endproc
 223              	.LFE64:
 225              		.section	.text.GetBTABLE,"ax",%progbits
 226              		.align	1
 227              		.global	GetBTABLE
 228              		.thumb
 229              		.thumb_func
 231              	GetBTABLE:
 232              	.LFB65:
 133:lib/STM32_USB-FS-Device_Driver/src/usb_regs.c **** }
 134:lib/STM32_USB-FS-Device_Driver/src/usb_regs.c **** 
 135:lib/STM32_USB-FS-Device_Driver/src/usb_regs.c **** /*******************************************************************************
 136:lib/STM32_USB-FS-Device_Driver/src/usb_regs.c **** * Function Name  : GetBTABLE.
 137:lib/STM32_USB-FS-Device_Driver/src/usb_regs.c **** * Description    : Returns the BTABLE register value.
 138:lib/STM32_USB-FS-Device_Driver/src/usb_regs.c **** * Input          : None. 
 139:lib/STM32_USB-FS-Device_Driver/src/usb_regs.c **** * Output         : None.
 140:lib/STM32_USB-FS-Device_Driver/src/usb_regs.c **** * Return         : BTABLE address.
 141:lib/STM32_USB-FS-Device_Driver/src/usb_regs.c **** *******************************************************************************/
 142:lib/STM32_USB-FS-Device_Driver/src/usb_regs.c **** uint16_t GetBTABLE(void)
 143:lib/STM32_USB-FS-Device_Driver/src/usb_regs.c **** {
 233              		.loc 1 143 0
 234              		.cfi_startproc
 235              		@ args = 0, pretend = 0, frame = 0
 236              		@ frame_needed = 0, uses_anonymous_args = 0
 237              		@ link register save eliminated.
 144:lib/STM32_USB-FS-Device_Driver/src/usb_regs.c ****   return(_GetBTABLE());
 238              		.loc 1 144 0
 239 0000 014B     		ldr	r3, .L26
 240 0002 1868     		ldr	r0, [r3, #0]
 145:lib/STM32_USB-FS-Device_Driver/src/usb_regs.c **** }
 241              		.loc 1 145 0
 242 0004 80B2     		uxth	r0, r0
 243 0006 7047     		bx	lr
 244              	.L27:
 245              		.align	2
 246              	.L26:
 247 0008 505C0040 		.word	1073765456
 248              		.cfi_endproc
 249              	.LFE65:
 251              		.section	.text.SetENDPOINT,"ax",%progbits
 252              		.align	1
 253              		.global	SetENDPOINT
 254              		.thumb
 255              		.thumb_func
 257              	SetENDPOINT:
 258              	.LFB66:
 146:lib/STM32_USB-FS-Device_Driver/src/usb_regs.c **** 
 147:lib/STM32_USB-FS-Device_Driver/src/usb_regs.c **** /*******************************************************************************
 148:lib/STM32_USB-FS-Device_Driver/src/usb_regs.c **** * Function Name  : SetENDPOINT
 149:lib/STM32_USB-FS-Device_Driver/src/usb_regs.c **** * Description    : Set the Endpoint register value.
 150:lib/STM32_USB-FS-Device_Driver/src/usb_regs.c **** * Input          : bEpNum: Endpoint Number. 
 151:lib/STM32_USB-FS-Device_Driver/src/usb_regs.c **** *                  wRegValue.
 152:lib/STM32_USB-FS-Device_Driver/src/usb_regs.c **** * Output         : None.
 153:lib/STM32_USB-FS-Device_Driver/src/usb_regs.c **** * Return         : None.
 154:lib/STM32_USB-FS-Device_Driver/src/usb_regs.c **** *******************************************************************************/
 155:lib/STM32_USB-FS-Device_Driver/src/usb_regs.c **** void SetENDPOINT(uint8_t bEpNum, uint16_t wRegValue)
 156:lib/STM32_USB-FS-Device_Driver/src/usb_regs.c **** {
 259              		.loc 1 156 0
 260              		.cfi_startproc
 261              		@ args = 0, pretend = 0, frame = 0
 262              		@ frame_needed = 0, uses_anonymous_args = 0
 263              		@ link register save eliminated.
 264              	.LVL4:
 157:lib/STM32_USB-FS-Device_Driver/src/usb_regs.c ****   _SetENDPOINT(bEpNum, wRegValue);
 265              		.loc 1 157 0
 266 0000 8000     		lsls	r0, r0, #2
 267              	.LVL5:
 268 0002 00F18043 		add	r3, r0, #1073741824
 269 0006 03F5B842 		add	r2, r3, #23552
 270 000a 1160     		str	r1, [r2, #0]
 271 000c 7047     		bx	lr
 272              		.cfi_endproc
 273              	.LFE66:
 275              		.section	.text.GetENDPOINT,"ax",%progbits
 276              		.align	1
 277              		.global	GetENDPOINT
 278              		.thumb
 279              		.thumb_func
 281              	GetENDPOINT:
 282              	.LFB67:
 158:lib/STM32_USB-FS-Device_Driver/src/usb_regs.c **** }
 159:lib/STM32_USB-FS-Device_Driver/src/usb_regs.c **** 
 160:lib/STM32_USB-FS-Device_Driver/src/usb_regs.c **** /*******************************************************************************
 161:lib/STM32_USB-FS-Device_Driver/src/usb_regs.c **** * Function Name  : GetENDPOINT
 162:lib/STM32_USB-FS-Device_Driver/src/usb_regs.c **** * Description    : Return the Endpoint register value.
 163:lib/STM32_USB-FS-Device_Driver/src/usb_regs.c **** * Input          : bEpNum: Endpoint Number. 
 164:lib/STM32_USB-FS-Device_Driver/src/usb_regs.c **** * Output         : None.
 165:lib/STM32_USB-FS-Device_Driver/src/usb_regs.c **** * Return         : Endpoint register value.
 166:lib/STM32_USB-FS-Device_Driver/src/usb_regs.c **** *******************************************************************************/
 167:lib/STM32_USB-FS-Device_Driver/src/usb_regs.c **** uint16_t GetENDPOINT(uint8_t bEpNum)
 168:lib/STM32_USB-FS-Device_Driver/src/usb_regs.c **** {
 283              		.loc 1 168 0
 284              		.cfi_startproc
 285              		@ args = 0, pretend = 0, frame = 0
 286              		@ frame_needed = 0, uses_anonymous_args = 0
 287              		@ link register save eliminated.
 288              	.LVL6:
 169:lib/STM32_USB-FS-Device_Driver/src/usb_regs.c ****   return(_GetENDPOINT(bEpNum));
 289              		.loc 1 169 0
 290 0000 8000     		lsls	r0, r0, #2
 291              	.LVL7:
 292 0002 00F18043 		add	r3, r0, #1073741824
 293 0006 03F5B841 		add	r1, r3, #23552
 294 000a 0A68     		ldr	r2, [r1, #0]
 170:lib/STM32_USB-FS-Device_Driver/src/usb_regs.c **** }
 295              		.loc 1 170 0
 296 000c 90B2     		uxth	r0, r2
 297 000e 7047     		bx	lr
 298              		.cfi_endproc
 299              	.LFE67:
 301              		.section	.text.SetEPType,"ax",%progbits
 302              		.align	1
 303              		.global	SetEPType
 304              		.thumb
 305              		.thumb_func
 307              	SetEPType:
 308              	.LFB68:
 171:lib/STM32_USB-FS-Device_Driver/src/usb_regs.c **** 
 172:lib/STM32_USB-FS-Device_Driver/src/usb_regs.c **** /*******************************************************************************
 173:lib/STM32_USB-FS-Device_Driver/src/usb_regs.c **** * Function Name  : SetEPType
 174:lib/STM32_USB-FS-Device_Driver/src/usb_regs.c **** * Description    : sets the type in the endpoint register.
 175:lib/STM32_USB-FS-Device_Driver/src/usb_regs.c **** * Input          : bEpNum: Endpoint Number. 
 176:lib/STM32_USB-FS-Device_Driver/src/usb_regs.c **** *                  wType: type definition.
 177:lib/STM32_USB-FS-Device_Driver/src/usb_regs.c **** * Output         : None.
 178:lib/STM32_USB-FS-Device_Driver/src/usb_regs.c **** * Return         : None.
 179:lib/STM32_USB-FS-Device_Driver/src/usb_regs.c **** *******************************************************************************/
 180:lib/STM32_USB-FS-Device_Driver/src/usb_regs.c **** void SetEPType(uint8_t bEpNum, uint16_t wType)
 181:lib/STM32_USB-FS-Device_Driver/src/usb_regs.c **** {
 309              		.loc 1 181 0
 310              		.cfi_startproc
 311              		@ args = 0, pretend = 0, frame = 0
 312              		@ frame_needed = 0, uses_anonymous_args = 0
 313              		@ link register save eliminated.
 314              	.LVL8:
 182:lib/STM32_USB-FS-Device_Driver/src/usb_regs.c ****   _SetEPType(bEpNum, wType);
 315              		.loc 1 182 0
 316 0000 8000     		lsls	r0, r0, #2
 317              	.LVL9:
 318 0002 00F18042 		add	r2, r0, #1073741824
 319 0006 02F5B842 		add	r2, r2, #23552
 320 000a 1068     		ldr	r0, [r2, #0]
 321 000c 48F68F13 		movw	r3, #35215
 322 0010 0340     		ands	r3, r3, r0
 323 0012 1943     		orrs	r1, r1, r3
 324              	.LVL10:
 325 0014 1160     		str	r1, [r2, #0]
 326 0016 7047     		bx	lr
 327              		.cfi_endproc
 328              	.LFE68:
 330              		.section	.text.GetEPType,"ax",%progbits
 331              		.align	1
 332              		.global	GetEPType
 333              		.thumb
 334              		.thumb_func
 336              	GetEPType:
 337              	.LFB69:
 183:lib/STM32_USB-FS-Device_Driver/src/usb_regs.c **** }
 184:lib/STM32_USB-FS-Device_Driver/src/usb_regs.c **** 
 185:lib/STM32_USB-FS-Device_Driver/src/usb_regs.c **** /*******************************************************************************
 186:lib/STM32_USB-FS-Device_Driver/src/usb_regs.c **** * Function Name  : GetEPType
 187:lib/STM32_USB-FS-Device_Driver/src/usb_regs.c **** * Description    : Returns the endpoint type.
 188:lib/STM32_USB-FS-Device_Driver/src/usb_regs.c **** * Input          : bEpNum: Endpoint Number. 
 189:lib/STM32_USB-FS-Device_Driver/src/usb_regs.c **** * Output         : None.
 190:lib/STM32_USB-FS-Device_Driver/src/usb_regs.c **** * Return         : Endpoint Type
 191:lib/STM32_USB-FS-Device_Driver/src/usb_regs.c **** *******************************************************************************/
 192:lib/STM32_USB-FS-Device_Driver/src/usb_regs.c **** uint16_t GetEPType(uint8_t bEpNum)
 193:lib/STM32_USB-FS-Device_Driver/src/usb_regs.c **** {
 338              		.loc 1 193 0
 339              		.cfi_startproc
 340              		@ args = 0, pretend = 0, frame = 0
 341              		@ frame_needed = 0, uses_anonymous_args = 0
 342              		@ link register save eliminated.
 343              	.LVL11:
 194:lib/STM32_USB-FS-Device_Driver/src/usb_regs.c ****   return(_GetEPType(bEpNum));
 344              		.loc 1 194 0
 345 0000 8000     		lsls	r0, r0, #2
 346              	.LVL12:
 347 0002 00F18043 		add	r3, r0, #1073741824
 348 0006 03F5B841 		add	r1, r3, #23552
 349 000a 0A68     		ldr	r2, [r1, #0]
 195:lib/STM32_USB-FS-Device_Driver/src/usb_regs.c **** }
 350              		.loc 1 195 0
 351 000c 02F4C060 		and	r0, r2, #1536
 352 0010 7047     		bx	lr
 353              		.cfi_endproc
 354              	.LFE69:
 356              		.section	.text.SetEPTxStatus,"ax",%progbits
 357              		.align	1
 358              		.global	SetEPTxStatus
 359              		.thumb
 360              		.thumb_func
 362              	SetEPTxStatus:
 363              	.LFB70:
 196:lib/STM32_USB-FS-Device_Driver/src/usb_regs.c **** 
 197:lib/STM32_USB-FS-Device_Driver/src/usb_regs.c **** /*******************************************************************************
 198:lib/STM32_USB-FS-Device_Driver/src/usb_regs.c **** * Function Name  : SetEPTxStatus
 199:lib/STM32_USB-FS-Device_Driver/src/usb_regs.c **** * Description    : Set the status of Tx endpoint.
 200:lib/STM32_USB-FS-Device_Driver/src/usb_regs.c **** * Input          : bEpNum: Endpoint Number. 
 201:lib/STM32_USB-FS-Device_Driver/src/usb_regs.c **** *                  wState: new state.
 202:lib/STM32_USB-FS-Device_Driver/src/usb_regs.c **** * Output         : None.
 203:lib/STM32_USB-FS-Device_Driver/src/usb_regs.c **** * Return         : None.
 204:lib/STM32_USB-FS-Device_Driver/src/usb_regs.c **** *******************************************************************************/
 205:lib/STM32_USB-FS-Device_Driver/src/usb_regs.c **** void SetEPTxStatus(uint8_t bEpNum, uint16_t wState)
 206:lib/STM32_USB-FS-Device_Driver/src/usb_regs.c **** {
 364              		.loc 1 206 0
 365              		.cfi_startproc
 366              		@ args = 0, pretend = 0, frame = 0
 367              		@ frame_needed = 0, uses_anonymous_args = 0
 368              		@ link register save eliminated.
 369              	.LVL13:
 370              	.LBB4:
 207:lib/STM32_USB-FS-Device_Driver/src/usb_regs.c ****   _SetEPTxStatus(bEpNum, wState);
 371              		.loc 1 207 0
 372 0000 8000     		lsls	r0, r0, #2
 373              	.LVL14:
 374 0002 00F18042 		add	r2, r0, #1073741824
 375 0006 02F5B842 		add	r2, r2, #23552
 376 000a 1068     		ldr	r0, [r2, #0]
 377 000c 48F6BF73 		movw	r3, #36799
 378 0010 0340     		ands	r3, r3, r0
 379              	.LVL15:
 380 0012 01F01000 		and	r0, r1, #16
 381 0016 80B2     		uxth	r0, r0
 382 0018 08B9     		cbnz	r0, .L33
 383 001a 9BB2     		uxth	r3, r3
 384              	.LVL16:
 385 001c 01E0     		b	.L34
 386              	.LVL17:
 387              	.L33:
 388              		.loc 1 207 0 is_stmt 0 discriminator 1
 389 001e 83F01003 		eor	r3, r3, #16
 390              	.LVL18:
 391              	.L34:
 392              		.loc 1 207 0 discriminator 2
 393 0022 01F02001 		and	r1, r1, #32
 394              	.LVL19:
 395 0026 88B2     		uxth	r0, r1
 396 0028 08B1     		cbz	r0, .L35
 397              		.loc 1 207 0 discriminator 3
 398 002a 83F02003 		eor	r3, r3, #32
 399              	.LVL20:
 400              	.L35:
 401              		.loc 1 207 0 discriminator 4
 402 002e 43F40041 		orr	r1, r3, #32768
 403 0032 41F08000 		orr	r0, r1, #128
 404 0036 1060     		str	r0, [r2, #0]
 405 0038 7047     		bx	lr
 406              	.LBE4:
 407              		.cfi_endproc
 408              	.LFE70:
 410              		.section	.text.SetEPRxStatus,"ax",%progbits
 411              		.align	1
 412              		.global	SetEPRxStatus
 413              		.thumb
 414              		.thumb_func
 416              	SetEPRxStatus:
 417              	.LFB71:
 208:lib/STM32_USB-FS-Device_Driver/src/usb_regs.c **** }
 209:lib/STM32_USB-FS-Device_Driver/src/usb_regs.c **** 
 210:lib/STM32_USB-FS-Device_Driver/src/usb_regs.c **** /*******************************************************************************
 211:lib/STM32_USB-FS-Device_Driver/src/usb_regs.c **** * Function Name  : SetEPRxStatus
 212:lib/STM32_USB-FS-Device_Driver/src/usb_regs.c **** * Description    : Set the status of Rx endpoint.
 213:lib/STM32_USB-FS-Device_Driver/src/usb_regs.c **** * Input          : bEpNum: Endpoint Number. 
 214:lib/STM32_USB-FS-Device_Driver/src/usb_regs.c **** *                  wState: new state.
 215:lib/STM32_USB-FS-Device_Driver/src/usb_regs.c **** * Output         : None.
 216:lib/STM32_USB-FS-Device_Driver/src/usb_regs.c **** * Return         : None.
 217:lib/STM32_USB-FS-Device_Driver/src/usb_regs.c **** *******************************************************************************/
 218:lib/STM32_USB-FS-Device_Driver/src/usb_regs.c **** void SetEPRxStatus(uint8_t bEpNum, uint16_t wState)
 219:lib/STM32_USB-FS-Device_Driver/src/usb_regs.c **** {
 418              		.loc 1 219 0 is_stmt 1
 419              		.cfi_startproc
 420              		@ args = 0, pretend = 0, frame = 0
 421              		@ frame_needed = 0, uses_anonymous_args = 0
 422              		@ link register save eliminated.
 423              	.LVL21:
 424              	.LBB5:
 220:lib/STM32_USB-FS-Device_Driver/src/usb_regs.c ****   _SetEPRxStatus(bEpNum, wState);
 425              		.loc 1 220 0
 426 0000 8000     		lsls	r0, r0, #2
 427              	.LVL22:
 428 0002 00F18042 		add	r2, r0, #1073741824
 429 0006 02F5B842 		add	r2, r2, #23552
 430 000a 1068     		ldr	r0, [r2, #0]
 431 000c 4BF68F73 		movw	r3, #49039
 432 0010 0340     		ands	r3, r3, r0
 433              	.LVL23:
 434 0012 01F48050 		and	r0, r1, #4096
 435 0016 80B2     		uxth	r0, r0
 436 0018 08B9     		cbnz	r0, .L41
 437 001a 9BB2     		uxth	r3, r3
 438              	.LVL24:
 439 001c 01E0     		b	.L42
 440              	.LVL25:
 441              	.L41:
 442              		.loc 1 220 0 is_stmt 0 discriminator 1
 443 001e 83F48053 		eor	r3, r3, #4096
 444              	.LVL26:
 445              	.L42:
 446              		.loc 1 220 0 discriminator 2
 447 0022 01F40051 		and	r1, r1, #8192
 448              	.LVL27:
 449 0026 88B2     		uxth	r0, r1
 450 0028 08B1     		cbz	r0, .L43
 451              		.loc 1 220 0 discriminator 3
 452 002a 83F40053 		eor	r3, r3, #8192
 453              	.LVL28:
 454              	.L43:
 455              		.loc 1 220 0 discriminator 4
 456 002e 43F40041 		orr	r1, r3, #32768
 457 0032 41F08000 		orr	r0, r1, #128
 458 0036 1060     		str	r0, [r2, #0]
 459 0038 7047     		bx	lr
 460              	.LBE5:
 461              		.cfi_endproc
 462              	.LFE71:
 464              		.section	.text.SetDouBleBuffEPStall,"ax",%progbits
 465              		.align	1
 466              		.global	SetDouBleBuffEPStall
 467              		.thumb
 468              		.thumb_func
 470              	SetDouBleBuffEPStall:
 471              	.LFB72:
 221:lib/STM32_USB-FS-Device_Driver/src/usb_regs.c **** }
 222:lib/STM32_USB-FS-Device_Driver/src/usb_regs.c **** 
 223:lib/STM32_USB-FS-Device_Driver/src/usb_regs.c **** /*******************************************************************************
 224:lib/STM32_USB-FS-Device_Driver/src/usb_regs.c **** * Function Name  : SetDouBleBuffEPStall
 225:lib/STM32_USB-FS-Device_Driver/src/usb_regs.c **** * Description    : sets the status for Double Buffer Endpoint to STALL
 226:lib/STM32_USB-FS-Device_Driver/src/usb_regs.c **** * Input          : bEpNum: Endpoint Number. 
 227:lib/STM32_USB-FS-Device_Driver/src/usb_regs.c **** *                  bDir: Endpoint direction.
 228:lib/STM32_USB-FS-Device_Driver/src/usb_regs.c **** * Output         : None.
 229:lib/STM32_USB-FS-Device_Driver/src/usb_regs.c **** * Return         : None.
 230:lib/STM32_USB-FS-Device_Driver/src/usb_regs.c **** *******************************************************************************/
 231:lib/STM32_USB-FS-Device_Driver/src/usb_regs.c **** void SetDouBleBuffEPStall(uint8_t bEpNum, uint8_t bDir)
 232:lib/STM32_USB-FS-Device_Driver/src/usb_regs.c **** {
 472              		.loc 1 232 0 is_stmt 1
 473              		.cfi_startproc
 474              		@ args = 0, pretend = 0, frame = 0
 475              		@ frame_needed = 0, uses_anonymous_args = 0
 476              		@ link register save eliminated.
 477              	.LVL29:
 478              	.LVL30:
 479              	.LBB6:
 480              	.LBB7:
 169:lib/STM32_USB-FS-Device_Driver/src/usb_regs.c ****   return(_GetENDPOINT(bEpNum));
 481              		.loc 1 169 0
 482 0000 8000     		lsls	r0, r0, #2
 483              	.LVL31:
 484 0002 00F18043 		add	r3, r0, #1073741824
 485 0006 03F5B843 		add	r3, r3, #23552
 486 000a 1868     		ldr	r0, [r3, #0]
 487              	.LBE7:
 488              	.LBE6:
 233:lib/STM32_USB-FS-Device_Driver/src/usb_regs.c ****   uint16_t Endpoint_DTOG_Status;
 234:lib/STM32_USB-FS-Device_Driver/src/usb_regs.c ****   Endpoint_DTOG_Status = GetENDPOINT(bEpNum);
 235:lib/STM32_USB-FS-Device_Driver/src/usb_regs.c ****   if (bDir == EP_DBUF_OUT)
 489              		.loc 1 235 0
 490 000c 0129     		cmp	r1, #1
 491 000e 02D1     		bne	.L48
 236:lib/STM32_USB-FS-Device_Driver/src/usb_regs.c ****   { /* OUT double buffered endpoint */
 237:lib/STM32_USB-FS-Device_Driver/src/usb_regs.c ****     _SetENDPOINT(bEpNum, Endpoint_DTOG_Status & ~EPRX_DTOG1);
 492              		.loc 1 237 0
 493 0010 4EF6FF72 		movw	r2, #61439
 494 0014 03E0     		b	.L50
 495              	.L48:
 238:lib/STM32_USB-FS-Device_Driver/src/usb_regs.c ****   }
 239:lib/STM32_USB-FS-Device_Driver/src/usb_regs.c ****   else if (bDir == EP_DBUF_IN)
 496              		.loc 1 239 0
 497 0016 0229     		cmp	r1, #2
 498 0018 03D1     		bne	.L47
 240:lib/STM32_USB-FS-Device_Driver/src/usb_regs.c ****   { /* IN double buffered endpoint */
 241:lib/STM32_USB-FS-Device_Driver/src/usb_regs.c ****     _SetENDPOINT(bEpNum, Endpoint_DTOG_Status & ~EPTX_DTOG1);
 499              		.loc 1 241 0
 500 001a 4FF6EF72 		movw	r2, #65519
 501              	.L50:
 502 001e 0240     		ands	r2, r2, r0
 503 0020 1A60     		str	r2, [r3, #0]
 504              	.L47:
 505 0022 7047     		bx	lr
 506              		.cfi_endproc
 507              	.LFE72:
 509              		.section	.text.GetEPTxStatus,"ax",%progbits
 510              		.align	1
 511              		.global	GetEPTxStatus
 512              		.thumb
 513              		.thumb_func
 515              	GetEPTxStatus:
 516              	.LFB73:
 242:lib/STM32_USB-FS-Device_Driver/src/usb_regs.c ****   }
 243:lib/STM32_USB-FS-Device_Driver/src/usb_regs.c **** }
 244:lib/STM32_USB-FS-Device_Driver/src/usb_regs.c **** 
 245:lib/STM32_USB-FS-Device_Driver/src/usb_regs.c **** /*******************************************************************************
 246:lib/STM32_USB-FS-Device_Driver/src/usb_regs.c **** * Function Name  : GetEPTxStatus
 247:lib/STM32_USB-FS-Device_Driver/src/usb_regs.c **** * Description    : Returns the endpoint Tx status.
 248:lib/STM32_USB-FS-Device_Driver/src/usb_regs.c **** * Input          : bEpNum: Endpoint Number. 
 249:lib/STM32_USB-FS-Device_Driver/src/usb_regs.c **** * Output         : None.
 250:lib/STM32_USB-FS-Device_Driver/src/usb_regs.c **** * Return         : Endpoint TX Status
 251:lib/STM32_USB-FS-Device_Driver/src/usb_regs.c **** *******************************************************************************/
 252:lib/STM32_USB-FS-Device_Driver/src/usb_regs.c **** uint16_t GetEPTxStatus(uint8_t bEpNum)
 253:lib/STM32_USB-FS-Device_Driver/src/usb_regs.c **** {
 517              		.loc 1 253 0
 518              		.cfi_startproc
 519              		@ args = 0, pretend = 0, frame = 0
 520              		@ frame_needed = 0, uses_anonymous_args = 0
 521              		@ link register save eliminated.
 522              	.LVL32:
 254:lib/STM32_USB-FS-Device_Driver/src/usb_regs.c ****   return(_GetEPTxStatus(bEpNum));
 523              		.loc 1 254 0
 524 0000 8000     		lsls	r0, r0, #2
 525              	.LVL33:
 526 0002 00F18043 		add	r3, r0, #1073741824
 527 0006 03F5B841 		add	r1, r3, #23552
 528 000a 0A68     		ldr	r2, [r1, #0]
 255:lib/STM32_USB-FS-Device_Driver/src/usb_regs.c **** }
 529              		.loc 1 255 0
 530 000c 02F03000 		and	r0, r2, #48
 531 0010 7047     		bx	lr
 532              		.cfi_endproc
 533              	.LFE73:
 535              		.section	.text.GetEPRxStatus,"ax",%progbits
 536              		.align	1
 537              		.global	GetEPRxStatus
 538              		.thumb
 539              		.thumb_func
 541              	GetEPRxStatus:
 542              	.LFB74:
 256:lib/STM32_USB-FS-Device_Driver/src/usb_regs.c **** 
 257:lib/STM32_USB-FS-Device_Driver/src/usb_regs.c **** /*******************************************************************************
 258:lib/STM32_USB-FS-Device_Driver/src/usb_regs.c **** * Function Name  : GetEPRxStatus
 259:lib/STM32_USB-FS-Device_Driver/src/usb_regs.c **** * Description    : Returns the endpoint Rx status.
 260:lib/STM32_USB-FS-Device_Driver/src/usb_regs.c **** * Input          : bEpNum: Endpoint Number. 
 261:lib/STM32_USB-FS-Device_Driver/src/usb_regs.c **** * Output         : None.
 262:lib/STM32_USB-FS-Device_Driver/src/usb_regs.c **** * Return         : Endpoint RX Status
 263:lib/STM32_USB-FS-Device_Driver/src/usb_regs.c **** *******************************************************************************/
 264:lib/STM32_USB-FS-Device_Driver/src/usb_regs.c **** uint16_t GetEPRxStatus(uint8_t bEpNum)
 265:lib/STM32_USB-FS-Device_Driver/src/usb_regs.c **** {
 543              		.loc 1 265 0
 544              		.cfi_startproc
 545              		@ args = 0, pretend = 0, frame = 0
 546              		@ frame_needed = 0, uses_anonymous_args = 0
 547              		@ link register save eliminated.
 548              	.LVL34:
 266:lib/STM32_USB-FS-Device_Driver/src/usb_regs.c ****   return(_GetEPRxStatus(bEpNum));
 549              		.loc 1 266 0
 550 0000 8000     		lsls	r0, r0, #2
 551              	.LVL35:
 552 0002 00F18043 		add	r3, r0, #1073741824
 553 0006 03F5B841 		add	r1, r3, #23552
 554 000a 0A68     		ldr	r2, [r1, #0]
 267:lib/STM32_USB-FS-Device_Driver/src/usb_regs.c **** }
 555              		.loc 1 267 0
 556 000c 02F44050 		and	r0, r2, #12288
 557 0010 7047     		bx	lr
 558              		.cfi_endproc
 559              	.LFE74:
 561              		.section	.text.SetEPTxValid,"ax",%progbits
 562              		.align	1
 563              		.global	SetEPTxValid
 564              		.thumb
 565              		.thumb_func
 567              	SetEPTxValid:
 568              	.LFB75:
 268:lib/STM32_USB-FS-Device_Driver/src/usb_regs.c **** 
 269:lib/STM32_USB-FS-Device_Driver/src/usb_regs.c **** /*******************************************************************************
 270:lib/STM32_USB-FS-Device_Driver/src/usb_regs.c **** * Function Name  : SetEPTxValid
 271:lib/STM32_USB-FS-Device_Driver/src/usb_regs.c **** * Description    : Valid the endpoint Tx Status.
 272:lib/STM32_USB-FS-Device_Driver/src/usb_regs.c **** * Input          : bEpNum: Endpoint Number.  
 273:lib/STM32_USB-FS-Device_Driver/src/usb_regs.c **** * Output         : None.
 274:lib/STM32_USB-FS-Device_Driver/src/usb_regs.c **** * Return         : None.
 275:lib/STM32_USB-FS-Device_Driver/src/usb_regs.c **** *******************************************************************************/
 276:lib/STM32_USB-FS-Device_Driver/src/usb_regs.c **** void SetEPTxValid(uint8_t bEpNum)
 277:lib/STM32_USB-FS-Device_Driver/src/usb_regs.c **** {
 569              		.loc 1 277 0
 570              		.cfi_startproc
 571              		@ args = 0, pretend = 0, frame = 0
 572              		@ frame_needed = 0, uses_anonymous_args = 0
 573              		@ link register save eliminated.
 574              	.LVL36:
 575              	.LBB8:
 278:lib/STM32_USB-FS-Device_Driver/src/usb_regs.c ****   _SetEPTxStatus(bEpNum, EP_TX_VALID);
 576              		.loc 1 278 0
 577 0000 8000     		lsls	r0, r0, #2
 578              	.LVL37:
 579 0002 00F18042 		add	r2, r0, #1073741824
 580 0006 02F5B840 		add	r0, r2, #23552
 581 000a 0168     		ldr	r1, [r0, #0]
 582              	.LVL38:
 583 000c 48F6BF73 		movw	r3, #36799
 584 0010 0B40     		ands	r3, r3, r1
 585 0012 83F03002 		eor	r2, r3, #48
 586 0016 42F40041 		orr	r1, r2, #32768
 587              	.LVL39:
 588 001a 41F08003 		orr	r3, r1, #128
 589 001e 0360     		str	r3, [r0, #0]
 590 0020 7047     		bx	lr
 591              	.LBE8:
 592              		.cfi_endproc
 593              	.LFE75:
 595              		.section	.text.SetEPRxValid,"ax",%progbits
 596              		.align	1
 597              		.global	SetEPRxValid
 598              		.thumb
 599              		.thumb_func
 601              	SetEPRxValid:
 602              	.LFB76:
 279:lib/STM32_USB-FS-Device_Driver/src/usb_regs.c **** }
 280:lib/STM32_USB-FS-Device_Driver/src/usb_regs.c **** 
 281:lib/STM32_USB-FS-Device_Driver/src/usb_regs.c **** /*******************************************************************************
 282:lib/STM32_USB-FS-Device_Driver/src/usb_regs.c **** * Function Name  : SetEPRxValid
 283:lib/STM32_USB-FS-Device_Driver/src/usb_regs.c **** * Description    : Valid the endpoint Rx Status.
 284:lib/STM32_USB-FS-Device_Driver/src/usb_regs.c **** * Input          : bEpNum: Endpoint Number. 
 285:lib/STM32_USB-FS-Device_Driver/src/usb_regs.c **** * Output         : None.
 286:lib/STM32_USB-FS-Device_Driver/src/usb_regs.c **** * Return         : None.
 287:lib/STM32_USB-FS-Device_Driver/src/usb_regs.c **** *******************************************************************************/
 288:lib/STM32_USB-FS-Device_Driver/src/usb_regs.c **** void SetEPRxValid(uint8_t bEpNum)
 289:lib/STM32_USB-FS-Device_Driver/src/usb_regs.c **** {
 603              		.loc 1 289 0
 604              		.cfi_startproc
 605              		@ args = 0, pretend = 0, frame = 0
 606              		@ frame_needed = 0, uses_anonymous_args = 0
 607              		@ link register save eliminated.
 608              	.LVL40:
 609              	.LBB9:
 290:lib/STM32_USB-FS-Device_Driver/src/usb_regs.c ****   _SetEPRxStatus(bEpNum, EP_RX_VALID);
 610              		.loc 1 290 0
 611 0000 8000     		lsls	r0, r0, #2
 612              	.LVL41:
 613 0002 00F18042 		add	r2, r0, #1073741824
 614 0006 02F5B840 		add	r0, r2, #23552
 615 000a 0168     		ldr	r1, [r0, #0]
 616              	.LVL42:
 617 000c 4BF68F73 		movw	r3, #49039
 618 0010 0B40     		ands	r3, r3, r1
 619 0012 83F44052 		eor	r2, r3, #12288
 620 0016 42F40041 		orr	r1, r2, #32768
 621              	.LVL43:
 622 001a 41F08003 		orr	r3, r1, #128
 623 001e 0360     		str	r3, [r0, #0]
 624 0020 7047     		bx	lr
 625              	.LBE9:
 626              		.cfi_endproc
 627              	.LFE76:
 629              		.section	.text.SetEP_KIND,"ax",%progbits
 630              		.align	1
 631              		.global	SetEP_KIND
 632              		.thumb
 633              		.thumb_func
 635              	SetEP_KIND:
 636              	.LFB77:
 291:lib/STM32_USB-FS-Device_Driver/src/usb_regs.c **** }
 292:lib/STM32_USB-FS-Device_Driver/src/usb_regs.c **** 
 293:lib/STM32_USB-FS-Device_Driver/src/usb_regs.c **** /*******************************************************************************
 294:lib/STM32_USB-FS-Device_Driver/src/usb_regs.c **** * Function Name  : SetEP_KIND
 295:lib/STM32_USB-FS-Device_Driver/src/usb_regs.c **** * Description    : Clear the EP_KIND bit.
 296:lib/STM32_USB-FS-Device_Driver/src/usb_regs.c **** * Input          : bEpNum: Endpoint Number. 
 297:lib/STM32_USB-FS-Device_Driver/src/usb_regs.c **** * Output         : None.
 298:lib/STM32_USB-FS-Device_Driver/src/usb_regs.c **** * Return         : None.
 299:lib/STM32_USB-FS-Device_Driver/src/usb_regs.c **** *******************************************************************************/
 300:lib/STM32_USB-FS-Device_Driver/src/usb_regs.c **** void SetEP_KIND(uint8_t bEpNum)
 301:lib/STM32_USB-FS-Device_Driver/src/usb_regs.c **** {
 637              		.loc 1 301 0
 638              		.cfi_startproc
 639              		@ args = 0, pretend = 0, frame = 0
 640              		@ frame_needed = 0, uses_anonymous_args = 0
 641              		@ link register save eliminated.
 642              	.LVL44:
 302:lib/STM32_USB-FS-Device_Driver/src/usb_regs.c ****   _SetEP_KIND(bEpNum);
 643              		.loc 1 302 0
 644 0000 8000     		lsls	r0, r0, #2
 645              	.LVL45:
 646 0002 00F18042 		add	r2, r0, #1073741824
 647 0006 02F5B840 		add	r0, r2, #23552
 648 000a 0168     		ldr	r1, [r0, #0]
 649 000c 40F60F63 		movw	r3, #3599
 650 0010 0B40     		ands	r3, r3, r1
 651 0012 43F40142 		orr	r2, r3, #33024
 652 0016 42F08001 		orr	r1, r2, #128
 653 001a 0160     		str	r1, [r0, #0]
 654 001c 7047     		bx	lr
 655              		.cfi_endproc
 656              	.LFE77:
 658              		.section	.text.ClearEP_KIND,"ax",%progbits
 659              		.align	1
 660              		.global	ClearEP_KIND
 661              		.thumb
 662              		.thumb_func
 664              	ClearEP_KIND:
 665              	.LFB78:
 303:lib/STM32_USB-FS-Device_Driver/src/usb_regs.c **** }
 304:lib/STM32_USB-FS-Device_Driver/src/usb_regs.c **** 
 305:lib/STM32_USB-FS-Device_Driver/src/usb_regs.c **** /*******************************************************************************
 306:lib/STM32_USB-FS-Device_Driver/src/usb_regs.c **** * Function Name  : ClearEP_KIND
 307:lib/STM32_USB-FS-Device_Driver/src/usb_regs.c **** * Description    : set the  EP_KIND bit.
 308:lib/STM32_USB-FS-Device_Driver/src/usb_regs.c **** * Input          : bEpNum: Endpoint Number. 
 309:lib/STM32_USB-FS-Device_Driver/src/usb_regs.c **** * Output         : None.
 310:lib/STM32_USB-FS-Device_Driver/src/usb_regs.c **** * Return         : None.
 311:lib/STM32_USB-FS-Device_Driver/src/usb_regs.c **** *******************************************************************************/
 312:lib/STM32_USB-FS-Device_Driver/src/usb_regs.c **** void ClearEP_KIND(uint8_t bEpNum)
 313:lib/STM32_USB-FS-Device_Driver/src/usb_regs.c **** {
 666              		.loc 1 313 0
 667              		.cfi_startproc
 668              		@ args = 0, pretend = 0, frame = 0
 669              		@ frame_needed = 0, uses_anonymous_args = 0
 670              		@ link register save eliminated.
 671              	.LVL46:
 314:lib/STM32_USB-FS-Device_Driver/src/usb_regs.c ****   _ClearEP_KIND(bEpNum);
 672              		.loc 1 314 0
 673 0000 8000     		lsls	r0, r0, #2
 674              	.LVL47:
 675 0002 00F18042 		add	r2, r0, #1073741824
 676 0006 02F5B840 		add	r0, r2, #23552
 677 000a 0168     		ldr	r1, [r0, #0]
 678 000c 40F60F63 		movw	r3, #3599
 679 0010 0B40     		ands	r3, r3, r1
 680 0012 43F40042 		orr	r2, r3, #32768
 681 0016 42F08001 		orr	r1, r2, #128
 682 001a 0160     		str	r1, [r0, #0]
 683 001c 7047     		bx	lr
 684              		.cfi_endproc
 685              	.LFE78:
 687              		.section	.text.Clear_Status_Out,"ax",%progbits
 688              		.align	1
 689              		.global	Clear_Status_Out
 690              		.thumb
 691              		.thumb_func
 693              	Clear_Status_Out:
 694              	.LFB79:
 315:lib/STM32_USB-FS-Device_Driver/src/usb_regs.c **** }
 316:lib/STM32_USB-FS-Device_Driver/src/usb_regs.c **** /*******************************************************************************
 317:lib/STM32_USB-FS-Device_Driver/src/usb_regs.c **** * Function Name  : Clear_Status_Out
 318:lib/STM32_USB-FS-Device_Driver/src/usb_regs.c **** * Description    : Clear the Status Out of the related Endpoint
 319:lib/STM32_USB-FS-Device_Driver/src/usb_regs.c **** * Input          : bEpNum: Endpoint Number. 
 320:lib/STM32_USB-FS-Device_Driver/src/usb_regs.c **** * Output         : None.
 321:lib/STM32_USB-FS-Device_Driver/src/usb_regs.c **** * Return         : None.
 322:lib/STM32_USB-FS-Device_Driver/src/usb_regs.c **** *******************************************************************************/
 323:lib/STM32_USB-FS-Device_Driver/src/usb_regs.c **** void Clear_Status_Out(uint8_t bEpNum)
 324:lib/STM32_USB-FS-Device_Driver/src/usb_regs.c **** {
 695              		.loc 1 324 0
 696              		.cfi_startproc
 697              		@ args = 0, pretend = 0, frame = 0
 698              		@ frame_needed = 0, uses_anonymous_args = 0
 699              		@ link register save eliminated.
 700              	.LVL48:
 325:lib/STM32_USB-FS-Device_Driver/src/usb_regs.c ****   _ClearEP_KIND(bEpNum);
 701              		.loc 1 325 0
 702 0000 8000     		lsls	r0, r0, #2
 703              	.LVL49:
 704 0002 00F18042 		add	r2, r0, #1073741824
 705 0006 02F5B840 		add	r0, r2, #23552
 706 000a 0168     		ldr	r1, [r0, #0]
 707 000c 40F60F63 		movw	r3, #3599
 708 0010 0B40     		ands	r3, r3, r1
 709 0012 43F40042 		orr	r2, r3, #32768
 710 0016 42F08001 		orr	r1, r2, #128
 711 001a 0160     		str	r1, [r0, #0]
 712 001c 7047     		bx	lr
 713              		.cfi_endproc
 714              	.LFE79:
 716              		.section	.text.Set_Status_Out,"ax",%progbits
 717              		.align	1
 718              		.global	Set_Status_Out
 719              		.thumb
 720              		.thumb_func
 722              	Set_Status_Out:
 723              	.LFB80:
 326:lib/STM32_USB-FS-Device_Driver/src/usb_regs.c **** }
 327:lib/STM32_USB-FS-Device_Driver/src/usb_regs.c **** /*******************************************************************************
 328:lib/STM32_USB-FS-Device_Driver/src/usb_regs.c **** * Function Name  : Set_Status_Out
 329:lib/STM32_USB-FS-Device_Driver/src/usb_regs.c **** * Description    : Set the Status Out of the related Endpoint
 330:lib/STM32_USB-FS-Device_Driver/src/usb_regs.c **** * Input          : bEpNum: Endpoint Number. 
 331:lib/STM32_USB-FS-Device_Driver/src/usb_regs.c **** * Output         : None.
 332:lib/STM32_USB-FS-Device_Driver/src/usb_regs.c **** * Return         : None.
 333:lib/STM32_USB-FS-Device_Driver/src/usb_regs.c **** *******************************************************************************/
 334:lib/STM32_USB-FS-Device_Driver/src/usb_regs.c **** void Set_Status_Out(uint8_t bEpNum)
 335:lib/STM32_USB-FS-Device_Driver/src/usb_regs.c **** {
 724              		.loc 1 335 0
 725              		.cfi_startproc
 726              		@ args = 0, pretend = 0, frame = 0
 727              		@ frame_needed = 0, uses_anonymous_args = 0
 728              		@ link register save eliminated.
 729              	.LVL50:
 336:lib/STM32_USB-FS-Device_Driver/src/usb_regs.c ****   _SetEP_KIND(bEpNum);
 730              		.loc 1 336 0
 731 0000 8000     		lsls	r0, r0, #2
 732              	.LVL51:
 733 0002 00F18042 		add	r2, r0, #1073741824
 734 0006 02F5B840 		add	r0, r2, #23552
 735 000a 0168     		ldr	r1, [r0, #0]
 736 000c 40F60F63 		movw	r3, #3599
 737 0010 0B40     		ands	r3, r3, r1
 738 0012 43F40142 		orr	r2, r3, #33024
 739 0016 42F08001 		orr	r1, r2, #128
 740 001a 0160     		str	r1, [r0, #0]
 741 001c 7047     		bx	lr
 742              		.cfi_endproc
 743              	.LFE80:
 745              		.section	.text.SetEPDoubleBuff,"ax",%progbits
 746              		.align	1
 747              		.global	SetEPDoubleBuff
 748              		.thumb
 749              		.thumb_func
 751              	SetEPDoubleBuff:
 752              	.LFB81:
 337:lib/STM32_USB-FS-Device_Driver/src/usb_regs.c **** }
 338:lib/STM32_USB-FS-Device_Driver/src/usb_regs.c **** /*******************************************************************************
 339:lib/STM32_USB-FS-Device_Driver/src/usb_regs.c **** * Function Name  : SetEPDoubleBuff
 340:lib/STM32_USB-FS-Device_Driver/src/usb_regs.c **** * Description    : Enable the double buffer feature for the endpoint. 
 341:lib/STM32_USB-FS-Device_Driver/src/usb_regs.c **** * Input          : bEpNum: Endpoint Number. 
 342:lib/STM32_USB-FS-Device_Driver/src/usb_regs.c **** * Output         : None.
 343:lib/STM32_USB-FS-Device_Driver/src/usb_regs.c **** * Return         : None.
 344:lib/STM32_USB-FS-Device_Driver/src/usb_regs.c **** *******************************************************************************/
 345:lib/STM32_USB-FS-Device_Driver/src/usb_regs.c **** void SetEPDoubleBuff(uint8_t bEpNum)
 346:lib/STM32_USB-FS-Device_Driver/src/usb_regs.c **** {
 753              		.loc 1 346 0
 754              		.cfi_startproc
 755              		@ args = 0, pretend = 0, frame = 0
 756              		@ frame_needed = 0, uses_anonymous_args = 0
 757              		@ link register save eliminated.
 758              	.LVL52:
 347:lib/STM32_USB-FS-Device_Driver/src/usb_regs.c ****   _SetEP_KIND(bEpNum);
 759              		.loc 1 347 0
 760 0000 8000     		lsls	r0, r0, #2
 761              	.LVL53:
 762 0002 00F18042 		add	r2, r0, #1073741824
 763 0006 02F5B840 		add	r0, r2, #23552
 764 000a 0168     		ldr	r1, [r0, #0]
 765 000c 40F60F63 		movw	r3, #3599
 766 0010 0B40     		ands	r3, r3, r1
 767 0012 43F40142 		orr	r2, r3, #33024
 768 0016 42F08001 		orr	r1, r2, #128
 769 001a 0160     		str	r1, [r0, #0]
 770 001c 7047     		bx	lr
 771              		.cfi_endproc
 772              	.LFE81:
 774              		.section	.text.ClearEPDoubleBuff,"ax",%progbits
 775              		.align	1
 776              		.global	ClearEPDoubleBuff
 777              		.thumb
 778              		.thumb_func
 780              	ClearEPDoubleBuff:
 781              	.LFB82:
 348:lib/STM32_USB-FS-Device_Driver/src/usb_regs.c **** }
 349:lib/STM32_USB-FS-Device_Driver/src/usb_regs.c **** /*******************************************************************************
 350:lib/STM32_USB-FS-Device_Driver/src/usb_regs.c **** * Function Name  : ClearEPDoubleBuff
 351:lib/STM32_USB-FS-Device_Driver/src/usb_regs.c **** * Description    : Disable the double buffer feature for the endpoint. 
 352:lib/STM32_USB-FS-Device_Driver/src/usb_regs.c **** * Input          : bEpNum: Endpoint Number. 
 353:lib/STM32_USB-FS-Device_Driver/src/usb_regs.c **** * Output         : None.
 354:lib/STM32_USB-FS-Device_Driver/src/usb_regs.c **** * Return         : None.
 355:lib/STM32_USB-FS-Device_Driver/src/usb_regs.c **** *******************************************************************************/
 356:lib/STM32_USB-FS-Device_Driver/src/usb_regs.c **** void ClearEPDoubleBuff(uint8_t bEpNum)
 357:lib/STM32_USB-FS-Device_Driver/src/usb_regs.c **** {
 782              		.loc 1 357 0
 783              		.cfi_startproc
 784              		@ args = 0, pretend = 0, frame = 0
 785              		@ frame_needed = 0, uses_anonymous_args = 0
 786              		@ link register save eliminated.
 787              	.LVL54:
 358:lib/STM32_USB-FS-Device_Driver/src/usb_regs.c ****   _ClearEP_KIND(bEpNum);
 788              		.loc 1 358 0
 789 0000 8000     		lsls	r0, r0, #2
 790              	.LVL55:
 791 0002 00F18042 		add	r2, r0, #1073741824
 792 0006 02F5B840 		add	r0, r2, #23552
 793 000a 0168     		ldr	r1, [r0, #0]
 794 000c 40F60F63 		movw	r3, #3599
 795 0010 0B40     		ands	r3, r3, r1
 796 0012 43F40042 		orr	r2, r3, #32768
 797 0016 42F08001 		orr	r1, r2, #128
 798 001a 0160     		str	r1, [r0, #0]
 799 001c 7047     		bx	lr
 800              		.cfi_endproc
 801              	.LFE82:
 803              		.section	.text.GetTxStallStatus,"ax",%progbits
 804              		.align	1
 805              		.global	GetTxStallStatus
 806              		.thumb
 807              		.thumb_func
 809              	GetTxStallStatus:
 810              	.LFB83:
 359:lib/STM32_USB-FS-Device_Driver/src/usb_regs.c **** }
 360:lib/STM32_USB-FS-Device_Driver/src/usb_regs.c **** /*******************************************************************************
 361:lib/STM32_USB-FS-Device_Driver/src/usb_regs.c **** * Function Name  : GetTxStallStatus
 362:lib/STM32_USB-FS-Device_Driver/src/usb_regs.c **** * Description    : Returns the Stall status of the Tx endpoint.
 363:lib/STM32_USB-FS-Device_Driver/src/usb_regs.c **** * Input          : bEpNum: Endpoint Number. 
 364:lib/STM32_USB-FS-Device_Driver/src/usb_regs.c **** * Output         : None.
 365:lib/STM32_USB-FS-Device_Driver/src/usb_regs.c **** * Return         : Tx Stall status.
 366:lib/STM32_USB-FS-Device_Driver/src/usb_regs.c **** *******************************************************************************/
 367:lib/STM32_USB-FS-Device_Driver/src/usb_regs.c **** uint16_t GetTxStallStatus(uint8_t bEpNum)
 368:lib/STM32_USB-FS-Device_Driver/src/usb_regs.c **** {
 811              		.loc 1 368 0
 812              		.cfi_startproc
 813              		@ args = 0, pretend = 0, frame = 0
 814              		@ frame_needed = 0, uses_anonymous_args = 0
 815              		@ link register save eliminated.
 816              	.LVL56:
 369:lib/STM32_USB-FS-Device_Driver/src/usb_regs.c ****   return(_GetTxStallStatus(bEpNum));
 817              		.loc 1 369 0
 818 0000 8000     		lsls	r0, r0, #2
 819              	.LVL57:
 820 0002 00F18043 		add	r3, r0, #1073741824
 821 0006 03F5B841 		add	r1, r3, #23552
 822 000a 0A68     		ldr	r2, [r1, #0]
 823 000c 02F03000 		and	r0, r2, #48
 370:lib/STM32_USB-FS-Device_Driver/src/usb_regs.c **** }
 824              		.loc 1 370 0
 825 0010 B0F11003 		subs	r3, r0, #16
 826 0014 5942     		rsbs	r1, r3, #0
 827 0016 51EB0300 		adcs	r0, r1, r3
 828 001a 7047     		bx	lr
 829              		.cfi_endproc
 830              	.LFE83:
 832              		.section	.text.GetRxStallStatus,"ax",%progbits
 833              		.align	1
 834              		.global	GetRxStallStatus
 835              		.thumb
 836              		.thumb_func
 838              	GetRxStallStatus:
 839              	.LFB84:
 371:lib/STM32_USB-FS-Device_Driver/src/usb_regs.c **** /*******************************************************************************
 372:lib/STM32_USB-FS-Device_Driver/src/usb_regs.c **** * Function Name  : GetRxStallStatus
 373:lib/STM32_USB-FS-Device_Driver/src/usb_regs.c **** * Description    : Returns the Stall status of the Rx endpoint. 
 374:lib/STM32_USB-FS-Device_Driver/src/usb_regs.c **** * Input          : bEpNum: Endpoint Number. 
 375:lib/STM32_USB-FS-Device_Driver/src/usb_regs.c **** * Output         : None.
 376:lib/STM32_USB-FS-Device_Driver/src/usb_regs.c **** * Return         : Rx Stall status.
 377:lib/STM32_USB-FS-Device_Driver/src/usb_regs.c **** *******************************************************************************/
 378:lib/STM32_USB-FS-Device_Driver/src/usb_regs.c **** uint16_t GetRxStallStatus(uint8_t bEpNum)
 379:lib/STM32_USB-FS-Device_Driver/src/usb_regs.c **** {
 840              		.loc 1 379 0
 841              		.cfi_startproc
 842              		@ args = 0, pretend = 0, frame = 0
 843              		@ frame_needed = 0, uses_anonymous_args = 0
 844              		@ link register save eliminated.
 845              	.LVL58:
 380:lib/STM32_USB-FS-Device_Driver/src/usb_regs.c ****   return(_GetRxStallStatus(bEpNum));
 846              		.loc 1 380 0
 847 0000 8000     		lsls	r0, r0, #2
 848              	.LVL59:
 849 0002 00F18043 		add	r3, r0, #1073741824
 850 0006 03F5B841 		add	r1, r3, #23552
 851 000a 0A68     		ldr	r2, [r1, #0]
 852 000c 02F44050 		and	r0, r2, #12288
 381:lib/STM32_USB-FS-Device_Driver/src/usb_regs.c **** }
 853              		.loc 1 381 0
 854 0010 B0F58053 		subs	r3, r0, #4096
 855 0014 5942     		rsbs	r1, r3, #0
 856 0016 51EB0300 		adcs	r0, r1, r3
 857 001a 7047     		bx	lr
 858              		.cfi_endproc
 859              	.LFE84:
 861              		.section	.text.ClearEP_CTR_RX,"ax",%progbits
 862              		.align	1
 863              		.global	ClearEP_CTR_RX
 864              		.thumb
 865              		.thumb_func
 867              	ClearEP_CTR_RX:
 868              	.LFB85:
 382:lib/STM32_USB-FS-Device_Driver/src/usb_regs.c **** /*******************************************************************************
 383:lib/STM32_USB-FS-Device_Driver/src/usb_regs.c **** * Function Name  : ClearEP_CTR_RX
 384:lib/STM32_USB-FS-Device_Driver/src/usb_regs.c **** * Description    : Clear the CTR_RX bit.
 385:lib/STM32_USB-FS-Device_Driver/src/usb_regs.c **** * Input          : bEpNum: Endpoint Number. 
 386:lib/STM32_USB-FS-Device_Driver/src/usb_regs.c **** * Output         : None.
 387:lib/STM32_USB-FS-Device_Driver/src/usb_regs.c **** * Return         : None.
 388:lib/STM32_USB-FS-Device_Driver/src/usb_regs.c **** *******************************************************************************/
 389:lib/STM32_USB-FS-Device_Driver/src/usb_regs.c **** void ClearEP_CTR_RX(uint8_t bEpNum)
 390:lib/STM32_USB-FS-Device_Driver/src/usb_regs.c **** {
 869              		.loc 1 390 0
 870              		.cfi_startproc
 871              		@ args = 0, pretend = 0, frame = 0
 872              		@ frame_needed = 0, uses_anonymous_args = 0
 873              		@ link register save eliminated.
 874              	.LVL60:
 391:lib/STM32_USB-FS-Device_Driver/src/usb_regs.c ****   _ClearEP_CTR_RX(bEpNum);
 875              		.loc 1 391 0
 876 0000 8000     		lsls	r0, r0, #2
 877              	.LVL61:
 878 0002 00F18042 		add	r2, r0, #1073741824
 879 0006 02F5B840 		add	r0, r2, #23552
 880 000a 0168     		ldr	r1, [r0, #0]
 881 000c 40F68F73 		movw	r3, #3983
 882 0010 0B40     		ands	r3, r3, r1
 883 0012 0360     		str	r3, [r0, #0]
 884 0014 7047     		bx	lr
 885              		.cfi_endproc
 886              	.LFE85:
 888              		.section	.text.ClearEP_CTR_TX,"ax",%progbits
 889              		.align	1
 890              		.global	ClearEP_CTR_TX
 891              		.thumb
 892              		.thumb_func
 894              	ClearEP_CTR_TX:
 895              	.LFB86:
 392:lib/STM32_USB-FS-Device_Driver/src/usb_regs.c **** }
 393:lib/STM32_USB-FS-Device_Driver/src/usb_regs.c **** /*******************************************************************************
 394:lib/STM32_USB-FS-Device_Driver/src/usb_regs.c **** * Function Name  : ClearEP_CTR_TX
 395:lib/STM32_USB-FS-Device_Driver/src/usb_regs.c **** * Description    : Clear the CTR_TX bit.
 396:lib/STM32_USB-FS-Device_Driver/src/usb_regs.c **** * Input          : bEpNum: Endpoint Number. 
 397:lib/STM32_USB-FS-Device_Driver/src/usb_regs.c **** * Output         : None.
 398:lib/STM32_USB-FS-Device_Driver/src/usb_regs.c **** * Return         : None.
 399:lib/STM32_USB-FS-Device_Driver/src/usb_regs.c **** *******************************************************************************/
 400:lib/STM32_USB-FS-Device_Driver/src/usb_regs.c **** void ClearEP_CTR_TX(uint8_t bEpNum)
 401:lib/STM32_USB-FS-Device_Driver/src/usb_regs.c **** {
 896              		.loc 1 401 0
 897              		.cfi_startproc
 898              		@ args = 0, pretend = 0, frame = 0
 899              		@ frame_needed = 0, uses_anonymous_args = 0
 900              		@ link register save eliminated.
 901              	.LVL62:
 402:lib/STM32_USB-FS-Device_Driver/src/usb_regs.c ****   _ClearEP_CTR_TX(bEpNum);
 902              		.loc 1 402 0
 903 0000 8000     		lsls	r0, r0, #2
 904              	.LVL63:
 905 0002 00F18042 		add	r2, r0, #1073741824
 906 0006 02F5B840 		add	r0, r2, #23552
 907 000a 0168     		ldr	r1, [r0, #0]
 908 000c 48F60F73 		movw	r3, #36623
 909 0010 0B40     		ands	r3, r3, r1
 910 0012 0360     		str	r3, [r0, #0]
 911 0014 7047     		bx	lr
 912              		.cfi_endproc
 913              	.LFE86:
 915              		.section	.text.ToggleDTOG_RX,"ax",%progbits
 916              		.align	1
 917              		.global	ToggleDTOG_RX
 918              		.thumb
 919              		.thumb_func
 921              	ToggleDTOG_RX:
 922              	.LFB87:
 403:lib/STM32_USB-FS-Device_Driver/src/usb_regs.c **** }
 404:lib/STM32_USB-FS-Device_Driver/src/usb_regs.c **** /*******************************************************************************
 405:lib/STM32_USB-FS-Device_Driver/src/usb_regs.c **** * Function Name  : ToggleDTOG_RX
 406:lib/STM32_USB-FS-Device_Driver/src/usb_regs.c **** * Description    : Toggle the DTOG_RX bit.
 407:lib/STM32_USB-FS-Device_Driver/src/usb_regs.c **** * Input          : bEpNum: Endpoint Number. 
 408:lib/STM32_USB-FS-Device_Driver/src/usb_regs.c **** * Output         : None.
 409:lib/STM32_USB-FS-Device_Driver/src/usb_regs.c **** * Return         : None.
 410:lib/STM32_USB-FS-Device_Driver/src/usb_regs.c **** *******************************************************************************/
 411:lib/STM32_USB-FS-Device_Driver/src/usb_regs.c **** void ToggleDTOG_RX(uint8_t bEpNum)
 412:lib/STM32_USB-FS-Device_Driver/src/usb_regs.c **** {
 923              		.loc 1 412 0
 924              		.cfi_startproc
 925              		@ args = 0, pretend = 0, frame = 0
 926              		@ frame_needed = 0, uses_anonymous_args = 0
 927              		@ link register save eliminated.
 928              	.LVL64:
 413:lib/STM32_USB-FS-Device_Driver/src/usb_regs.c ****   _ToggleDTOG_RX(bEpNum);
 929              		.loc 1 413 0
 930 0000 8000     		lsls	r0, r0, #2
 931              	.LVL65:
 932 0002 00F18042 		add	r2, r0, #1073741824
 933 0006 02F5B840 		add	r0, r2, #23552
 934 000a 0168     		ldr	r1, [r0, #0]
 935 000c 40F60F73 		movw	r3, #3855
 936 0010 0B40     		ands	r3, r3, r1
 937 0012 43F44042 		orr	r2, r3, #49152
 938 0016 42F08001 		orr	r1, r2, #128
 939 001a 0160     		str	r1, [r0, #0]
 940 001c 7047     		bx	lr
 941              		.cfi_endproc
 942              	.LFE87:
 944              		.section	.text.ToggleDTOG_TX,"ax",%progbits
 945              		.align	1
 946              		.global	ToggleDTOG_TX
 947              		.thumb
 948              		.thumb_func
 950              	ToggleDTOG_TX:
 951              	.LFB88:
 414:lib/STM32_USB-FS-Device_Driver/src/usb_regs.c **** }
 415:lib/STM32_USB-FS-Device_Driver/src/usb_regs.c **** /*******************************************************************************
 416:lib/STM32_USB-FS-Device_Driver/src/usb_regs.c **** * Function Name  : ToggleDTOG_TX
 417:lib/STM32_USB-FS-Device_Driver/src/usb_regs.c **** * Description    : Toggle the DTOG_TX bit.
 418:lib/STM32_USB-FS-Device_Driver/src/usb_regs.c **** * Input          : bEpNum: Endpoint Number. 
 419:lib/STM32_USB-FS-Device_Driver/src/usb_regs.c **** * Output         : None.
 420:lib/STM32_USB-FS-Device_Driver/src/usb_regs.c **** * Return         : None.
 421:lib/STM32_USB-FS-Device_Driver/src/usb_regs.c **** *******************************************************************************/
 422:lib/STM32_USB-FS-Device_Driver/src/usb_regs.c **** void ToggleDTOG_TX(uint8_t bEpNum)
 423:lib/STM32_USB-FS-Device_Driver/src/usb_regs.c **** {
 952              		.loc 1 423 0
 953              		.cfi_startproc
 954              		@ args = 0, pretend = 0, frame = 0
 955              		@ frame_needed = 0, uses_anonymous_args = 0
 956              		@ link register save eliminated.
 957              	.LVL66:
 424:lib/STM32_USB-FS-Device_Driver/src/usb_regs.c ****   _ToggleDTOG_TX(bEpNum);
 958              		.loc 1 424 0
 959 0000 8000     		lsls	r0, r0, #2
 960              	.LVL67:
 961 0002 00F18042 		add	r2, r0, #1073741824
 962 0006 02F5B840 		add	r0, r2, #23552
 963 000a 0168     		ldr	r1, [r0, #0]
 964 000c 40F60F73 		movw	r3, #3855
 965 0010 0B40     		ands	r3, r3, r1
 966 0012 43F40042 		orr	r2, r3, #32768
 967 0016 42F0C001 		orr	r1, r2, #192
 968 001a 0160     		str	r1, [r0, #0]
 969 001c 7047     		bx	lr
 970              		.cfi_endproc
 971              	.LFE88:
 973              		.section	.text.ClearDTOG_RX,"ax",%progbits
 974              		.align	1
 975              		.global	ClearDTOG_RX
 976              		.thumb
 977              		.thumb_func
 979              	ClearDTOG_RX:
 980              	.LFB89:
 425:lib/STM32_USB-FS-Device_Driver/src/usb_regs.c **** }
 426:lib/STM32_USB-FS-Device_Driver/src/usb_regs.c **** /*******************************************************************************
 427:lib/STM32_USB-FS-Device_Driver/src/usb_regs.c **** * Function Name  : ClearDTOG_RX.
 428:lib/STM32_USB-FS-Device_Driver/src/usb_regs.c **** * Description    : Clear the DTOG_RX bit.
 429:lib/STM32_USB-FS-Device_Driver/src/usb_regs.c **** * Input          : bEpNum: Endpoint Number. 
 430:lib/STM32_USB-FS-Device_Driver/src/usb_regs.c **** * Output         : None.
 431:lib/STM32_USB-FS-Device_Driver/src/usb_regs.c **** * Return         : None.
 432:lib/STM32_USB-FS-Device_Driver/src/usb_regs.c **** *******************************************************************************/
 433:lib/STM32_USB-FS-Device_Driver/src/usb_regs.c **** void ClearDTOG_RX(uint8_t bEpNum)
 434:lib/STM32_USB-FS-Device_Driver/src/usb_regs.c **** {
 981              		.loc 1 434 0
 982              		.cfi_startproc
 983              		@ args = 0, pretend = 0, frame = 0
 984              		@ frame_needed = 0, uses_anonymous_args = 0
 985              		@ link register save eliminated.
 986              	.LVL68:
 435:lib/STM32_USB-FS-Device_Driver/src/usb_regs.c ****   _ClearDTOG_RX(bEpNum);
 987              		.loc 1 435 0
 988 0000 8000     		lsls	r0, r0, #2
 989              	.LVL69:
 990 0002 00F18043 		add	r3, r0, #1073741824
 991 0006 03F5B840 		add	r0, r3, #23552
 992 000a 0268     		ldr	r2, [r0, #0]
 993 000c 5104     		lsls	r1, r2, #17
 994 000e 08D5     		bpl	.L67
 995              		.loc 1 435 0 is_stmt 0 discriminator 1
 996 0010 0168     		ldr	r1, [r0, #0]
 997 0012 40F60F73 		movw	r3, #3855
 998 0016 0B40     		ands	r3, r3, r1
 999 0018 43F44042 		orr	r2, r3, #49152
 1000 001c 42F08001 		orr	r1, r2, #128
 1001 0020 0160     		str	r1, [r0, #0]
 1002              	.L67:
 1003 0022 7047     		bx	lr
 1004              		.cfi_endproc
 1005              	.LFE89:
 1007              		.section	.text.ClearDTOG_TX,"ax",%progbits
 1008              		.align	1
 1009              		.global	ClearDTOG_TX
 1010              		.thumb
 1011              		.thumb_func
 1013              	ClearDTOG_TX:
 1014              	.LFB90:
 436:lib/STM32_USB-FS-Device_Driver/src/usb_regs.c **** }
 437:lib/STM32_USB-FS-Device_Driver/src/usb_regs.c **** /*******************************************************************************
 438:lib/STM32_USB-FS-Device_Driver/src/usb_regs.c **** * Function Name  : ClearDTOG_TX.
 439:lib/STM32_USB-FS-Device_Driver/src/usb_regs.c **** * Description    : Clear the DTOG_TX bit.
 440:lib/STM32_USB-FS-Device_Driver/src/usb_regs.c **** * Input          : bEpNum: Endpoint Number. 
 441:lib/STM32_USB-FS-Device_Driver/src/usb_regs.c **** * Output         : None.
 442:lib/STM32_USB-FS-Device_Driver/src/usb_regs.c **** * Return         : None.
 443:lib/STM32_USB-FS-Device_Driver/src/usb_regs.c **** *******************************************************************************/
 444:lib/STM32_USB-FS-Device_Driver/src/usb_regs.c **** void ClearDTOG_TX(uint8_t bEpNum)
 445:lib/STM32_USB-FS-Device_Driver/src/usb_regs.c **** {
 1015              		.loc 1 445 0 is_stmt 1
 1016              		.cfi_startproc
 1017              		@ args = 0, pretend = 0, frame = 0
 1018              		@ frame_needed = 0, uses_anonymous_args = 0
 1019              		@ link register save eliminated.
 1020              	.LVL70:
 446:lib/STM32_USB-FS-Device_Driver/src/usb_regs.c ****   _ClearDTOG_TX(bEpNum);
 1021              		.loc 1 446 0
 1022 0000 8000     		lsls	r0, r0, #2
 1023              	.LVL71:
 1024 0002 00F18043 		add	r3, r0, #1073741824
 1025 0006 03F5B843 		add	r3, r3, #23552
 1026 000a 1A68     		ldr	r2, [r3, #0]
 1027 000c 5006     		lsls	r0, r2, #25
 1028 000e 08D5     		bpl	.L72
 1029              		.loc 1 446 0 is_stmt 0 discriminator 1
 1030 0010 1968     		ldr	r1, [r3, #0]
 1031 0012 40F60F70 		movw	r0, #3855
 1032 0016 0840     		ands	r0, r0, r1
 1033 0018 40F40042 		orr	r2, r0, #32768
 1034 001c 42F0C001 		orr	r1, r2, #192
 1035 0020 1960     		str	r1, [r3, #0]
 1036              	.L72:
 1037 0022 7047     		bx	lr
 1038              		.cfi_endproc
 1039              	.LFE90:
 1041              		.section	.text.SetEPAddress,"ax",%progbits
 1042              		.align	1
 1043              		.global	SetEPAddress
 1044              		.thumb
 1045              		.thumb_func
 1047              	SetEPAddress:
 1048              	.LFB91:
 447:lib/STM32_USB-FS-Device_Driver/src/usb_regs.c **** }
 448:lib/STM32_USB-FS-Device_Driver/src/usb_regs.c **** /*******************************************************************************
 449:lib/STM32_USB-FS-Device_Driver/src/usb_regs.c **** * Function Name  : SetEPAddress
 450:lib/STM32_USB-FS-Device_Driver/src/usb_regs.c **** * Description    : Set the endpoint address.
 451:lib/STM32_USB-FS-Device_Driver/src/usb_regs.c **** * Input          : bEpNum: Endpoint Number.
 452:lib/STM32_USB-FS-Device_Driver/src/usb_regs.c **** *                  bAddr: New endpoint address.
 453:lib/STM32_USB-FS-Device_Driver/src/usb_regs.c **** * Output         : None.
 454:lib/STM32_USB-FS-Device_Driver/src/usb_regs.c **** * Return         : None.
 455:lib/STM32_USB-FS-Device_Driver/src/usb_regs.c **** *******************************************************************************/
 456:lib/STM32_USB-FS-Device_Driver/src/usb_regs.c **** void SetEPAddress(uint8_t bEpNum, uint8_t bAddr)
 457:lib/STM32_USB-FS-Device_Driver/src/usb_regs.c **** {
 1049              		.loc 1 457 0 is_stmt 1
 1050              		.cfi_startproc
 1051              		@ args = 0, pretend = 0, frame = 0
 1052              		@ frame_needed = 0, uses_anonymous_args = 0
 1053              		@ link register save eliminated.
 1054              	.LVL72:
 458:lib/STM32_USB-FS-Device_Driver/src/usb_regs.c ****   _SetEPAddress(bEpNum, bAddr);
 1055              		.loc 1 458 0
 1056 0000 8000     		lsls	r0, r0, #2
 1057              	.LVL73:
 1058 0002 00F18042 		add	r2, r0, #1073741824
 1059 0006 02F5B842 		add	r2, r2, #23552
 1060 000a 1068     		ldr	r0, [r2, #0]
 1061 000c 40F60F73 		movw	r3, #3855
 1062 0010 0340     		ands	r3, r3, r0
 1063 0012 43F40040 		orr	r0, r3, #32768
 1064 0016 40F08003 		orr	r3, r0, #128
 1065 001a 1943     		orrs	r1, r1, r3
 1066              	.LVL74:
 1067 001c 1160     		str	r1, [r2, #0]
 1068 001e 7047     		bx	lr
 1069              		.cfi_endproc
 1070              	.LFE91:
 1072              		.section	.text.GetEPAddress,"ax",%progbits
 1073              		.align	1
 1074              		.global	GetEPAddress
 1075              		.thumb
 1076              		.thumb_func
 1078              	GetEPAddress:
 1079              	.LFB92:
 459:lib/STM32_USB-FS-Device_Driver/src/usb_regs.c **** }
 460:lib/STM32_USB-FS-Device_Driver/src/usb_regs.c **** /*******************************************************************************
 461:lib/STM32_USB-FS-Device_Driver/src/usb_regs.c **** * Function Name  : GetEPAddress
 462:lib/STM32_USB-FS-Device_Driver/src/usb_regs.c **** * Description    : Get the endpoint address.
 463:lib/STM32_USB-FS-Device_Driver/src/usb_regs.c **** * Input          : bEpNum: Endpoint Number. 
 464:lib/STM32_USB-FS-Device_Driver/src/usb_regs.c **** * Output         : None.
 465:lib/STM32_USB-FS-Device_Driver/src/usb_regs.c **** * Return         : Endpoint address.
 466:lib/STM32_USB-FS-Device_Driver/src/usb_regs.c **** *******************************************************************************/
 467:lib/STM32_USB-FS-Device_Driver/src/usb_regs.c **** uint8_t GetEPAddress(uint8_t bEpNum)
 468:lib/STM32_USB-FS-Device_Driver/src/usb_regs.c **** {
 1080              		.loc 1 468 0
 1081              		.cfi_startproc
 1082              		@ args = 0, pretend = 0, frame = 0
 1083              		@ frame_needed = 0, uses_anonymous_args = 0
 1084              		@ link register save eliminated.
 1085              	.LVL75:
 469:lib/STM32_USB-FS-Device_Driver/src/usb_regs.c ****   return(_GetEPAddress(bEpNum));
 1086              		.loc 1 469 0
 1087 0000 8000     		lsls	r0, r0, #2
 1088              	.LVL76:
 1089 0002 00F18043 		add	r3, r0, #1073741824
 1090 0006 03F5B841 		add	r1, r3, #23552
 1091 000a 0A68     		ldr	r2, [r1, #0]
 470:lib/STM32_USB-FS-Device_Driver/src/usb_regs.c **** }
 1092              		.loc 1 470 0
 1093 000c 02F00F00 		and	r0, r2, #15
 1094 0010 7047     		bx	lr
 1095              		.cfi_endproc
 1096              	.LFE92:
 1098              		.section	.text.SetEPTxAddr,"ax",%progbits
 1099              		.align	1
 1100              		.global	SetEPTxAddr
 1101              		.thumb
 1102              		.thumb_func
 1104              	SetEPTxAddr:
 1105              	.LFB93:
 471:lib/STM32_USB-FS-Device_Driver/src/usb_regs.c **** /*******************************************************************************
 472:lib/STM32_USB-FS-Device_Driver/src/usb_regs.c **** * Function Name  : SetEPTxAddr
 473:lib/STM32_USB-FS-Device_Driver/src/usb_regs.c **** * Description    : Set the endpoint Tx buffer address.
 474:lib/STM32_USB-FS-Device_Driver/src/usb_regs.c **** * Input          : bEpNum: Endpoint Number.
 475:lib/STM32_USB-FS-Device_Driver/src/usb_regs.c **** *                  wAddr: new address. 
 476:lib/STM32_USB-FS-Device_Driver/src/usb_regs.c **** * Output         : None.
 477:lib/STM32_USB-FS-Device_Driver/src/usb_regs.c **** * Return         : None.
 478:lib/STM32_USB-FS-Device_Driver/src/usb_regs.c **** *******************************************************************************/
 479:lib/STM32_USB-FS-Device_Driver/src/usb_regs.c **** void SetEPTxAddr(uint8_t bEpNum, uint16_t wAddr)
 480:lib/STM32_USB-FS-Device_Driver/src/usb_regs.c **** {
 1106              		.loc 1 480 0
 1107              		.cfi_startproc
 1108              		@ args = 0, pretend = 0, frame = 0
 1109              		@ frame_needed = 0, uses_anonymous_args = 0
 1110              		@ link register save eliminated.
 1111              	.LVL77:
 481:lib/STM32_USB-FS-Device_Driver/src/usb_regs.c ****   _SetEPTxAddr(bEpNum, wAddr);
 1112              		.loc 1 481 0
 1113 0000 064B     		ldr	r3, .L80
 1114 0002 1A68     		ldr	r2, [r3, #0]
 482:lib/STM32_USB-FS-Device_Driver/src/usb_regs.c **** }
 483:lib/STM32_USB-FS-Device_Driver/src/usb_regs.c **** /*******************************************************************************
 484:lib/STM32_USB-FS-Device_Driver/src/usb_regs.c **** * Function Name  : SetEPRxAddr
 485:lib/STM32_USB-FS-Device_Driver/src/usb_regs.c **** * Description    : Set the endpoint Rx buffer address.
 486:lib/STM32_USB-FS-Device_Driver/src/usb_regs.c **** * Input          : bEpNum: Endpoint Number.
 487:lib/STM32_USB-FS-Device_Driver/src/usb_regs.c **** *                  wAddr: new address.
 488:lib/STM32_USB-FS-Device_Driver/src/usb_regs.c **** * Output         : None.
 489:lib/STM32_USB-FS-Device_Driver/src/usb_regs.c **** * Return         : None.
 490:lib/STM32_USB-FS-Device_Driver/src/usb_regs.c **** *******************************************************************************/
 491:lib/STM32_USB-FS-Device_Driver/src/usb_regs.c **** void SetEPRxAddr(uint8_t bEpNum, uint16_t wAddr)
 492:lib/STM32_USB-FS-Device_Driver/src/usb_regs.c **** {
 493:lib/STM32_USB-FS-Device_Driver/src/usb_regs.c ****   _SetEPRxAddr(bEpNum, wAddr);
 494:lib/STM32_USB-FS-Device_Driver/src/usb_regs.c **** }
 495:lib/STM32_USB-FS-Device_Driver/src/usb_regs.c **** /*******************************************************************************
 496:lib/STM32_USB-FS-Device_Driver/src/usb_regs.c **** * Function Name  : GetEPTxAddr
 497:lib/STM32_USB-FS-Device_Driver/src/usb_regs.c **** * Description    : Returns the endpoint Tx buffer address.
 498:lib/STM32_USB-FS-Device_Driver/src/usb_regs.c **** * Input          : bEpNum: Endpoint Number. 
 499:lib/STM32_USB-FS-Device_Driver/src/usb_regs.c **** * Output         : None.
 500:lib/STM32_USB-FS-Device_Driver/src/usb_regs.c **** * Return         : Rx buffer address. 
 501:lib/STM32_USB-FS-Device_Driver/src/usb_regs.c **** *******************************************************************************/
 502:lib/STM32_USB-FS-Device_Driver/src/usb_regs.c **** uint16_t GetEPTxAddr(uint8_t bEpNum)
 503:lib/STM32_USB-FS-Device_Driver/src/usb_regs.c **** {
 504:lib/STM32_USB-FS-Device_Driver/src/usb_regs.c ****   return(_GetEPTxAddr(bEpNum));
 505:lib/STM32_USB-FS-Device_Driver/src/usb_regs.c **** }
 506:lib/STM32_USB-FS-Device_Driver/src/usb_regs.c **** /*******************************************************************************
 507:lib/STM32_USB-FS-Device_Driver/src/usb_regs.c **** * Function Name  : GetEPRxAddr.
 508:lib/STM32_USB-FS-Device_Driver/src/usb_regs.c **** * Description    : Returns the endpoint Rx buffer address.
 509:lib/STM32_USB-FS-Device_Driver/src/usb_regs.c **** * Input          : bEpNum: Endpoint Number. 
 510:lib/STM32_USB-FS-Device_Driver/src/usb_regs.c **** * Output         : None.
 511:lib/STM32_USB-FS-Device_Driver/src/usb_regs.c **** * Return         : Rx buffer address.
 512:lib/STM32_USB-FS-Device_Driver/src/usb_regs.c **** *******************************************************************************/
 513:lib/STM32_USB-FS-Device_Driver/src/usb_regs.c **** uint16_t GetEPRxAddr(uint8_t bEpNum)
 514:lib/STM32_USB-FS-Device_Driver/src/usb_regs.c **** {
 515:lib/STM32_USB-FS-Device_Driver/src/usb_regs.c ****   return(_GetEPRxAddr(bEpNum));
 516:lib/STM32_USB-FS-Device_Driver/src/usb_regs.c **** }
 517:lib/STM32_USB-FS-Device_Driver/src/usb_regs.c **** /*******************************************************************************
 518:lib/STM32_USB-FS-Device_Driver/src/usb_regs.c **** * Function Name  : SetEPTxCount.
 519:lib/STM32_USB-FS-Device_Driver/src/usb_regs.c **** * Description    : Set the Tx count.
 520:lib/STM32_USB-FS-Device_Driver/src/usb_regs.c **** * Input          : bEpNum: Endpoint Number.
 521:lib/STM32_USB-FS-Device_Driver/src/usb_regs.c **** *                  wCount: new count value.
 522:lib/STM32_USB-FS-Device_Driver/src/usb_regs.c **** * Output         : None.
 523:lib/STM32_USB-FS-Device_Driver/src/usb_regs.c **** * Return         : None.
 524:lib/STM32_USB-FS-Device_Driver/src/usb_regs.c **** *******************************************************************************/
 525:lib/STM32_USB-FS-Device_Driver/src/usb_regs.c **** void SetEPTxCount(uint8_t bEpNum, uint16_t wCount)
 526:lib/STM32_USB-FS-Device_Driver/src/usb_regs.c **** {
 527:lib/STM32_USB-FS-Device_Driver/src/usb_regs.c ****   _SetEPTxCount(bEpNum, wCount);
 528:lib/STM32_USB-FS-Device_Driver/src/usb_regs.c **** }
 529:lib/STM32_USB-FS-Device_Driver/src/usb_regs.c **** /*******************************************************************************
 530:lib/STM32_USB-FS-Device_Driver/src/usb_regs.c **** * Function Name  : SetEPCountRxReg.
 531:lib/STM32_USB-FS-Device_Driver/src/usb_regs.c **** * Description    : Set the Count Rx Register value.
 532:lib/STM32_USB-FS-Device_Driver/src/usb_regs.c **** * Input          : *pdwReg: point to the register.
 533:lib/STM32_USB-FS-Device_Driver/src/usb_regs.c **** *                  wCount: the new register value.
 534:lib/STM32_USB-FS-Device_Driver/src/usb_regs.c **** * Output         : None.
 535:lib/STM32_USB-FS-Device_Driver/src/usb_regs.c **** * Return         : None.
 536:lib/STM32_USB-FS-Device_Driver/src/usb_regs.c **** *******************************************************************************/
 537:lib/STM32_USB-FS-Device_Driver/src/usb_regs.c **** void SetEPCountRxReg(uint32_t *pdwReg, uint16_t wCount)
 538:lib/STM32_USB-FS-Device_Driver/src/usb_regs.c **** {
 539:lib/STM32_USB-FS-Device_Driver/src/usb_regs.c ****   _SetEPCountRxReg(dwReg, wCount);
 540:lib/STM32_USB-FS-Device_Driver/src/usb_regs.c **** }
 541:lib/STM32_USB-FS-Device_Driver/src/usb_regs.c **** /*******************************************************************************
 542:lib/STM32_USB-FS-Device_Driver/src/usb_regs.c **** * Function Name  : SetEPRxCount
 543:lib/STM32_USB-FS-Device_Driver/src/usb_regs.c **** * Description    : Set the Rx count.
 544:lib/STM32_USB-FS-Device_Driver/src/usb_regs.c **** * Input          : bEpNum: Endpoint Number. 
 545:lib/STM32_USB-FS-Device_Driver/src/usb_regs.c **** *                  wCount: the new count value.
 546:lib/STM32_USB-FS-Device_Driver/src/usb_regs.c **** * Output         : None.
 547:lib/STM32_USB-FS-Device_Driver/src/usb_regs.c **** * Return         : None.
 548:lib/STM32_USB-FS-Device_Driver/src/usb_regs.c **** *******************************************************************************/
 549:lib/STM32_USB-FS-Device_Driver/src/usb_regs.c **** void SetEPRxCount(uint8_t bEpNum, uint16_t wCount)
 550:lib/STM32_USB-FS-Device_Driver/src/usb_regs.c **** {
 551:lib/STM32_USB-FS-Device_Driver/src/usb_regs.c ****   _SetEPRxCount(bEpNum, wCount);
 552:lib/STM32_USB-FS-Device_Driver/src/usb_regs.c **** }
 553:lib/STM32_USB-FS-Device_Driver/src/usb_regs.c **** /*******************************************************************************
 554:lib/STM32_USB-FS-Device_Driver/src/usb_regs.c **** * Function Name  : GetEPTxCount
 555:lib/STM32_USB-FS-Device_Driver/src/usb_regs.c **** * Description    : Get the Tx count.
 556:lib/STM32_USB-FS-Device_Driver/src/usb_regs.c **** * Input          : bEpNum: Endpoint Number. 
 557:lib/STM32_USB-FS-Device_Driver/src/usb_regs.c **** * Output         : None
 558:lib/STM32_USB-FS-Device_Driver/src/usb_regs.c **** * Return         : Tx count value.
 559:lib/STM32_USB-FS-Device_Driver/src/usb_regs.c **** *******************************************************************************/
 560:lib/STM32_USB-FS-Device_Driver/src/usb_regs.c **** uint16_t GetEPTxCount(uint8_t bEpNum)
 561:lib/STM32_USB-FS-Device_Driver/src/usb_regs.c **** {
 562:lib/STM32_USB-FS-Device_Driver/src/usb_regs.c ****   return(_GetEPTxCount(bEpNum));
 563:lib/STM32_USB-FS-Device_Driver/src/usb_regs.c **** }
 564:lib/STM32_USB-FS-Device_Driver/src/usb_regs.c **** /*******************************************************************************
 565:lib/STM32_USB-FS-Device_Driver/src/usb_regs.c **** * Function Name  : GetEPRxCount
 566:lib/STM32_USB-FS-Device_Driver/src/usb_regs.c **** * Description    : Get the Rx count.
 567:lib/STM32_USB-FS-Device_Driver/src/usb_regs.c **** * Input          : bEpNum: Endpoint Number. 
 568:lib/STM32_USB-FS-Device_Driver/src/usb_regs.c **** * Output         : None.
 569:lib/STM32_USB-FS-Device_Driver/src/usb_regs.c **** * Return         : Rx count value.
 570:lib/STM32_USB-FS-Device_Driver/src/usb_regs.c **** *******************************************************************************/
 571:lib/STM32_USB-FS-Device_Driver/src/usb_regs.c **** uint16_t GetEPRxCount(uint8_t bEpNum)
 572:lib/STM32_USB-FS-Device_Driver/src/usb_regs.c **** {
 573:lib/STM32_USB-FS-Device_Driver/src/usb_regs.c ****   return(_GetEPRxCount(bEpNum));
 574:lib/STM32_USB-FS-Device_Driver/src/usb_regs.c **** }
 575:lib/STM32_USB-FS-Device_Driver/src/usb_regs.c **** /*******************************************************************************
 576:lib/STM32_USB-FS-Device_Driver/src/usb_regs.c **** * Function Name  : SetEPDblBuffAddr
 577:lib/STM32_USB-FS-Device_Driver/src/usb_regs.c **** * Description    : Set the addresses of the buffer 0 and 1.
 578:lib/STM32_USB-FS-Device_Driver/src/usb_regs.c **** * Input          : bEpNum: Endpoint Number.  
 579:lib/STM32_USB-FS-Device_Driver/src/usb_regs.c **** *                  wBuf0Addr: new address of buffer 0. 
 580:lib/STM32_USB-FS-Device_Driver/src/usb_regs.c **** *                  wBuf1Addr: new address of buffer 1.
 581:lib/STM32_USB-FS-Device_Driver/src/usb_regs.c **** * Output         : None.
 582:lib/STM32_USB-FS-Device_Driver/src/usb_regs.c **** * Return         : None.
 583:lib/STM32_USB-FS-Device_Driver/src/usb_regs.c **** *******************************************************************************/
 584:lib/STM32_USB-FS-Device_Driver/src/usb_regs.c **** void SetEPDblBuffAddr(uint8_t bEpNum, uint16_t wBuf0Addr, uint16_t wBuf1Addr)
 585:lib/STM32_USB-FS-Device_Driver/src/usb_regs.c **** {
 586:lib/STM32_USB-FS-Device_Driver/src/usb_regs.c ****   _SetEPDblBuffAddr(bEpNum, wBuf0Addr, wBuf1Addr);
 587:lib/STM32_USB-FS-Device_Driver/src/usb_regs.c **** }
 588:lib/STM32_USB-FS-Device_Driver/src/usb_regs.c **** /*******************************************************************************
 589:lib/STM32_USB-FS-Device_Driver/src/usb_regs.c **** * Function Name  : SetEPDblBuf0Addr
 590:lib/STM32_USB-FS-Device_Driver/src/usb_regs.c **** * Description    : Set the Buffer 1 address.
 591:lib/STM32_USB-FS-Device_Driver/src/usb_regs.c **** * Input          : bEpNum: Endpoint Number
 592:lib/STM32_USB-FS-Device_Driver/src/usb_regs.c **** *                  wBuf0Addr: new address.
 593:lib/STM32_USB-FS-Device_Driver/src/usb_regs.c **** * Output         : None.
 594:lib/STM32_USB-FS-Device_Driver/src/usb_regs.c **** * Return         : None.
 595:lib/STM32_USB-FS-Device_Driver/src/usb_regs.c **** *******************************************************************************/
 596:lib/STM32_USB-FS-Device_Driver/src/usb_regs.c **** void SetEPDblBuf0Addr(uint8_t bEpNum, uint16_t wBuf0Addr)
 597:lib/STM32_USB-FS-Device_Driver/src/usb_regs.c **** {
 598:lib/STM32_USB-FS-Device_Driver/src/usb_regs.c ****   _SetEPDblBuf0Addr(bEpNum, wBuf0Addr);
 599:lib/STM32_USB-FS-Device_Driver/src/usb_regs.c **** }
 600:lib/STM32_USB-FS-Device_Driver/src/usb_regs.c **** /*******************************************************************************
 601:lib/STM32_USB-FS-Device_Driver/src/usb_regs.c **** * Function Name  : SetEPDblBuf1Addr
 602:lib/STM32_USB-FS-Device_Driver/src/usb_regs.c **** * Description    : Set the Buffer 1 address.
 603:lib/STM32_USB-FS-Device_Driver/src/usb_regs.c **** * Input          : bEpNum: Endpoint Number
 604:lib/STM32_USB-FS-Device_Driver/src/usb_regs.c **** *                  wBuf1Addr: new address.
 605:lib/STM32_USB-FS-Device_Driver/src/usb_regs.c **** * Output         : None.
 606:lib/STM32_USB-FS-Device_Driver/src/usb_regs.c **** * Return         : None.
 607:lib/STM32_USB-FS-Device_Driver/src/usb_regs.c **** *******************************************************************************/
 608:lib/STM32_USB-FS-Device_Driver/src/usb_regs.c **** void SetEPDblBuf1Addr(uint8_t bEpNum, uint16_t wBuf1Addr)
 609:lib/STM32_USB-FS-Device_Driver/src/usb_regs.c **** {
 610:lib/STM32_USB-FS-Device_Driver/src/usb_regs.c ****   _SetEPDblBuf1Addr(bEpNum, wBuf1Addr);
 611:lib/STM32_USB-FS-Device_Driver/src/usb_regs.c **** }
 612:lib/STM32_USB-FS-Device_Driver/src/usb_regs.c **** /*******************************************************************************
 613:lib/STM32_USB-FS-Device_Driver/src/usb_regs.c **** * Function Name  : GetEPDblBuf0Addr
 614:lib/STM32_USB-FS-Device_Driver/src/usb_regs.c **** * Description    : Returns the address of the Buffer 0.
 615:lib/STM32_USB-FS-Device_Driver/src/usb_regs.c **** * Input          : bEpNum: Endpoint Number.
 616:lib/STM32_USB-FS-Device_Driver/src/usb_regs.c **** * Output         : None.
 617:lib/STM32_USB-FS-Device_Driver/src/usb_regs.c **** * Return         : None.
 618:lib/STM32_USB-FS-Device_Driver/src/usb_regs.c **** *******************************************************************************/
 619:lib/STM32_USB-FS-Device_Driver/src/usb_regs.c **** uint16_t GetEPDblBuf0Addr(uint8_t bEpNum)
 620:lib/STM32_USB-FS-Device_Driver/src/usb_regs.c **** {
 621:lib/STM32_USB-FS-Device_Driver/src/usb_regs.c ****   return(_GetEPDblBuf0Addr(bEpNum));
 622:lib/STM32_USB-FS-Device_Driver/src/usb_regs.c **** }
 623:lib/STM32_USB-FS-Device_Driver/src/usb_regs.c **** /*******************************************************************************
 624:lib/STM32_USB-FS-Device_Driver/src/usb_regs.c **** * Function Name  : GetEPDblBuf1Addr
 625:lib/STM32_USB-FS-Device_Driver/src/usb_regs.c **** * Description    : Returns the address of the Buffer 1.
 626:lib/STM32_USB-FS-Device_Driver/src/usb_regs.c **** * Input          : bEpNum: Endpoint Number.
 627:lib/STM32_USB-FS-Device_Driver/src/usb_regs.c **** * Output         : None.
 628:lib/STM32_USB-FS-Device_Driver/src/usb_regs.c **** * Return         : Address of the Buffer 1.
 629:lib/STM32_USB-FS-Device_Driver/src/usb_regs.c **** *******************************************************************************/
 630:lib/STM32_USB-FS-Device_Driver/src/usb_regs.c **** uint16_t GetEPDblBuf1Addr(uint8_t bEpNum)
 631:lib/STM32_USB-FS-Device_Driver/src/usb_regs.c **** {
 632:lib/STM32_USB-FS-Device_Driver/src/usb_regs.c ****   return(_GetEPDblBuf1Addr(bEpNum));
 633:lib/STM32_USB-FS-Device_Driver/src/usb_regs.c **** }
 634:lib/STM32_USB-FS-Device_Driver/src/usb_regs.c **** /*******************************************************************************
 635:lib/STM32_USB-FS-Device_Driver/src/usb_regs.c **** * Function Name  : SetEPDblBuffCount
 636:lib/STM32_USB-FS-Device_Driver/src/usb_regs.c **** * Description    : Set the number of bytes for a double Buffer 
 637:lib/STM32_USB-FS-Device_Driver/src/usb_regs.c **** *                  endpoint.
 638:lib/STM32_USB-FS-Device_Driver/src/usb_regs.c **** * Input          : bEpNum,bDir, wCount
 639:lib/STM32_USB-FS-Device_Driver/src/usb_regs.c **** * Output         : None.
 640:lib/STM32_USB-FS-Device_Driver/src/usb_regs.c **** * Return         : None.
 641:lib/STM32_USB-FS-Device_Driver/src/usb_regs.c **** *******************************************************************************/
 642:lib/STM32_USB-FS-Device_Driver/src/usb_regs.c **** void SetEPDblBuffCount(uint8_t bEpNum, uint8_t bDir, uint16_t wCount)
 643:lib/STM32_USB-FS-Device_Driver/src/usb_regs.c **** {
 644:lib/STM32_USB-FS-Device_Driver/src/usb_regs.c ****   _SetEPDblBuffCount(bEpNum, bDir, wCount);
 645:lib/STM32_USB-FS-Device_Driver/src/usb_regs.c **** }
 646:lib/STM32_USB-FS-Device_Driver/src/usb_regs.c **** /*******************************************************************************
 647:lib/STM32_USB-FS-Device_Driver/src/usb_regs.c **** * Function Name  : SetEPDblBuf0Count
 648:lib/STM32_USB-FS-Device_Driver/src/usb_regs.c **** * Description    : Set the number of bytes in the buffer 0 of a double Buffer 
 649:lib/STM32_USB-FS-Device_Driver/src/usb_regs.c **** *                  endpoint.
 650:lib/STM32_USB-FS-Device_Driver/src/usb_regs.c **** * Input          : bEpNum, bDir,  wCount
 651:lib/STM32_USB-FS-Device_Driver/src/usb_regs.c **** * Output         : None.
 652:lib/STM32_USB-FS-Device_Driver/src/usb_regs.c **** * Return         : None.
 653:lib/STM32_USB-FS-Device_Driver/src/usb_regs.c **** *******************************************************************************/
 654:lib/STM32_USB-FS-Device_Driver/src/usb_regs.c **** void SetEPDblBuf0Count(uint8_t bEpNum, uint8_t bDir, uint16_t wCount)
 655:lib/STM32_USB-FS-Device_Driver/src/usb_regs.c **** {
 656:lib/STM32_USB-FS-Device_Driver/src/usb_regs.c ****   _SetEPDblBuf0Count(bEpNum, bDir, wCount);
 657:lib/STM32_USB-FS-Device_Driver/src/usb_regs.c **** }
 658:lib/STM32_USB-FS-Device_Driver/src/usb_regs.c **** /*******************************************************************************
 659:lib/STM32_USB-FS-Device_Driver/src/usb_regs.c **** * Function Name  : SetEPDblBuf1Count
 660:lib/STM32_USB-FS-Device_Driver/src/usb_regs.c **** * Description    : Set the number of bytes in the buffer 0 of a double Buffer 
 661:lib/STM32_USB-FS-Device_Driver/src/usb_regs.c **** *                  endpoint.
 662:lib/STM32_USB-FS-Device_Driver/src/usb_regs.c **** * Input          : bEpNum,  bDir,  wCount
 663:lib/STM32_USB-FS-Device_Driver/src/usb_regs.c **** * Output         : None.
 664:lib/STM32_USB-FS-Device_Driver/src/usb_regs.c **** * Return         : None.
 665:lib/STM32_USB-FS-Device_Driver/src/usb_regs.c **** *******************************************************************************/
 666:lib/STM32_USB-FS-Device_Driver/src/usb_regs.c **** void SetEPDblBuf1Count(uint8_t bEpNum, uint8_t bDir, uint16_t wCount)
 667:lib/STM32_USB-FS-Device_Driver/src/usb_regs.c **** {
 668:lib/STM32_USB-FS-Device_Driver/src/usb_regs.c ****   _SetEPDblBuf1Count(bEpNum, bDir, wCount);
 669:lib/STM32_USB-FS-Device_Driver/src/usb_regs.c **** }
 670:lib/STM32_USB-FS-Device_Driver/src/usb_regs.c **** /*******************************************************************************
 671:lib/STM32_USB-FS-Device_Driver/src/usb_regs.c **** * Function Name  : GetEPDblBuf0Count
 672:lib/STM32_USB-FS-Device_Driver/src/usb_regs.c **** * Description    : Returns the number of byte received in the buffer 0 of a double
 673:lib/STM32_USB-FS-Device_Driver/src/usb_regs.c **** *                  Buffer endpoint.
 674:lib/STM32_USB-FS-Device_Driver/src/usb_regs.c **** * Input          : bEpNum: Endpoint Number.
 675:lib/STM32_USB-FS-Device_Driver/src/usb_regs.c **** * Output         : None.
 676:lib/STM32_USB-FS-Device_Driver/src/usb_regs.c **** * Return         : Endpoint Buffer 0 count
 677:lib/STM32_USB-FS-Device_Driver/src/usb_regs.c **** *******************************************************************************/
 678:lib/STM32_USB-FS-Device_Driver/src/usb_regs.c **** uint16_t GetEPDblBuf0Count(uint8_t bEpNum)
 679:lib/STM32_USB-FS-Device_Driver/src/usb_regs.c **** {
 680:lib/STM32_USB-FS-Device_Driver/src/usb_regs.c ****   return(_GetEPDblBuf0Count(bEpNum));
 681:lib/STM32_USB-FS-Device_Driver/src/usb_regs.c **** }
 682:lib/STM32_USB-FS-Device_Driver/src/usb_regs.c **** /*******************************************************************************
 683:lib/STM32_USB-FS-Device_Driver/src/usb_regs.c **** * Function Name  : GetEPDblBuf1Count
 684:lib/STM32_USB-FS-Device_Driver/src/usb_regs.c **** * Description    : Returns the number of data received in the buffer 1 of a double
 685:lib/STM32_USB-FS-Device_Driver/src/usb_regs.c **** *                  Buffer endpoint.
 686:lib/STM32_USB-FS-Device_Driver/src/usb_regs.c **** * Input          : bEpNum: Endpoint Number.
 687:lib/STM32_USB-FS-Device_Driver/src/usb_regs.c **** * Output         : None.
 688:lib/STM32_USB-FS-Device_Driver/src/usb_regs.c **** * Return         : Endpoint Buffer 1 count.
 689:lib/STM32_USB-FS-Device_Driver/src/usb_regs.c **** *******************************************************************************/
 690:lib/STM32_USB-FS-Device_Driver/src/usb_regs.c **** uint16_t GetEPDblBuf1Count(uint8_t bEpNum)
 691:lib/STM32_USB-FS-Device_Driver/src/usb_regs.c **** {
 692:lib/STM32_USB-FS-Device_Driver/src/usb_regs.c ****   return(_GetEPDblBuf1Count(bEpNum));
 693:lib/STM32_USB-FS-Device_Driver/src/usb_regs.c **** }
 694:lib/STM32_USB-FS-Device_Driver/src/usb_regs.c **** /*******************************************************************************
 695:lib/STM32_USB-FS-Device_Driver/src/usb_regs.c **** * Function Name  : GetEPDblBufDir
 696:lib/STM32_USB-FS-Device_Driver/src/usb_regs.c **** * Description    : gets direction of the double buffered endpoint
 697:lib/STM32_USB-FS-Device_Driver/src/usb_regs.c **** * Input          : bEpNum: Endpoint Number. 
 698:lib/STM32_USB-FS-Device_Driver/src/usb_regs.c **** * Output         : None.
 699:lib/STM32_USB-FS-Device_Driver/src/usb_regs.c **** * Return         : EP_DBUF_OUT, EP_DBUF_IN,
 700:lib/STM32_USB-FS-Device_Driver/src/usb_regs.c **** *                  EP_DBUF_ERR if the endpoint counter not yet programmed.
 701:lib/STM32_USB-FS-Device_Driver/src/usb_regs.c **** *******************************************************************************/
 702:lib/STM32_USB-FS-Device_Driver/src/usb_regs.c **** EP_DBUF_DIR GetEPDblBufDir(uint8_t bEpNum)
 703:lib/STM32_USB-FS-Device_Driver/src/usb_regs.c **** {
 704:lib/STM32_USB-FS-Device_Driver/src/usb_regs.c ****   if ((uint16_t)(*_pEPRxCount(bEpNum) & 0xFC00) != 0)
 705:lib/STM32_USB-FS-Device_Driver/src/usb_regs.c ****     return(EP_DBUF_OUT);
 706:lib/STM32_USB-FS-Device_Driver/src/usb_regs.c ****   else if (((uint16_t)(*_pEPTxCount(bEpNum)) & 0x03FF) != 0)
 707:lib/STM32_USB-FS-Device_Driver/src/usb_regs.c ****     return(EP_DBUF_IN);
 708:lib/STM32_USB-FS-Device_Driver/src/usb_regs.c ****   else
 709:lib/STM32_USB-FS-Device_Driver/src/usb_regs.c ****     return(EP_DBUF_ERR);
 710:lib/STM32_USB-FS-Device_Driver/src/usb_regs.c **** }
 711:lib/STM32_USB-FS-Device_Driver/src/usb_regs.c **** /*******************************************************************************
 712:lib/STM32_USB-FS-Device_Driver/src/usb_regs.c **** * Function Name  : FreeUserBuffer
 713:lib/STM32_USB-FS-Device_Driver/src/usb_regs.c **** * Description    : free buffer used from the application realizing it to the line
 714:lib/STM32_USB-FS-Device_Driver/src/usb_regs.c ****                    toggles bit SW_BUF in the double buffered endpoint register
 715:lib/STM32_USB-FS-Device_Driver/src/usb_regs.c **** * Input          : bEpNum, bDir
 716:lib/STM32_USB-FS-Device_Driver/src/usb_regs.c **** * Output         : None.
 717:lib/STM32_USB-FS-Device_Driver/src/usb_regs.c **** * Return         : None.
 718:lib/STM32_USB-FS-Device_Driver/src/usb_regs.c **** *******************************************************************************/
 719:lib/STM32_USB-FS-Device_Driver/src/usb_regs.c **** void FreeUserBuffer(uint8_t bEpNum, uint8_t bDir)
 720:lib/STM32_USB-FS-Device_Driver/src/usb_regs.c **** {
 721:lib/STM32_USB-FS-Device_Driver/src/usb_regs.c ****   if (bDir == EP_DBUF_OUT)
 722:lib/STM32_USB-FS-Device_Driver/src/usb_regs.c ****   { /* OUT double buffered endpoint */
 723:lib/STM32_USB-FS-Device_Driver/src/usb_regs.c ****     _ToggleDTOG_TX(bEpNum);
 724:lib/STM32_USB-FS-Device_Driver/src/usb_regs.c ****   }
 725:lib/STM32_USB-FS-Device_Driver/src/usb_regs.c ****   else if (bDir == EP_DBUF_IN)
 726:lib/STM32_USB-FS-Device_Driver/src/usb_regs.c ****   { /* IN double buffered endpoint */
 727:lib/STM32_USB-FS-Device_Driver/src/usb_regs.c ****     _ToggleDTOG_RX(bEpNum);
 728:lib/STM32_USB-FS-Device_Driver/src/usb_regs.c ****   }
 729:lib/STM32_USB-FS-Device_Driver/src/usb_regs.c **** }
 730:lib/STM32_USB-FS-Device_Driver/src/usb_regs.c **** 
 731:lib/STM32_USB-FS-Device_Driver/src/usb_regs.c **** /*******************************************************************************
 732:lib/STM32_USB-FS-Device_Driver/src/usb_regs.c **** * Function Name  : ToWord
 733:lib/STM32_USB-FS-Device_Driver/src/usb_regs.c **** * Description    : merge two byte in a word.
 734:lib/STM32_USB-FS-Device_Driver/src/usb_regs.c **** * Input          : bh: byte high, bl: bytes low.
 735:lib/STM32_USB-FS-Device_Driver/src/usb_regs.c **** * Output         : None.
 736:lib/STM32_USB-FS-Device_Driver/src/usb_regs.c **** * Return         : resulted word.
 737:lib/STM32_USB-FS-Device_Driver/src/usb_regs.c **** *******************************************************************************/
 738:lib/STM32_USB-FS-Device_Driver/src/usb_regs.c **** uint16_t ToWord(uint8_t bh, uint8_t bl)
 739:lib/STM32_USB-FS-Device_Driver/src/usb_regs.c **** {
 740:lib/STM32_USB-FS-Device_Driver/src/usb_regs.c ****   uint16_t wRet;
 741:lib/STM32_USB-FS-Device_Driver/src/usb_regs.c ****   wRet = (uint16_t)bl | ((uint16_t)bh << 8);
 742:lib/STM32_USB-FS-Device_Driver/src/usb_regs.c ****   return(wRet);
 743:lib/STM32_USB-FS-Device_Driver/src/usb_regs.c **** }
 744:lib/STM32_USB-FS-Device_Driver/src/usb_regs.c **** /*******************************************************************************
 745:lib/STM32_USB-FS-Device_Driver/src/usb_regs.c **** * Function Name  : ByteSwap
 746:lib/STM32_USB-FS-Device_Driver/src/usb_regs.c **** * Description    : Swap two byte in a word.
 747:lib/STM32_USB-FS-Device_Driver/src/usb_regs.c **** * Input          : wSwW: word to Swap.
 748:lib/STM32_USB-FS-Device_Driver/src/usb_regs.c **** * Output         : None.
 749:lib/STM32_USB-FS-Device_Driver/src/usb_regs.c **** * Return         : resulted word.
 750:lib/STM32_USB-FS-Device_Driver/src/usb_regs.c **** *******************************************************************************/
 751:lib/STM32_USB-FS-Device_Driver/src/usb_regs.c **** uint16_t ByteSwap(uint16_t wSwW)
 752:lib/STM32_USB-FS-Device_Driver/src/usb_regs.c **** {
 753:lib/STM32_USB-FS-Device_Driver/src/usb_regs.c ****   uint8_t bTemp;
 754:lib/STM32_USB-FS-Device_Driver/src/usb_regs.c ****   uint16_t wRet;
 755:lib/STM32_USB-FS-Device_Driver/src/usb_regs.c ****   bTemp = (uint8_t)(wSwW & 0xff);
 756:lib/STM32_USB-FS-Device_Driver/src/usb_regs.c ****   wRet =  (wSwW >> 8) | ((uint16_t)bTemp << 8);
 757:lib/STM32_USB-FS-Device_Driver/src/usb_regs.c ****   return(wRet);
 758:lib/STM32_USB-FS-Device_Driver/src/usb_regs.c **** }
 1115              		.loc 1 758 0
 1116 0004 93B2     		uxth	r3, r2
 481:lib/STM32_USB-FS-Device_Driver/src/usb_regs.c ****   _SetEPTxAddr(bEpNum, wAddr);
 1117              		.loc 1 481 0
 1118 0006 03EBC000 		add	r0, r3, r0, lsl #3
 1119              	.LVL78:
 1120 000a 00F10052 		add	r2, r0, #536870912
 1121 000e 02F54053 		add	r3, r2, #12288
 1122 0012 5800     		lsls	r0, r3, #1
 1123 0014 4908     		lsrs	r1, r1, #1
 1124              	.LVL79:
 1125 0016 4A00     		lsls	r2, r1, #1
 1126 0018 0260     		str	r2, [r0, #0]
 1127 001a 7047     		bx	lr
 1128              	.L81:
 1129              		.align	2
 1130              	.L80:
 1131 001c 505C0040 		.word	1073765456
 1132              		.cfi_endproc
 1133              	.LFE93:
 1135              		.section	.text.SetEPRxAddr,"ax",%progbits
 1136              		.align	1
 1137              		.global	SetEPRxAddr
 1138              		.thumb
 1139              		.thumb_func
 1141              	SetEPRxAddr:
 1142              	.LFB94:
 492:lib/STM32_USB-FS-Device_Driver/src/usb_regs.c **** {
 1143              		.loc 1 492 0
 1144              		.cfi_startproc
 1145              		@ args = 0, pretend = 0, frame = 0
 1146              		@ frame_needed = 0, uses_anonymous_args = 0
 1147              		@ link register save eliminated.
 1148              	.LVL80:
 493:lib/STM32_USB-FS-Device_Driver/src/usb_regs.c ****   _SetEPRxAddr(bEpNum, wAddr);
 1149              		.loc 1 493 0
 1150 0000 054B     		ldr	r3, .L83
 1151 0002 1A68     		ldr	r2, [r3, #0]
 1152              		.loc 1 758 0
 1153 0004 93B2     		uxth	r3, r2
 493:lib/STM32_USB-FS-Device_Driver/src/usb_regs.c ****   _SetEPRxAddr(bEpNum, wAddr);
 1154              		.loc 1 493 0
 1155 0006 03EBC000 		add	r0, r3, r0, lsl #3
 1156              	.LVL81:
 1157 000a 044A     		ldr	r2, .L83+4
 1158 000c 8318     		adds	r3, r0, r2
 1159 000e 5800     		lsls	r0, r3, #1
 1160 0010 4908     		lsrs	r1, r1, #1
 1161              	.LVL82:
 1162 0012 4A00     		lsls	r2, r1, #1
 1163 0014 0260     		str	r2, [r0, #0]
 1164 0016 7047     		bx	lr
 1165              	.L84:
 1166              		.align	2
 1167              	.L83:
 1168 0018 505C0040 		.word	1073765456
 1169 001c 04300020 		.word	536883204
 1170              		.cfi_endproc
 1171              	.LFE94:
 1173              		.section	.text.GetEPTxAddr,"ax",%progbits
 1174              		.align	1
 1175              		.global	GetEPTxAddr
 1176              		.thumb
 1177              		.thumb_func
 1179              	GetEPTxAddr:
 1180              	.LFB95:
 503:lib/STM32_USB-FS-Device_Driver/src/usb_regs.c **** {
 1181              		.loc 1 503 0
 1182              		.cfi_startproc
 1183              		@ args = 0, pretend = 0, frame = 0
 1184              		@ frame_needed = 0, uses_anonymous_args = 0
 1185              		@ link register save eliminated.
 1186              	.LVL83:
 504:lib/STM32_USB-FS-Device_Driver/src/usb_regs.c ****   return(_GetEPTxAddr(bEpNum));
 1187              		.loc 1 504 0
 1188 0000 054B     		ldr	r3, .L86
 1189 0002 1968     		ldr	r1, [r3, #0]
 1190              		.loc 1 758 0
 1191 0004 8AB2     		uxth	r2, r1
 504:lib/STM32_USB-FS-Device_Driver/src/usb_regs.c ****   return(_GetEPTxAddr(bEpNum));
 1192              		.loc 1 504 0
 1193 0006 02EBC000 		add	r0, r2, r0, lsl #3
 1194              	.LVL84:
 1195 000a 00F10053 		add	r3, r0, #536870912
 1196 000e 03F54051 		add	r1, r3, #12288
 1197 0012 4A00     		lsls	r2, r1, #1
 505:lib/STM32_USB-FS-Device_Driver/src/usb_regs.c **** }
 1198              		.loc 1 505 0
 1199 0014 1088     		ldrh	r0, [r2, #0]
 1200 0016 7047     		bx	lr
 1201              	.L87:
 1202              		.align	2
 1203              	.L86:
 1204 0018 505C0040 		.word	1073765456
 1205              		.cfi_endproc
 1206              	.LFE95:
 1208              		.section	.text.GetEPRxAddr,"ax",%progbits
 1209              		.align	1
 1210              		.global	GetEPRxAddr
 1211              		.thumb
 1212              		.thumb_func
 1214              	GetEPRxAddr:
 1215              	.LFB96:
 514:lib/STM32_USB-FS-Device_Driver/src/usb_regs.c **** {
 1216              		.loc 1 514 0
 1217              		.cfi_startproc
 1218              		@ args = 0, pretend = 0, frame = 0
 1219              		@ frame_needed = 0, uses_anonymous_args = 0
 1220              		@ link register save eliminated.
 1221              	.LVL85:
 515:lib/STM32_USB-FS-Device_Driver/src/usb_regs.c ****   return(_GetEPRxAddr(bEpNum));
 1222              		.loc 1 515 0
 1223 0000 044B     		ldr	r3, .L89
 1224 0002 1968     		ldr	r1, [r3, #0]
 1225              		.loc 1 758 0
 1226 0004 8AB2     		uxth	r2, r1
 515:lib/STM32_USB-FS-Device_Driver/src/usb_regs.c ****   return(_GetEPRxAddr(bEpNum));
 1227              		.loc 1 515 0
 1228 0006 02EBC000 		add	r0, r2, r0, lsl #3
 1229              	.LVL86:
 1230 000a 034B     		ldr	r3, .L89+4
 1231 000c C118     		adds	r1, r0, r3
 1232 000e 4A00     		lsls	r2, r1, #1
 516:lib/STM32_USB-FS-Device_Driver/src/usb_regs.c **** }
 1233              		.loc 1 516 0
 1234 0010 1088     		ldrh	r0, [r2, #0]
 1235 0012 7047     		bx	lr
 1236              	.L90:
 1237              		.align	2
 1238              	.L89:
 1239 0014 505C0040 		.word	1073765456
 1240 0018 04300020 		.word	536883204
 1241              		.cfi_endproc
 1242              	.LFE96:
 1244              		.section	.text.SetEPTxCount,"ax",%progbits
 1245              		.align	1
 1246              		.global	SetEPTxCount
 1247              		.thumb
 1248              		.thumb_func
 1250              	SetEPTxCount:
 1251              	.LFB97:
 526:lib/STM32_USB-FS-Device_Driver/src/usb_regs.c **** {
 1252              		.loc 1 526 0
 1253              		.cfi_startproc
 1254              		@ args = 0, pretend = 0, frame = 0
 1255              		@ frame_needed = 0, uses_anonymous_args = 0
 1256              		@ link register save eliminated.
 1257              	.LVL87:
 527:lib/STM32_USB-FS-Device_Driver/src/usb_regs.c ****   _SetEPTxCount(bEpNum, wCount);
 1258              		.loc 1 527 0
 1259 0000 044B     		ldr	r3, .L92
 1260 0002 1A68     		ldr	r2, [r3, #0]
 1261              		.loc 1 758 0
 1262 0004 93B2     		uxth	r3, r2
 527:lib/STM32_USB-FS-Device_Driver/src/usb_regs.c ****   _SetEPTxCount(bEpNum, wCount);
 1263              		.loc 1 527 0
 1264 0006 03EBC000 		add	r0, r3, r0, lsl #3
 1265              	.LVL88:
 1266 000a 034A     		ldr	r2, .L92+4
 1267 000c 8318     		adds	r3, r0, r2
 1268 000e 5800     		lsls	r0, r3, #1
 1269 0010 0160     		str	r1, [r0, #0]
 1270 0012 7047     		bx	lr
 1271              	.L93:
 1272              		.align	2
 1273              	.L92:
 1274 0014 505C0040 		.word	1073765456
 1275 0018 02300020 		.word	536883202
 1276              		.cfi_endproc
 1277              	.LFE97:
 1279              		.section	.text.SetEPCountRxReg,"ax",%progbits
 1280              		.align	1
 1281              		.global	SetEPCountRxReg
 1282              		.thumb
 1283              		.thumb_func
 1285              	SetEPCountRxReg:
 1286              	.LFB98:
 538:lib/STM32_USB-FS-Device_Driver/src/usb_regs.c **** {
 1287              		.loc 1 538 0
 1288              		.cfi_startproc
 1289              		@ args = 0, pretend = 0, frame = 0
 1290              		@ frame_needed = 0, uses_anonymous_args = 0
 1291              		@ link register save eliminated.
 1292              	.LVL89:
 1293              	.LBB10:
 539:lib/STM32_USB-FS-Device_Driver/src/usb_regs.c ****   _SetEPCountRxReg(dwReg, wCount);
 1294              		.loc 1 539 0
 1295 0000 3E29     		cmp	r1, #62
 1296 0002 08D9     		bls	.L95
 539:lib/STM32_USB-FS-Device_Driver/src/usb_regs.c ****   _SetEPCountRxReg(dwReg, wCount);
 1297              		.loc 1 539 0 is_stmt 0 discriminator 1
 1298 0004 4B09     		lsrs	r3, r1, #5
 1299              	.LVL90:
 1300 0006 C906     		lsls	r1, r1, #27
 1301              	.LVL91:
 1302 0008 01D1     		bne	.L96
 539:lib/STM32_USB-FS-Device_Driver/src/usb_regs.c ****   _SetEPCountRxReg(dwReg, wCount);
 1303              		.loc 1 539 0 discriminator 3
 1304 000a 5A1E     		subs	r2, r3, #1
 1305 000c 93B2     		uxth	r3, r2
 1306              	.LVL92:
 1307              	.L96:
 539:lib/STM32_USB-FS-Device_Driver/src/usb_regs.c ****   _SetEPCountRxReg(dwReg, wCount);
 1308              		.loc 1 539 0 discriminator 4
 1309 000e 9902     		lsls	r1, r3, #10
 1310 0010 41F40041 		orr	r1, r1, #32768
 1311 0014 04E0     		b	.L102
 1312              	.LVL93:
 1313              	.L95:
 539:lib/STM32_USB-FS-Device_Driver/src/usb_regs.c ****   _SetEPCountRxReg(dwReg, wCount);
 1314              		.loc 1 539 0 discriminator 2
 1315 0016 4B08     		lsrs	r3, r1, #1
 1316              	.LVL94:
 1317 0018 CA07     		lsls	r2, r1, #31
 1318 001a 48BF     		it	mi
 1319 001c 0133     		addmi	r3, r3, #1
 1320              	.LVL95:
 1321 001e 9902     		lsls	r1, r3, #10
 1322              	.LVL96:
 1323              	.L102:
 539:lib/STM32_USB-FS-Device_Driver/src/usb_regs.c ****   _SetEPCountRxReg(dwReg, wCount);
 1324              		.loc 1 539 0 discriminator 6
 1325 0020 0160     		str	r1, [r0, #0]
 1326 0022 7047     		bx	lr
 1327              	.LBE10:
 1328              		.cfi_endproc
 1329              	.LFE98:
 1331              		.section	.text.SetEPRxCount,"ax",%progbits
 1332              		.align	1
 1333              		.global	SetEPRxCount
 1334              		.thumb
 1335              		.thumb_func
 1337              	SetEPRxCount:
 1338              	.LFB99:
 550:lib/STM32_USB-FS-Device_Driver/src/usb_regs.c **** {
 1339              		.loc 1 550 0 is_stmt 1
 1340              		.cfi_startproc
 1341              		@ args = 0, pretend = 0, frame = 0
 1342              		@ frame_needed = 0, uses_anonymous_args = 0
 1343              		@ link register save eliminated.
 1344              	.LVL97:
 1345              	.LBB11:
 551:lib/STM32_USB-FS-Device_Driver/src/usb_regs.c ****   _SetEPRxCount(bEpNum, wCount);
 1346              		.loc 1 551 0
 1347 0000 0C4B     		ldr	r3, .L112
 1348 0002 1A68     		ldr	r2, [r3, #0]
 1349              		.loc 1 758 0
 1350 0004 93B2     		uxth	r3, r2
 551:lib/STM32_USB-FS-Device_Driver/src/usb_regs.c ****   _SetEPRxCount(bEpNum, wCount);
 1351              		.loc 1 551 0
 1352 0006 03EBC000 		add	r0, r3, r0, lsl #3
 1353              	.LVL98:
 1354 000a 0B4A     		ldr	r2, .L112+4
 1355 000c 8318     		adds	r3, r0, r2
 1356 000e 5A00     		lsls	r2, r3, #1
 1357              	.LVL99:
 1358              	.LBB12:
 1359 0010 3E29     		cmp	r1, #62
 1360 0012 08D9     		bls	.L104
 551:lib/STM32_USB-FS-Device_Driver/src/usb_regs.c ****   _SetEPRxCount(bEpNum, wCount);
 1361              		.loc 1 551 0 is_stmt 0 discriminator 1
 1362 0014 4B09     		lsrs	r3, r1, #5
 1363              	.LVL100:
 1364 0016 C906     		lsls	r1, r1, #27
 1365              	.LVL101:
 1366 0018 01D1     		bne	.L105
 551:lib/STM32_USB-FS-Device_Driver/src/usb_regs.c ****   _SetEPRxCount(bEpNum, wCount);
 1367              		.loc 1 551 0 discriminator 3
 1368 001a 581E     		subs	r0, r3, #1
 1369 001c 83B2     		uxth	r3, r0
 1370              	.LVL102:
 1371              	.L105:
 551:lib/STM32_USB-FS-Device_Driver/src/usb_regs.c ****   _SetEPRxCount(bEpNum, wCount);
 1372              		.loc 1 551 0 discriminator 4
 1373 001e 9902     		lsls	r1, r3, #10
 1374 0020 41F40041 		orr	r1, r1, #32768
 1375 0024 04E0     		b	.L111
 1376              	.LVL103:
 1377              	.L104:
 551:lib/STM32_USB-FS-Device_Driver/src/usb_regs.c ****   _SetEPRxCount(bEpNum, wCount);
 1378              		.loc 1 551 0 discriminator 2
 1379 0026 4B08     		lsrs	r3, r1, #1
 1380              	.LVL104:
 1381 0028 C807     		lsls	r0, r1, #31
 1382 002a 48BF     		it	mi
 1383 002c 0133     		addmi	r3, r3, #1
 1384              	.LVL105:
 1385 002e 9902     		lsls	r1, r3, #10
 1386              	.LVL106:
 1387              	.L111:
 551:lib/STM32_USB-FS-Device_Driver/src/usb_regs.c ****   _SetEPRxCount(bEpNum, wCount);
 1388              		.loc 1 551 0 discriminator 6
 1389 0030 1160     		str	r1, [r2, #0]
 1390 0032 7047     		bx	lr
 1391              	.L113:
 1392              		.align	2
 1393              	.L112:
 1394 0034 505C0040 		.word	1073765456
 1395 0038 06300020 		.word	536883206
 1396              	.LBE12:
 1397              	.LBE11:
 1398              		.cfi_endproc
 1399              	.LFE99:
 1401              		.section	.text.GetEPTxCount,"ax",%progbits
 1402              		.align	1
 1403              		.global	GetEPTxCount
 1404              		.thumb
 1405              		.thumb_func
 1407              	GetEPTxCount:
 1408              	.LFB100:
 561:lib/STM32_USB-FS-Device_Driver/src/usb_regs.c **** {
 1409              		.loc 1 561 0 is_stmt 1
 1410              		.cfi_startproc
 1411              		@ args = 0, pretend = 0, frame = 0
 1412              		@ frame_needed = 0, uses_anonymous_args = 0
 1413              		@ link register save eliminated.
 1414              	.LVL107:
 562:lib/STM32_USB-FS-Device_Driver/src/usb_regs.c ****   return(_GetEPTxCount(bEpNum));
 1415              		.loc 1 562 0
 1416 0000 054B     		ldr	r3, .L115
 1417 0002 1968     		ldr	r1, [r3, #0]
 1418              		.loc 1 758 0
 1419 0004 8AB2     		uxth	r2, r1
 562:lib/STM32_USB-FS-Device_Driver/src/usb_regs.c ****   return(_GetEPTxCount(bEpNum));
 1420              		.loc 1 562 0
 1421 0006 02EBC000 		add	r0, r2, r0, lsl #3
 1422              	.LVL108:
 1423 000a 044B     		ldr	r3, .L115+4
 1424 000c C118     		adds	r1, r0, r3
 1425 000e 4A00     		lsls	r2, r1, #1
 1426 0010 1068     		ldr	r0, [r2, #0]
 1427 0012 8305     		lsls	r3, r0, #22
 563:lib/STM32_USB-FS-Device_Driver/src/usb_regs.c **** }
 1428              		.loc 1 563 0
 1429 0014 980D     		lsrs	r0, r3, #22
 1430 0016 7047     		bx	lr
 1431              	.L116:
 1432              		.align	2
 1433              	.L115:
 1434 0018 505C0040 		.word	1073765456
 1435 001c 02300020 		.word	536883202
 1436              		.cfi_endproc
 1437              	.LFE100:
 1439              		.section	.text.GetEPRxCount,"ax",%progbits
 1440              		.align	1
 1441              		.global	GetEPRxCount
 1442              		.thumb
 1443              		.thumb_func
 1445              	GetEPRxCount:
 1446              	.LFB101:
 572:lib/STM32_USB-FS-Device_Driver/src/usb_regs.c **** {
 1447              		.loc 1 572 0
 1448              		.cfi_startproc
 1449              		@ args = 0, pretend = 0, frame = 0
 1450              		@ frame_needed = 0, uses_anonymous_args = 0
 1451              		@ link register save eliminated.
 1452              	.LVL109:
 573:lib/STM32_USB-FS-Device_Driver/src/usb_regs.c ****   return(_GetEPRxCount(bEpNum));
 1453              		.loc 1 573 0
 1454 0000 054B     		ldr	r3, .L118
 1455 0002 1968     		ldr	r1, [r3, #0]
 1456              		.loc 1 758 0
 1457 0004 8AB2     		uxth	r2, r1
 573:lib/STM32_USB-FS-Device_Driver/src/usb_regs.c ****   return(_GetEPRxCount(bEpNum));
 1458              		.loc 1 573 0
 1459 0006 02EBC000 		add	r0, r2, r0, lsl #3
 1460              	.LVL110:
 1461 000a 044B     		ldr	r3, .L118+4
 1462 000c C118     		adds	r1, r0, r3
 1463 000e 4A00     		lsls	r2, r1, #1
 1464 0010 1068     		ldr	r0, [r2, #0]
 1465 0012 8305     		lsls	r3, r0, #22
 574:lib/STM32_USB-FS-Device_Driver/src/usb_regs.c **** }
 1466              		.loc 1 574 0
 1467 0014 980D     		lsrs	r0, r3, #22
 1468 0016 7047     		bx	lr
 1469              	.L119:
 1470              		.align	2
 1471              	.L118:
 1472 0018 505C0040 		.word	1073765456
 1473 001c 06300020 		.word	536883206
 1474              		.cfi_endproc
 1475              	.LFE101:
 1477              		.section	.text.SetEPDblBuffAddr,"ax",%progbits
 1478              		.align	1
 1479              		.global	SetEPDblBuffAddr
 1480              		.thumb
 1481              		.thumb_func
 1483              	SetEPDblBuffAddr:
 1484              	.LFB102:
 585:lib/STM32_USB-FS-Device_Driver/src/usb_regs.c **** {
 1485              		.loc 1 585 0
 1486              		.cfi_startproc
 1487              		@ args = 0, pretend = 0, frame = 0
 1488              		@ frame_needed = 0, uses_anonymous_args = 0
 1489              	.LVL111:
 1490 0000 10B5     		push	{r4, lr}
 1491              	.LCFI0:
 1492              		.cfi_def_cfa_offset 8
 1493              		.cfi_offset 4, -8
 1494              		.cfi_offset 14, -4
 586:lib/STM32_USB-FS-Device_Driver/src/usb_regs.c ****   _SetEPDblBuffAddr(bEpNum, wBuf0Addr, wBuf1Addr);
 1495              		.loc 1 586 0
 1496 0002 0B4B     		ldr	r3, .L121
 1497 0004 1C68     		ldr	r4, [r3, #0]
 1498 0006 C000     		lsls	r0, r0, #3
 1499              	.LVL112:
 1500              		.loc 1 758 0
 1501 0008 A4B2     		uxth	r4, r4
 586:lib/STM32_USB-FS-Device_Driver/src/usb_regs.c ****   _SetEPDblBuffAddr(bEpNum, wBuf0Addr, wBuf1Addr);
 1502              		.loc 1 586 0
 1503 000a 0419     		adds	r4, r0, r4
 1504 000c 04F10054 		add	r4, r4, #536870912
 1505 0010 04F54054 		add	r4, r4, #12288
 1506 0014 6400     		lsls	r4, r4, #1
 1507 0016 4908     		lsrs	r1, r1, #1
 1508              	.LVL113:
 1509 0018 4900     		lsls	r1, r1, #1
 1510 001a 2160     		str	r1, [r4, #0]
 1511 001c 1B68     		ldr	r3, [r3, #0]
 1512              		.loc 1 758 0
 1513 001e 99B2     		uxth	r1, r3
 586:lib/STM32_USB-FS-Device_Driver/src/usb_regs.c ****   _SetEPDblBuffAddr(bEpNum, wBuf0Addr, wBuf1Addr);
 1514              		.loc 1 586 0
 1515 0020 4018     		adds	r0, r0, r1
 1516 0022 044B     		ldr	r3, .L121+4
 1517 0024 C118     		adds	r1, r0, r3
 1518 0026 4800     		lsls	r0, r1, #1
 1519 0028 5208     		lsrs	r2, r2, #1
 1520              	.LVL114:
 1521 002a 5300     		lsls	r3, r2, #1
 1522 002c 0360     		str	r3, [r0, #0]
 1523 002e 10BD     		pop	{r4, pc}
 1524              	.L122:
 1525              		.align	2
 1526              	.L121:
 1527 0030 505C0040 		.word	1073765456
 1528 0034 04300020 		.word	536883204
 1529              		.cfi_endproc
 1530              	.LFE102:
 1532              		.section	.text.SetEPDblBuf0Addr,"ax",%progbits
 1533              		.align	1
 1534              		.global	SetEPDblBuf0Addr
 1535              		.thumb
 1536              		.thumb_func
 1538              	SetEPDblBuf0Addr:
 1539              	.LFB103:
 597:lib/STM32_USB-FS-Device_Driver/src/usb_regs.c **** {
 1540              		.loc 1 597 0
 1541              		.cfi_startproc
 1542              		@ args = 0, pretend = 0, frame = 0
 1543              		@ frame_needed = 0, uses_anonymous_args = 0
 1544              		@ link register save eliminated.
 1545              	.LVL115:
 598:lib/STM32_USB-FS-Device_Driver/src/usb_regs.c ****   _SetEPDblBuf0Addr(bEpNum, wBuf0Addr);
 1546              		.loc 1 598 0
 1547 0000 064B     		ldr	r3, .L124
 1548 0002 1A68     		ldr	r2, [r3, #0]
 1549              		.loc 1 758 0
 1550 0004 93B2     		uxth	r3, r2
 598:lib/STM32_USB-FS-Device_Driver/src/usb_regs.c ****   _SetEPDblBuf0Addr(bEpNum, wBuf0Addr);
 1551              		.loc 1 598 0
 1552 0006 03EBC000 		add	r0, r3, r0, lsl #3
 1553              	.LVL116:
 1554 000a 00F10052 		add	r2, r0, #536870912
 1555 000e 02F54053 		add	r3, r2, #12288
 1556 0012 5800     		lsls	r0, r3, #1
 1557 0014 4908     		lsrs	r1, r1, #1
 1558              	.LVL117:
 1559 0016 4A00     		lsls	r2, r1, #1
 1560 0018 0260     		str	r2, [r0, #0]
 1561 001a 7047     		bx	lr
 1562              	.L125:
 1563              		.align	2
 1564              	.L124:
 1565 001c 505C0040 		.word	1073765456
 1566              		.cfi_endproc
 1567              	.LFE103:
 1569              		.section	.text.SetEPDblBuf1Addr,"ax",%progbits
 1570              		.align	1
 1571              		.global	SetEPDblBuf1Addr
 1572              		.thumb
 1573              		.thumb_func
 1575              	SetEPDblBuf1Addr:
 1576              	.LFB104:
 609:lib/STM32_USB-FS-Device_Driver/src/usb_regs.c **** {
 1577              		.loc 1 609 0
 1578              		.cfi_startproc
 1579              		@ args = 0, pretend = 0, frame = 0
 1580              		@ frame_needed = 0, uses_anonymous_args = 0
 1581              		@ link register save eliminated.
 1582              	.LVL118:
 610:lib/STM32_USB-FS-Device_Driver/src/usb_regs.c ****   _SetEPDblBuf1Addr(bEpNum, wBuf1Addr);
 1583              		.loc 1 610 0
 1584 0000 054B     		ldr	r3, .L127
 1585 0002 1A68     		ldr	r2, [r3, #0]
 1586              		.loc 1 758 0
 1587 0004 93B2     		uxth	r3, r2
 610:lib/STM32_USB-FS-Device_Driver/src/usb_regs.c ****   _SetEPDblBuf1Addr(bEpNum, wBuf1Addr);
 1588              		.loc 1 610 0
 1589 0006 03EBC000 		add	r0, r3, r0, lsl #3
 1590              	.LVL119:
 1591 000a 044A     		ldr	r2, .L127+4
 1592 000c 8318     		adds	r3, r0, r2
 1593 000e 5800     		lsls	r0, r3, #1
 1594 0010 4908     		lsrs	r1, r1, #1
 1595              	.LVL120:
 1596 0012 4A00     		lsls	r2, r1, #1
 1597 0014 0260     		str	r2, [r0, #0]
 1598 0016 7047     		bx	lr
 1599              	.L128:
 1600              		.align	2
 1601              	.L127:
 1602 0018 505C0040 		.word	1073765456
 1603 001c 04300020 		.word	536883204
 1604              		.cfi_endproc
 1605              	.LFE104:
 1607              		.section	.text.GetEPDblBuf0Addr,"ax",%progbits
 1608              		.align	1
 1609              		.global	GetEPDblBuf0Addr
 1610              		.thumb
 1611              		.thumb_func
 1613              	GetEPDblBuf0Addr:
 1614              	.LFB105:
 620:lib/STM32_USB-FS-Device_Driver/src/usb_regs.c **** {
 1615              		.loc 1 620 0
 1616              		.cfi_startproc
 1617              		@ args = 0, pretend = 0, frame = 0
 1618              		@ frame_needed = 0, uses_anonymous_args = 0
 1619              		@ link register save eliminated.
 1620              	.LVL121:
 621:lib/STM32_USB-FS-Device_Driver/src/usb_regs.c ****   return(_GetEPDblBuf0Addr(bEpNum));
 1621              		.loc 1 621 0
 1622 0000 054B     		ldr	r3, .L130
 1623 0002 1968     		ldr	r1, [r3, #0]
 1624              		.loc 1 758 0
 1625 0004 8AB2     		uxth	r2, r1
 621:lib/STM32_USB-FS-Device_Driver/src/usb_regs.c ****   return(_GetEPDblBuf0Addr(bEpNum));
 1626              		.loc 1 621 0
 1627 0006 02EBC000 		add	r0, r2, r0, lsl #3
 1628              	.LVL122:
 1629 000a 00F10053 		add	r3, r0, #536870912
 1630 000e 03F54051 		add	r1, r3, #12288
 1631 0012 4A00     		lsls	r2, r1, #1
 622:lib/STM32_USB-FS-Device_Driver/src/usb_regs.c **** }
 1632              		.loc 1 622 0
 1633 0014 1088     		ldrh	r0, [r2, #0]
 1634 0016 7047     		bx	lr
 1635              	.L131:
 1636              		.align	2
 1637              	.L130:
 1638 0018 505C0040 		.word	1073765456
 1639              		.cfi_endproc
 1640              	.LFE105:
 1642              		.section	.text.GetEPDblBuf1Addr,"ax",%progbits
 1643              		.align	1
 1644              		.global	GetEPDblBuf1Addr
 1645              		.thumb
 1646              		.thumb_func
 1648              	GetEPDblBuf1Addr:
 1649              	.LFB106:
 631:lib/STM32_USB-FS-Device_Driver/src/usb_regs.c **** {
 1650              		.loc 1 631 0
 1651              		.cfi_startproc
 1652              		@ args = 0, pretend = 0, frame = 0
 1653              		@ frame_needed = 0, uses_anonymous_args = 0
 1654              		@ link register save eliminated.
 1655              	.LVL123:
 632:lib/STM32_USB-FS-Device_Driver/src/usb_regs.c ****   return(_GetEPDblBuf1Addr(bEpNum));
 1656              		.loc 1 632 0
 1657 0000 044B     		ldr	r3, .L133
 1658 0002 1968     		ldr	r1, [r3, #0]
 1659              		.loc 1 758 0
 1660 0004 8AB2     		uxth	r2, r1
 632:lib/STM32_USB-FS-Device_Driver/src/usb_regs.c ****   return(_GetEPDblBuf1Addr(bEpNum));
 1661              		.loc 1 632 0
 1662 0006 02EBC000 		add	r0, r2, r0, lsl #3
 1663              	.LVL124:
 1664 000a 034B     		ldr	r3, .L133+4
 1665 000c C118     		adds	r1, r0, r3
 1666 000e 4A00     		lsls	r2, r1, #1
 633:lib/STM32_USB-FS-Device_Driver/src/usb_regs.c **** }
 1667              		.loc 1 633 0
 1668 0010 1088     		ldrh	r0, [r2, #0]
 1669 0012 7047     		bx	lr
 1670              	.L134:
 1671              		.align	2
 1672              	.L133:
 1673 0014 505C0040 		.word	1073765456
 1674 0018 04300020 		.word	536883204
 1675              		.cfi_endproc
 1676              	.LFE106:
 1678              		.section	.text.SetEPDblBuffCount,"ax",%progbits
 1679              		.align	1
 1680              		.global	SetEPDblBuffCount
 1681              		.thumb
 1682              		.thumb_func
 1684              	SetEPDblBuffCount:
 1685              	.LFB107:
 643:lib/STM32_USB-FS-Device_Driver/src/usb_regs.c **** {
 1686              		.loc 1 643 0
 1687              		.cfi_startproc
 1688              		@ args = 0, pretend = 0, frame = 0
 1689              		@ frame_needed = 0, uses_anonymous_args = 0
 1690              	.LVL125:
 1691 0000 10B5     		push	{r4, lr}
 1692              	.LCFI1:
 1693              		.cfi_def_cfa_offset 8
 1694              		.cfi_offset 4, -8
 1695              		.cfi_offset 14, -4
 644:lib/STM32_USB-FS-Device_Driver/src/usb_regs.c ****   _SetEPDblBuffCount(bEpNum, bDir, wCount);
 1696              		.loc 1 644 0
 1697 0002 0129     		cmp	r1, #1
 1698 0004 24D1     		bne	.L136
 1699              	.LBB13:
 644:lib/STM32_USB-FS-Device_Driver/src/usb_regs.c ****   _SetEPDblBuffCount(bEpNum, bDir, wCount);
 1700              		.loc 1 644 0 is_stmt 0 discriminator 1
 1701 0006 2449     		ldr	r1, .L156
 1702              	.LVL126:
 1703 0008 0B68     		ldr	r3, [r1, #0]
 1704 000a C000     		lsls	r0, r0, #3
 1705              	.LVL127:
 1706              		.loc 1 758 0 is_stmt 1 discriminator 1
 1707 000c 99B2     		uxth	r1, r3
 644:lib/STM32_USB-FS-Device_Driver/src/usb_regs.c ****   _SetEPDblBuffCount(bEpNum, bDir, wCount);
 1708              		.loc 1 644 0 discriminator 1
 1709 000e 0918     		adds	r1, r1, r0
 1710 0010 224B     		ldr	r3, .L156+4
 1711 0012 C918     		adds	r1, r1, r3
 1712 0014 4900     		lsls	r1, r1, #1
 1713              	.LVL128:
 1714              	.LBB14:
 1715 0016 3E2A     		cmp	r2, #62
 1716 0018 09D9     		bls	.L137
 644:lib/STM32_USB-FS-Device_Driver/src/usb_regs.c ****   _SetEPDblBuffCount(bEpNum, bDir, wCount);
 1717              		.loc 1 644 0 is_stmt 0 discriminator 3
 1718 001a 5309     		lsrs	r3, r2, #5
 1719              	.LVL129:
 1720 001c 12F01F0F 		tst	r2, #31
 1721 0020 01D1     		bne	.L138
 644:lib/STM32_USB-FS-Device_Driver/src/usb_regs.c ****   _SetEPDblBuffCount(bEpNum, bDir, wCount);
 1722              		.loc 1 644 0 discriminator 5
 1723 0022 013B     		subs	r3, r3, #1
 1724              	.LVL130:
 1725 0024 9BB2     		uxth	r3, r3
 1726              	.LVL131:
 1727              	.L138:
 644:lib/STM32_USB-FS-Device_Driver/src/usb_regs.c ****   _SetEPDblBuffCount(bEpNum, bDir, wCount);
 1728              		.loc 1 644 0 discriminator 6
 1729 0026 9B02     		lsls	r3, r3, #10
 1730              	.LVL132:
 1731 0028 43F40043 		orr	r3, r3, #32768
 1732 002c 05E0     		b	.L153
 1733              	.L137:
 644:lib/STM32_USB-FS-Device_Driver/src/usb_regs.c ****   _SetEPDblBuffCount(bEpNum, bDir, wCount);
 1734              		.loc 1 644 0 discriminator 4
 1735 002e 5308     		lsrs	r3, r2, #1
 1736              	.LVL133:
 1737 0030 12F0010F 		tst	r2, #1
 1738 0034 18BF     		it	ne
 1739 0036 0133     		addne	r3, r3, #1
 1740              	.LVL134:
 1741 0038 9B02     		lsls	r3, r3, #10
 1742              	.LVL135:
 1743              	.L153:
 644:lib/STM32_USB-FS-Device_Driver/src/usb_regs.c ****   _SetEPDblBuffCount(bEpNum, bDir, wCount);
 1744              		.loc 1 644 0 discriminator 8
 1745 003a 0B60     		str	r3, [r1, #0]
 1746              	.LBE14:
 1747              	.LBE13:
 1748              	.LBB15:
 1749 003c 1649     		ldr	r1, .L156
 1750              	.LVL136:
 1751 003e 0B68     		ldr	r3, [r1, #0]
 1752              		.loc 1 758 0 is_stmt 1 discriminator 8
 1753 0040 99B2     		uxth	r1, r3
 644:lib/STM32_USB-FS-Device_Driver/src/usb_regs.c ****   _SetEPDblBuffCount(bEpNum, bDir, wCount);
 1754              		.loc 1 644 0 discriminator 8
 1755 0042 0818     		adds	r0, r1, r0
 1756 0044 164B     		ldr	r3, .L156+8
 1757 0046 C118     		adds	r1, r0, r3
 1758 0048 4B00     		lsls	r3, r1, #1
 1759              	.LVL137:
 1760              	.LBB16:
 1761 004a 3E2A     		cmp	r2, #62
 1762 004c 13D8     		bhi	.L144
 1763 004e 1BE0     		b	.L155
 1764              	.LVL138:
 1765              	.L136:
 1766              	.LBE16:
 1767              	.LBE15:
 644:lib/STM32_USB-FS-Device_Driver/src/usb_regs.c ****   _SetEPDblBuffCount(bEpNum, bDir, wCount);
 1768              		.loc 1 644 0 is_stmt 0 discriminator 2
 1769 0050 0229     		cmp	r1, #2
 1770 0052 20D1     		bne	.L135
 644:lib/STM32_USB-FS-Device_Driver/src/usb_regs.c ****   _SetEPDblBuffCount(bEpNum, bDir, wCount);
 1771              		.loc 1 644 0 discriminator 9
 1772 0054 1049     		ldr	r1, .L156
 1773              	.LVL139:
 1774 0056 0C68     		ldr	r4, [r1, #0]
 1775 0058 C000     		lsls	r0, r0, #3
 1776              	.LVL140:
 1777              		.loc 1 758 0 is_stmt 1 discriminator 9
 1778 005a A3B2     		uxth	r3, r4
 644:lib/STM32_USB-FS-Device_Driver/src/usb_regs.c ****   _SetEPDblBuffCount(bEpNum, bDir, wCount);
 1779              		.loc 1 644 0 discriminator 9
 1780 005c C418     		adds	r4, r0, r3
 1781 005e 0F4B     		ldr	r3, .L156+4
 1782 0060 E318     		adds	r3, r4, r3
 1783 0062 5B00     		lsls	r3, r3, #1
 1784 0064 1A60     		str	r2, [r3, #0]
 1785 0066 0968     		ldr	r1, [r1, #0]
 1786              		.loc 1 758 0 discriminator 9
 1787 0068 8BB2     		uxth	r3, r1
 644:lib/STM32_USB-FS-Device_Driver/src/usb_regs.c ****   _SetEPDblBuffCount(bEpNum, bDir, wCount);
 1788              		.loc 1 644 0 discriminator 9
 1789 006a C018     		adds	r0, r0, r3
 1790 006c 0C49     		ldr	r1, .L156+8
 1791 006e 4318     		adds	r3, r0, r1
 1792 0070 5800     		lsls	r0, r3, #1
 1793 0072 0260     		str	r2, [r0, #0]
 1794 0074 10BD     		pop	{r4, pc}
 1795              	.LVL141:
 1796              	.L144:
 1797              	.LBB18:
 1798              	.LBB17:
 644:lib/STM32_USB-FS-Device_Driver/src/usb_regs.c ****   _SetEPDblBuffCount(bEpNum, bDir, wCount);
 1799              		.loc 1 644 0 is_stmt 0 discriminator 13
 1800 0076 5109     		lsrs	r1, r2, #5
 1801              	.LVL142:
 1802 0078 D206     		lsls	r2, r2, #27
 1803              	.LVL143:
 1804 007a 01D1     		bne	.L142
 644:lib/STM32_USB-FS-Device_Driver/src/usb_regs.c ****   _SetEPDblBuffCount(bEpNum, bDir, wCount);
 1805              		.loc 1 644 0 discriminator 15
 1806 007c 481E     		subs	r0, r1, #1
 1807 007e 81B2     		uxth	r1, r0
 1808              	.LVL144:
 1809              	.L142:
 644:lib/STM32_USB-FS-Device_Driver/src/usb_regs.c ****   _SetEPDblBuffCount(bEpNum, bDir, wCount);
 1810              		.loc 1 644 0 discriminator 16
 1811 0080 8A02     		lsls	r2, r1, #10
 1812 0082 42F40042 		orr	r2, r2, #32768
 1813 0086 04E0     		b	.L154
 1814              	.LVL145:
 1815              	.L155:
 644:lib/STM32_USB-FS-Device_Driver/src/usb_regs.c ****   _SetEPDblBuffCount(bEpNum, bDir, wCount);
 1816              		.loc 1 644 0 discriminator 14
 1817 0088 5108     		lsrs	r1, r2, #1
 1818              	.LVL146:
 1819 008a D007     		lsls	r0, r2, #31
 1820 008c 48BF     		it	mi
 1821 008e 0131     		addmi	r1, r1, #1
 1822              	.LVL147:
 1823 0090 8A02     		lsls	r2, r1, #10
 1824              	.LVL148:
 1825              	.L154:
 644:lib/STM32_USB-FS-Device_Driver/src/usb_regs.c ****   _SetEPDblBuffCount(bEpNum, bDir, wCount);
 1826              		.loc 1 644 0 discriminator 18
 1827 0092 1A60     		str	r2, [r3, #0]
 1828 0094 10BD     		pop	{r4, pc}
 1829              	.LVL149:
 1830              	.L135:
 1831 0096 10BD     		pop	{r4, pc}
 1832              	.L157:
 1833              		.align	2
 1834              	.L156:
 1835 0098 505C0040 		.word	1073765456
 1836 009c 02300020 		.word	536883202
 1837 00a0 06300020 		.word	536883206
 1838              	.LBE17:
 1839              	.LBE18:
 1840              		.cfi_endproc
 1841              	.LFE107:
 1843              		.section	.text.SetEPDblBuf0Count,"ax",%progbits
 1844              		.align	1
 1845              		.global	SetEPDblBuf0Count
 1846              		.thumb
 1847              		.thumb_func
 1849              	SetEPDblBuf0Count:
 1850              	.LFB108:
 655:lib/STM32_USB-FS-Device_Driver/src/usb_regs.c **** {
 1851              		.loc 1 655 0 is_stmt 1
 1852              		.cfi_startproc
 1853              		@ args = 0, pretend = 0, frame = 0
 1854              		@ frame_needed = 0, uses_anonymous_args = 0
 1855              		@ link register save eliminated.
 1856              	.LVL150:
 656:lib/STM32_USB-FS-Device_Driver/src/usb_regs.c ****   _SetEPDblBuf0Count(bEpNum, bDir, wCount);
 1857              		.loc 1 656 0
 1858 0000 0129     		cmp	r1, #1
 1859 0002 19D1     		bne	.L159
 1860              	.LBB19:
 656:lib/STM32_USB-FS-Device_Driver/src/usb_regs.c ****   _SetEPDblBuf0Count(bEpNum, bDir, wCount);
 1861              		.loc 1 656 0 is_stmt 0 discriminator 1
 1862 0004 1249     		ldr	r1, .L168
 1863              	.LVL151:
 1864 0006 0B68     		ldr	r3, [r1, #0]
 1865              		.loc 1 758 0 is_stmt 1 discriminator 1
 1866 0008 99B2     		uxth	r1, r3
 656:lib/STM32_USB-FS-Device_Driver/src/usb_regs.c ****   _SetEPDblBuf0Count(bEpNum, bDir, wCount);
 1867              		.loc 1 656 0 discriminator 1
 1868 000a 01EBC000 		add	r0, r1, r0, lsl #3
 1869              	.LVL152:
 1870 000e 114B     		ldr	r3, .L168+4
 1871 0010 C118     		adds	r1, r0, r3
 1872 0012 4900     		lsls	r1, r1, #1
 1873              	.LVL153:
 1874              	.LBB20:
 1875 0014 3E2A     		cmp	r2, #62
 1876 0016 08D9     		bls	.L160
 656:lib/STM32_USB-FS-Device_Driver/src/usb_regs.c ****   _SetEPDblBuf0Count(bEpNum, bDir, wCount);
 1877              		.loc 1 656 0 is_stmt 0 discriminator 3
 1878 0018 5309     		lsrs	r3, r2, #5
 1879              	.LVL154:
 1880 001a D006     		lsls	r0, r2, #27
 1881 001c 01D1     		bne	.L161
 656:lib/STM32_USB-FS-Device_Driver/src/usb_regs.c ****   _SetEPDblBuf0Count(bEpNum, bDir, wCount);
 1882              		.loc 1 656 0 discriminator 5
 1883 001e 013B     		subs	r3, r3, #1
 1884              	.LVL155:
 1885 0020 9BB2     		uxth	r3, r3
 1886              	.LVL156:
 1887              	.L161:
 656:lib/STM32_USB-FS-Device_Driver/src/usb_regs.c ****   _SetEPDblBuf0Count(bEpNum, bDir, wCount);
 1888              		.loc 1 656 0 discriminator 6
 1889 0022 9802     		lsls	r0, r3, #10
 1890 0024 40F40042 		orr	r2, r0, #32768
 1891              	.LVL157:
 1892 0028 04E0     		b	.L167
 1893              	.LVL158:
 1894              	.L160:
 656:lib/STM32_USB-FS-Device_Driver/src/usb_regs.c ****   _SetEPDblBuf0Count(bEpNum, bDir, wCount);
 1895              		.loc 1 656 0 discriminator 4
 1896 002a 5008     		lsrs	r0, r2, #1
 1897              	.LVL159:
 1898 002c D207     		lsls	r2, r2, #31
 1899              	.LVL160:
 1900 002e 48BF     		it	mi
 1901 0030 0130     		addmi	r0, r0, #1
 1902              	.LVL161:
 1903 0032 8202     		lsls	r2, r0, #10
 1904              	.LVL162:
 1905              	.L167:
 656:lib/STM32_USB-FS-Device_Driver/src/usb_regs.c ****   _SetEPDblBuf0Count(bEpNum, bDir, wCount);
 1906              		.loc 1 656 0 discriminator 8
 1907 0034 0A60     		str	r2, [r1, #0]
 1908 0036 7047     		bx	lr
 1909              	.LVL163:
 1910              	.L159:
 1911              	.LBE20:
 1912              	.LBE19:
 656:lib/STM32_USB-FS-Device_Driver/src/usb_regs.c ****   _SetEPDblBuf0Count(bEpNum, bDir, wCount);
 1913              		.loc 1 656 0 discriminator 2
 1914 0038 0229     		cmp	r1, #2
 1915 003a 08D1     		bne	.L158
 656:lib/STM32_USB-FS-Device_Driver/src/usb_regs.c ****   _SetEPDblBuf0Count(bEpNum, bDir, wCount);
 1916              		.loc 1 656 0 discriminator 9
 1917 003c 044B     		ldr	r3, .L168
 1918 003e 1968     		ldr	r1, [r3, #0]
 1919              	.LVL164:
 1920              		.loc 1 758 0 is_stmt 1 discriminator 9
 1921 0040 8BB2     		uxth	r3, r1
 656:lib/STM32_USB-FS-Device_Driver/src/usb_regs.c ****   _SetEPDblBuf0Count(bEpNum, bDir, wCount);
 1922              		.loc 1 656 0 discriminator 9
 1923 0042 03EBC000 		add	r0, r3, r0, lsl #3
 1924              	.LVL165:
 1925 0046 0349     		ldr	r1, .L168+4
 1926 0048 4318     		adds	r3, r0, r1
 1927 004a 5800     		lsls	r0, r3, #1
 1928 004c 0260     		str	r2, [r0, #0]
 1929              	.L158:
 1930 004e 7047     		bx	lr
 1931              	.L169:
 1932              		.align	2
 1933              	.L168:
 1934 0050 505C0040 		.word	1073765456
 1935 0054 02300020 		.word	536883202
 1936              		.cfi_endproc
 1937              	.LFE108:
 1939              		.section	.text.SetEPDblBuf1Count,"ax",%progbits
 1940              		.align	1
 1941              		.global	SetEPDblBuf1Count
 1942              		.thumb
 1943              		.thumb_func
 1945              	SetEPDblBuf1Count:
 1946              	.LFB109:
 667:lib/STM32_USB-FS-Device_Driver/src/usb_regs.c **** {
 1947              		.loc 1 667 0
 1948              		.cfi_startproc
 1949              		@ args = 0, pretend = 0, frame = 0
 1950              		@ frame_needed = 0, uses_anonymous_args = 0
 1951              		@ link register save eliminated.
 1952              	.LVL166:
 668:lib/STM32_USB-FS-Device_Driver/src/usb_regs.c ****   _SetEPDblBuf1Count(bEpNum, bDir, wCount);
 1953              		.loc 1 668 0
 1954 0000 0129     		cmp	r1, #1
 1955 0002 19D1     		bne	.L171
 1956              	.LBB21:
 668:lib/STM32_USB-FS-Device_Driver/src/usb_regs.c ****   _SetEPDblBuf1Count(bEpNum, bDir, wCount);
 1957              		.loc 1 668 0 is_stmt 0 discriminator 1
 1958 0004 1249     		ldr	r1, .L180
 1959              	.LVL167:
 1960 0006 0B68     		ldr	r3, [r1, #0]
 1961              		.loc 1 758 0 is_stmt 1 discriminator 1
 1962 0008 99B2     		uxth	r1, r3
 668:lib/STM32_USB-FS-Device_Driver/src/usb_regs.c ****   _SetEPDblBuf1Count(bEpNum, bDir, wCount);
 1963              		.loc 1 668 0 discriminator 1
 1964 000a 01EBC000 		add	r0, r1, r0, lsl #3
 1965              	.LVL168:
 1966 000e 114B     		ldr	r3, .L180+4
 1967 0010 C118     		adds	r1, r0, r3
 1968 0012 4900     		lsls	r1, r1, #1
 1969              	.LVL169:
 1970              	.LBB22:
 1971 0014 3E2A     		cmp	r2, #62
 1972 0016 08D9     		bls	.L172
 668:lib/STM32_USB-FS-Device_Driver/src/usb_regs.c ****   _SetEPDblBuf1Count(bEpNum, bDir, wCount);
 1973              		.loc 1 668 0 is_stmt 0 discriminator 3
 1974 0018 5309     		lsrs	r3, r2, #5
 1975              	.LVL170:
 1976 001a D006     		lsls	r0, r2, #27
 1977 001c 01D1     		bne	.L173
 668:lib/STM32_USB-FS-Device_Driver/src/usb_regs.c ****   _SetEPDblBuf1Count(bEpNum, bDir, wCount);
 1978              		.loc 1 668 0 discriminator 5
 1979 001e 013B     		subs	r3, r3, #1
 1980              	.LVL171:
 1981 0020 9BB2     		uxth	r3, r3
 1982              	.LVL172:
 1983              	.L173:
 668:lib/STM32_USB-FS-Device_Driver/src/usb_regs.c ****   _SetEPDblBuf1Count(bEpNum, bDir, wCount);
 1984              		.loc 1 668 0 discriminator 6
 1985 0022 9802     		lsls	r0, r3, #10
 1986 0024 40F40042 		orr	r2, r0, #32768
 1987              	.LVL173:
 1988 0028 04E0     		b	.L179
 1989              	.LVL174:
 1990              	.L172:
 668:lib/STM32_USB-FS-Device_Driver/src/usb_regs.c ****   _SetEPDblBuf1Count(bEpNum, bDir, wCount);
 1991              		.loc 1 668 0 discriminator 4
 1992 002a 5008     		lsrs	r0, r2, #1
 1993              	.LVL175:
 1994 002c D207     		lsls	r2, r2, #31
 1995              	.LVL176:
 1996 002e 48BF     		it	mi
 1997 0030 0130     		addmi	r0, r0, #1
 1998              	.LVL177:
 1999 0032 8202     		lsls	r2, r0, #10
 2000              	.LVL178:
 2001              	.L179:
 668:lib/STM32_USB-FS-Device_Driver/src/usb_regs.c ****   _SetEPDblBuf1Count(bEpNum, bDir, wCount);
 2002              		.loc 1 668 0 discriminator 8
 2003 0034 0A60     		str	r2, [r1, #0]
 2004 0036 7047     		bx	lr
 2005              	.LVL179:
 2006              	.L171:
 2007              	.LBE22:
 2008              	.LBE21:
 668:lib/STM32_USB-FS-Device_Driver/src/usb_regs.c ****   _SetEPDblBuf1Count(bEpNum, bDir, wCount);
 2009              		.loc 1 668 0 discriminator 2
 2010 0038 0229     		cmp	r1, #2
 2011 003a 08D1     		bne	.L170
 668:lib/STM32_USB-FS-Device_Driver/src/usb_regs.c ****   _SetEPDblBuf1Count(bEpNum, bDir, wCount);
 2012              		.loc 1 668 0 discriminator 9
 2013 003c 044B     		ldr	r3, .L180
 2014 003e 1968     		ldr	r1, [r3, #0]
 2015              	.LVL180:
 2016              		.loc 1 758 0 is_stmt 1 discriminator 9
 2017 0040 8BB2     		uxth	r3, r1
 668:lib/STM32_USB-FS-Device_Driver/src/usb_regs.c ****   _SetEPDblBuf1Count(bEpNum, bDir, wCount);
 2018              		.loc 1 668 0 discriminator 9
 2019 0042 03EBC000 		add	r0, r3, r0, lsl #3
 2020              	.LVL181:
 2021 0046 0349     		ldr	r1, .L180+4
 2022 0048 4318     		adds	r3, r0, r1
 2023 004a 5800     		lsls	r0, r3, #1
 2024 004c 0260     		str	r2, [r0, #0]
 2025              	.L170:
 2026 004e 7047     		bx	lr
 2027              	.L181:
 2028              		.align	2
 2029              	.L180:
 2030 0050 505C0040 		.word	1073765456
 2031 0054 06300020 		.word	536883206
 2032              		.cfi_endproc
 2033              	.LFE109:
 2035              		.section	.text.GetEPDblBuf0Count,"ax",%progbits
 2036              		.align	1
 2037              		.global	GetEPDblBuf0Count
 2038              		.thumb
 2039              		.thumb_func
 2041              	GetEPDblBuf0Count:
 2042              	.LFB110:
 679:lib/STM32_USB-FS-Device_Driver/src/usb_regs.c **** {
 2043              		.loc 1 679 0
 2044              		.cfi_startproc
 2045              		@ args = 0, pretend = 0, frame = 0
 2046              		@ frame_needed = 0, uses_anonymous_args = 0
 2047              		@ link register save eliminated.
 2048              	.LVL182:
 680:lib/STM32_USB-FS-Device_Driver/src/usb_regs.c ****   return(_GetEPDblBuf0Count(bEpNum));
 2049              		.loc 1 680 0
 2050 0000 054B     		ldr	r3, .L183
 2051 0002 1968     		ldr	r1, [r3, #0]
 2052              		.loc 1 758 0
 2053 0004 8AB2     		uxth	r2, r1
 680:lib/STM32_USB-FS-Device_Driver/src/usb_regs.c ****   return(_GetEPDblBuf0Count(bEpNum));
 2054              		.loc 1 680 0
 2055 0006 02EBC000 		add	r0, r2, r0, lsl #3
 2056              	.LVL183:
 2057 000a 044B     		ldr	r3, .L183+4
 2058 000c C118     		adds	r1, r0, r3
 2059 000e 4A00     		lsls	r2, r1, #1
 2060 0010 1068     		ldr	r0, [r2, #0]
 2061 0012 8305     		lsls	r3, r0, #22
 681:lib/STM32_USB-FS-Device_Driver/src/usb_regs.c **** }
 2062              		.loc 1 681 0
 2063 0014 980D     		lsrs	r0, r3, #22
 2064 0016 7047     		bx	lr
 2065              	.L184:
 2066              		.align	2
 2067              	.L183:
 2068 0018 505C0040 		.word	1073765456
 2069 001c 02300020 		.word	536883202
 2070              		.cfi_endproc
 2071              	.LFE110:
 2073              		.section	.text.GetEPDblBuf1Count,"ax",%progbits
 2074              		.align	1
 2075              		.global	GetEPDblBuf1Count
 2076              		.thumb
 2077              		.thumb_func
 2079              	GetEPDblBuf1Count:
 2080              	.LFB111:
 691:lib/STM32_USB-FS-Device_Driver/src/usb_regs.c **** {
 2081              		.loc 1 691 0
 2082              		.cfi_startproc
 2083              		@ args = 0, pretend = 0, frame = 0
 2084              		@ frame_needed = 0, uses_anonymous_args = 0
 2085              		@ link register save eliminated.
 2086              	.LVL184:
 692:lib/STM32_USB-FS-Device_Driver/src/usb_regs.c ****   return(_GetEPDblBuf1Count(bEpNum));
 2087              		.loc 1 692 0
 2088 0000 054B     		ldr	r3, .L186
 2089 0002 1968     		ldr	r1, [r3, #0]
 2090              		.loc 1 758 0
 2091 0004 8AB2     		uxth	r2, r1
 692:lib/STM32_USB-FS-Device_Driver/src/usb_regs.c ****   return(_GetEPDblBuf1Count(bEpNum));
 2092              		.loc 1 692 0
 2093 0006 02EBC000 		add	r0, r2, r0, lsl #3
 2094              	.LVL185:
 2095 000a 044B     		ldr	r3, .L186+4
 2096 000c C118     		adds	r1, r0, r3
 2097 000e 4A00     		lsls	r2, r1, #1
 2098 0010 1068     		ldr	r0, [r2, #0]
 2099 0012 8305     		lsls	r3, r0, #22
 693:lib/STM32_USB-FS-Device_Driver/src/usb_regs.c **** }
 2100              		.loc 1 693 0
 2101 0014 980D     		lsrs	r0, r3, #22
 2102 0016 7047     		bx	lr
 2103              	.L187:
 2104              		.align	2
 2105              	.L186:
 2106 0018 505C0040 		.word	1073765456
 2107 001c 06300020 		.word	536883206
 2108              		.cfi_endproc
 2109              	.LFE111:
 2111              		.section	.text.GetEPDblBufDir,"ax",%progbits
 2112              		.align	1
 2113              		.global	GetEPDblBufDir
 2114              		.thumb
 2115              		.thumb_func
 2117              	GetEPDblBufDir:
 2118              	.LFB112:
 703:lib/STM32_USB-FS-Device_Driver/src/usb_regs.c **** {
 2119              		.loc 1 703 0
 2120              		.cfi_startproc
 2121              		@ args = 0, pretend = 0, frame = 0
 2122              		@ frame_needed = 0, uses_anonymous_args = 0
 2123              		@ link register save eliminated.
 2124              	.LVL186:
 704:lib/STM32_USB-FS-Device_Driver/src/usb_regs.c ****   if ((uint16_t)(*_pEPRxCount(bEpNum) & 0xFC00) != 0)
 2125              		.loc 1 704 0
 2126 0000 0C4A     		ldr	r2, .L192
 2127 0002 1368     		ldr	r3, [r2, #0]
 2128 0004 C000     		lsls	r0, r0, #3
 2129              	.LVL187:
 2130              		.loc 1 758 0
 2131 0006 99B2     		uxth	r1, r3
 704:lib/STM32_USB-FS-Device_Driver/src/usb_regs.c ****   if ((uint16_t)(*_pEPRxCount(bEpNum) & 0xFC00) != 0)
 2132              		.loc 1 704 0
 2133 0008 4118     		adds	r1, r0, r1
 2134 000a 0B4B     		ldr	r3, .L192+4
 2135 000c C918     		adds	r1, r1, r3
 2136 000e 4B00     		lsls	r3, r1, #1
 2137 0010 1968     		ldr	r1, [r3, #0]
 2138 0012 11F47C4F 		tst	r1, #64512
 2139 0016 0BD1     		bne	.L190
 706:lib/STM32_USB-FS-Device_Driver/src/usb_regs.c ****   else if (((uint16_t)(*_pEPTxCount(bEpNum)) & 0x03FF) != 0)
 2140              		.loc 1 706 0
 2141 0018 1268     		ldr	r2, [r2, #0]
 2142              		.loc 1 758 0
 2143 001a 93B2     		uxth	r3, r2
 706:lib/STM32_USB-FS-Device_Driver/src/usb_regs.c ****   else if (((uint16_t)(*_pEPTxCount(bEpNum)) & 0x03FF) != 0)
 2144              		.loc 1 706 0
 2145 001c C018     		adds	r0, r0, r3
 2146 001e 0749     		ldr	r1, .L192+8
 2147 0020 4218     		adds	r2, r0, r1
 2148 0022 5300     		lsls	r3, r2, #1
 2149 0024 1868     		ldr	r0, [r3, #0]
 2150 0026 8305     		lsls	r3, r0, #22
 707:lib/STM32_USB-FS-Device_Driver/src/usb_regs.c ****     return(EP_DBUF_IN);
 2151              		.loc 1 707 0
 2152 0028 0CBF     		ite	eq
 2153 002a 0020     		moveq	r0, #0
 2154 002c 0220     		movne	r0, #2
 2155 002e 7047     		bx	lr
 2156              	.L190:
 705:lib/STM32_USB-FS-Device_Driver/src/usb_regs.c ****     return(EP_DBUF_OUT);
 2157              		.loc 1 705 0
 2158 0030 0120     		movs	r0, #1
 710:lib/STM32_USB-FS-Device_Driver/src/usb_regs.c **** }
 2159              		.loc 1 710 0
 2160 0032 7047     		bx	lr
 2161              	.L193:
 2162              		.align	2
 2163              	.L192:
 2164 0034 505C0040 		.word	1073765456
 2165 0038 06300020 		.word	536883206
 2166 003c 02300020 		.word	536883202
 2167              		.cfi_endproc
 2168              	.LFE112:
 2170              		.section	.text.FreeUserBuffer,"ax",%progbits
 2171              		.align	1
 2172              		.global	FreeUserBuffer
 2173              		.thumb
 2174              		.thumb_func
 2176              	FreeUserBuffer:
 2177              	.LFB113:
 720:lib/STM32_USB-FS-Device_Driver/src/usb_regs.c **** {
 2178              		.loc 1 720 0
 2179              		.cfi_startproc
 2180              		@ args = 0, pretend = 0, frame = 0
 2181              		@ frame_needed = 0, uses_anonymous_args = 0
 2182              		@ link register save eliminated.
 2183              	.LVL188:
 721:lib/STM32_USB-FS-Device_Driver/src/usb_regs.c ****   if (bDir == EP_DBUF_OUT)
 2184              		.loc 1 721 0
 2185 0000 0129     		cmp	r1, #1
 2186 0002 0DD1     		bne	.L195
 723:lib/STM32_USB-FS-Device_Driver/src/usb_regs.c ****     _ToggleDTOG_TX(bEpNum);
 2187              		.loc 1 723 0
 2188 0004 8000     		lsls	r0, r0, #2
 2189              	.LVL189:
 2190 0006 00F18043 		add	r3, r0, #1073741824
 2191 000a 03F5B840 		add	r0, r3, #23552
 2192 000e 0168     		ldr	r1, [r0, #0]
 2193              	.LVL190:
 2194 0010 40F60F72 		movw	r2, #3855
 2195 0014 0A40     		ands	r2, r2, r1
 2196 0016 42F40043 		orr	r3, r2, #32768
 2197 001a 43F0C002 		orr	r2, r3, #192
 2198 001e 0EE0     		b	.L197
 2199              	.LVL191:
 2200              	.L195:
 725:lib/STM32_USB-FS-Device_Driver/src/usb_regs.c ****   else if (bDir == EP_DBUF_IN)
 2201              		.loc 1 725 0
 2202 0020 0229     		cmp	r1, #2
 2203 0022 0DD1     		bne	.L194
 727:lib/STM32_USB-FS-Device_Driver/src/usb_regs.c ****     _ToggleDTOG_RX(bEpNum);
 2204              		.loc 1 727 0
 2205 0024 8000     		lsls	r0, r0, #2
 2206              	.LVL192:
 2207 0026 00F18041 		add	r1, r0, #1073741824
 2208              	.LVL193:
 2209 002a 01F5B840 		add	r0, r1, #23552
 2210 002e 0268     		ldr	r2, [r0, #0]
 2211 0030 40F60F73 		movw	r3, #3855
 2212 0034 1340     		ands	r3, r3, r2
 2213 0036 43F44041 		orr	r1, r3, #49152
 2214 003a 41F08002 		orr	r2, r1, #128
 2215              	.L197:
 2216 003e 0260     		str	r2, [r0, #0]
 2217              	.L194:
 2218 0040 7047     		bx	lr
 2219              		.cfi_endproc
 2220              	.LFE113:
 2222              		.section	.text.ToWord,"ax",%progbits
 2223              		.align	1
 2224              		.global	ToWord
 2225              		.thumb
 2226              		.thumb_func
 2228              	ToWord:
 2229              	.LFB114:
 739:lib/STM32_USB-FS-Device_Driver/src/usb_regs.c **** {
 2230              		.loc 1 739 0
 2231              		.cfi_startproc
 2232              		@ args = 0, pretend = 0, frame = 0
 2233              		@ frame_needed = 0, uses_anonymous_args = 0
 2234              		@ link register save eliminated.
 2235              	.LVL194:
 2236              	.LVL195:
 743:lib/STM32_USB-FS-Device_Driver/src/usb_regs.c **** }
 2237              		.loc 1 743 0
 2238 0000 41EA0020 		orr	r0, r1, r0, lsl #8
 2239              	.LVL196:
 2240 0004 7047     		bx	lr
 2241              		.cfi_endproc
 2242              	.LFE114:
 2244              		.section	.text.ByteSwap,"ax",%progbits
 2245              		.align	1
 2246              		.global	ByteSwap
 2247              		.thumb
 2248              		.thumb_func
 2250              	ByteSwap:
 2251              	.LFB115:
 752:lib/STM32_USB-FS-Device_Driver/src/usb_regs.c **** {
 2252              		.loc 1 752 0
 2253              		.cfi_startproc
 2254              		@ args = 0, pretend = 0, frame = 0
 2255              		@ frame_needed = 0, uses_anonymous_args = 0
 2256              		@ link register save eliminated.
 2257              	.LVL197:
 2258              	.LVL198:
 756:lib/STM32_USB-FS-Device_Driver/src/usb_regs.c ****   wRet =  (wSwW >> 8) | ((uint16_t)bTemp << 8);
 2259              		.loc 1 756 0
 2260 0000 C3B2     		uxtb	r3, r0
 2261 0002 000A     		lsrs	r0, r0, #8
 2262              	.LVL199:
 2263              		.loc 1 758 0
 2264 0004 40EA0320 		orr	r0, r0, r3, lsl #8
 2265 0008 7047     		bx	lr
 2266              		.cfi_endproc
 2267              	.LFE115:
 2269              		.text
 2270              	.Letext0:
 2271              		.file 2 "c:\\devz\\arm\\launchpad\\bin\\../lib/gcc/arm-none-eabi/4.7.3/include/stdint-gcc.h"
 2272              		.file 3 "./lib/STM32_USB-FS-Device_Driver/inc/usb_regs.h"
 2273              		.file 4 "./lib/CMSIS/Include/core_cm3.h"
 2274              		.file 5 "./inc/systick.h"