   1              		.syntax unified
   2              		.cpu cortex-m3
   3              		.fpu softvfp
   4              		.eabi_attribute 20, 1
   5              		.eabi_attribute 21, 1
   6              		.eabi_attribute 23, 3
   7              		.eabi_attribute 24, 1
   8              		.eabi_attribute 25, 1
   9              		.eabi_attribute 26, 1
  10              		.eabi_attribute 30, 4
  11              		.eabi_attribute 34, 0
  12              		.eabi_attribute 18, 4
  13              		.thumb
  14              		.file	"display_if_support.c"
  15              		.text
  16              	.Ltext0:
  17              		.cfi_sections	.debug_frame
  18              		.section	.text.SetPixel,"ax",%progbits
  19              		.align	1
  20              		.thumb
  21              		.thumb_func
  23              	SetPixel:
  24              	.LFB60:
  25              		.file 1 "lib/display/abstract/src/display_if_support.c"
   1:lib/display/abstract/src/display_if_support.c **** /********************************************************************************/
   2:lib/display/abstract/src/display_if_support.c **** /*!
   3:lib/display/abstract/src/display_if_support.c **** 	@file			display_if_support.c
   4:lib/display/abstract/src/display_if_support.c **** 	@author         Nemui Trinomius (http://nemuisan.blog.bai.ne.jp)
   5:lib/display/abstract/src/display_if_support.c ****     @version        5.01
   6:lib/display/abstract/src/display_if_support.c ****     @date           2012.04.05
   7:lib/display/abstract/src/display_if_support.c **** 	@brief          Interface of Display Device								@n
   8:lib/display/abstract/src/display_if_support.c **** 					Draw Line & Circle Algolithm is based on under URL TNX!	@n
   9:lib/display/abstract/src/display_if_support.c **** 					http://dencha.ojaru.jp/
  10:lib/display/abstract/src/display_if_support.c **** 
  11:lib/display/abstract/src/display_if_support.c ****     @section HISTORY
  12:lib/display/abstract/src/display_if_support.c **** 		2010.12.31	V1.00	Restart Here.
  13:lib/display/abstract/src/display_if_support.c **** 		2011.03.10	V2.00	C++ Ready.
  14:lib/display/abstract/src/display_if_support.c **** 		2011.06.14	V3.00	Altanate Filer Ready.
  15:lib/display/abstract/src/display_if_support.c **** 		2011.10.14	V3.10	Chenged FontColour Function Name.
  16:lib/display/abstract/src/display_if_support.c **** 		2012.01.03	V4.00	Fixed fontkanji & fontank Relations.
  17:lib/display/abstract/src/display_if_support.c **** 		2012.04.05	V5.01	Add Draw Circle Algorithm.
  18:lib/display/abstract/src/display_if_support.c **** 	
  19:lib/display/abstract/src/display_if_support.c ****     @section LICENSE
  20:lib/display/abstract/src/display_if_support.c **** 		BSD License. See Copyright.txt
  21:lib/display/abstract/src/display_if_support.c **** */
  22:lib/display/abstract/src/display_if_support.c **** /********************************************************************************/
  23:lib/display/abstract/src/display_if_support.c **** 
  24:lib/display/abstract/src/display_if_support.c **** /* Includes ------------------------------------------------------------------*/
  25:lib/display/abstract/src/display_if_support.c **** #include "display_if.h"
  26:lib/display/abstract/src/display_if_support.c **** #include "display_if_support.h"
  27:lib/display/abstract/src/display_if_support.c **** #include "font_if.h"
  28:lib/display/abstract/src/display_if_support.c **** 
  29:lib/display/abstract/src/display_if_support.c **** /* Defines -------------------------------------------------------------------*/
  30:lib/display/abstract/src/display_if_support.c **** 
  31:lib/display/abstract/src/display_if_support.c **** /* Variables -----------------------------------------------------------------*/
  32:lib/display/abstract/src/display_if_support.c **** /* See Also "display_if_basis.h" */
  33:lib/display/abstract/src/display_if_support.c **** ScrCol_t ScrCol = { FrontG, BackG };
  34:lib/display/abstract/src/display_if_support.c **** ScrCol_t* pScrCol = &ScrCol;
  35:lib/display/abstract/src/display_if_support.c **** 
  36:lib/display/abstract/src/display_if_support.c **** /* Constants -----------------------------------------------------------------*/
  37:lib/display/abstract/src/display_if_support.c **** 
  38:lib/display/abstract/src/display_if_support.c **** /* Function prototypes -------------------------------------------------------*/
  39:lib/display/abstract/src/display_if_support.c **** /* Got Integer Route of Neuton method */
  40:lib/display/abstract/src/display_if_support.c **** static inline int root_i(int x){
  41:lib/display/abstract/src/display_if_support.c ****     int s=1, s2=1;
  42:lib/display/abstract/src/display_if_support.c ****     do {
  43:lib/display/abstract/src/display_if_support.c ****         s=(x/s+s)/2;
  44:lib/display/abstract/src/display_if_support.c ****         s2=s+1;
  45:lib/display/abstract/src/display_if_support.c ****         if (s*s<=x && x<s2*s2) break;
  46:lib/display/abstract/src/display_if_support.c ****     } while(1);
  47:lib/display/abstract/src/display_if_support.c ****     return s;
  48:lib/display/abstract/src/display_if_support.c **** }
  49:lib/display/abstract/src/display_if_support.c **** static inline double root(double x){
  50:lib/display/abstract/src/display_if_support.c ****     double s=1, s2=1;
  51:lib/display/abstract/src/display_if_support.c ****     if (x<=0) return 1;
  52:lib/display/abstract/src/display_if_support.c ****     do { s2=s; s=(x/s+s)/2; } while(s2!=s);
  53:lib/display/abstract/src/display_if_support.c ****     return s;
  54:lib/display/abstract/src/display_if_support.c **** }
  55:lib/display/abstract/src/display_if_support.c **** 
  56:lib/display/abstract/src/display_if_support.c **** /* Functions -----------------------------------------------------------------*/
  57:lib/display/abstract/src/display_if_support.c **** 
  58:lib/display/abstract/src/display_if_support.c **** /**************************************************************************/
  59:lib/display/abstract/src/display_if_support.c **** /*! 
  60:lib/display/abstract/src/display_if_support.c **** 	Set FrontGraphic and BackGraphic(Basis Function).
  61:lib/display/abstract/src/display_if_support.c **** */
  62:lib/display/abstract/src/display_if_support.c **** /**************************************************************************/
  63:lib/display/abstract/src/display_if_support.c **** inline void Display_ChrCol(uint16_t fg, uint16_t bg)
  64:lib/display/abstract/src/display_if_support.c **** {
  65:lib/display/abstract/src/display_if_support.c **** 	pScrCol->Fg = fg;
  66:lib/display/abstract/src/display_if_support.c **** 	pScrCol->Bg = bg;
  67:lib/display/abstract/src/display_if_support.c **** }
  68:lib/display/abstract/src/display_if_support.c **** 
  69:lib/display/abstract/src/display_if_support.c **** /**************************************************************************/
  70:lib/display/abstract/src/display_if_support.c **** /*! 
  71:lib/display/abstract/src/display_if_support.c **** 	Put Pixel Position(Basis Function).
  72:lib/display/abstract/src/display_if_support.c **** */
  73:lib/display/abstract/src/display_if_support.c **** /**************************************************************************/
  74:lib/display/abstract/src/display_if_support.c **** static inline void SetPixel(uint16_t col, uint16_t row)
  75:lib/display/abstract/src/display_if_support.c **** {
  26              		.loc 1 75 0
  27              		.cfi_startproc
  28              		@ args = 0, pretend = 0, frame = 0
  29              		@ frame_needed = 0, uses_anonymous_args = 0
  30              		@ link register save eliminated.
  31              	.LVL0:
  32 0000 0A46     		mov	r2, r1
  76:lib/display/abstract/src/display_if_support.c **** 	Display_rect_if(col,col,row,row);
  33              		.loc 1 76 0
  34 0002 0146     		mov	r1, r0
  35              	.LVL1:
  36 0004 1346     		mov	r3, r2
  77:lib/display/abstract/src/display_if_support.c **** }
  37              		.loc 1 77 0
  76:lib/display/abstract/src/display_if_support.c **** 	Display_rect_if(col,col,row,row);
  38              		.loc 1 76 0
  39 0006 FFF7FEBF 		b	ST7732_rect
  40              	.LVL2:
  41              		.cfi_endproc
  42              	.LFE60:
  44              		.section	.text.putkanji_t,"ax",%progbits
  45              		.align	1
  46              		.thumb
  47              		.thumb_func
  49              	putkanji_t:
  50              	.LFB67:
  78:lib/display/abstract/src/display_if_support.c **** 
  79:lib/display/abstract/src/display_if_support.c **** 
  80:lib/display/abstract/src/display_if_support.c **** /**************************************************************************/
  81:lib/display/abstract/src/display_if_support.c **** /*! 
  82:lib/display/abstract/src/display_if_support.c **** 	Put Pixel.
  83:lib/display/abstract/src/display_if_support.c **** */
  84:lib/display/abstract/src/display_if_support.c **** /**************************************************************************/
  85:lib/display/abstract/src/display_if_support.c **** inline void PutPixel(uint16_t col, uint16_t row,uint16_t colour)
  86:lib/display/abstract/src/display_if_support.c **** {
  87:lib/display/abstract/src/display_if_support.c **** 	SetPixel(col,row);
  88:lib/display/abstract/src/display_if_support.c **** 	Display_wr_dat_if(colour);
  89:lib/display/abstract/src/display_if_support.c **** }
  90:lib/display/abstract/src/display_if_support.c **** 
  91:lib/display/abstract/src/display_if_support.c **** 
  92:lib/display/abstract/src/display_if_support.c **** /**************************************************************************/
  93:lib/display/abstract/src/display_if_support.c **** /*! 
  94:lib/display/abstract/src/display_if_support.c **** 	Fill Rectangle.
  95:lib/display/abstract/src/display_if_support.c **** */
  96:lib/display/abstract/src/display_if_support.c **** /**************************************************************************/
  97:lib/display/abstract/src/display_if_support.c **** inline void Display_FillRect_If(uint32_t x, uint32_t width, uint32_t y, uint32_t height, uint16_t c
  98:lib/display/abstract/src/display_if_support.c **** {
  99:lib/display/abstract/src/display_if_support.c **** 	volatile uint32_t n;
 100:lib/display/abstract/src/display_if_support.c **** 
 101:lib/display/abstract/src/display_if_support.c **** 	if((width < x) || (height < y) ) return;
 102:lib/display/abstract/src/display_if_support.c **** 	
 103:lib/display/abstract/src/display_if_support.c **** 	Display_rect_if(x,width,y,height);
 104:lib/display/abstract/src/display_if_support.c **** 	n = (width-x+1) * (height-y+1);
 105:lib/display/abstract/src/display_if_support.c **** 	
 106:lib/display/abstract/src/display_if_support.c **** 	do {
 107:lib/display/abstract/src/display_if_support.c **** 		Display_wr_dat_if(colour);
 108:lib/display/abstract/src/display_if_support.c **** 	} while (--n);
 109:lib/display/abstract/src/display_if_support.c **** 
 110:lib/display/abstract/src/display_if_support.c **** }
 111:lib/display/abstract/src/display_if_support.c **** 
 112:lib/display/abstract/src/display_if_support.c **** 
 113:lib/display/abstract/src/display_if_support.c **** /**************************************************************************/
 114:lib/display/abstract/src/display_if_support.c **** /*! 
 115:lib/display/abstract/src/display_if_support.c **** 	DRAW Line Function(There is no cripper yet).
 116:lib/display/abstract/src/display_if_support.c **** */
 117:lib/display/abstract/src/display_if_support.c **** /**************************************************************************/
 118:lib/display/abstract/src/display_if_support.c **** inline void Display_DrawLine_If(int xs,int ys,int xe,int ye, uint16_t colour)
 119:lib/display/abstract/src/display_if_support.c **** {
 120:lib/display/abstract/src/display_if_support.c **** 	/* Bresenham Algorithum */
 121:lib/display/abstract/src/display_if_support.c **** 	int  hhy,wwx,x,y,n,sx,sy;
 122:lib/display/abstract/src/display_if_support.c **** 	int  e,x_ct,y_ct;
 123:lib/display/abstract/src/display_if_support.c **** 	
 124:lib/display/abstract/src/display_if_support.c **** 	hhy = ye - ys;
 125:lib/display/abstract/src/display_if_support.c **** 	wwx = xe - xs;
 126:lib/display/abstract/src/display_if_support.c **** 	x_ct  = ABS(wwx);
 127:lib/display/abstract/src/display_if_support.c **** 	y_ct  = ABS(hhy);
 128:lib/display/abstract/src/display_if_support.c **** 	
 129:lib/display/abstract/src/display_if_support.c **** 	if (wwx) sx = 1; else	 sx =-1;
 130:lib/display/abstract/src/display_if_support.c **** 	if (hhy) sy = 1; else	 sy =-1;
 131:lib/display/abstract/src/display_if_support.c **** 
 132:lib/display/abstract/src/display_if_support.c **** 	x = xs;
 133:lib/display/abstract/src/display_if_support.c **** 	y = ys;
 134:lib/display/abstract/src/display_if_support.c **** 
 135:lib/display/abstract/src/display_if_support.c **** 	if ( x_ct >= y_ct )
 136:lib/display/abstract/src/display_if_support.c **** 	{
 137:lib/display/abstract/src/display_if_support.c **** 	
 138:lib/display/abstract/src/display_if_support.c **** 		e=wwx;
 139:lib/display/abstract/src/display_if_support.c **** 
 140:lib/display/abstract/src/display_if_support.c **** 		for(n=0; n<=x_ct;++n ){
 141:lib/display/abstract/src/display_if_support.c **** 
 142:lib/display/abstract/src/display_if_support.c **** 			PutPixel(x,y,colour);
 143:lib/display/abstract/src/display_if_support.c **** 			x +=sx;
 144:lib/display/abstract/src/display_if_support.c **** 			e += 2*hhy;
 145:lib/display/abstract/src/display_if_support.c **** 
 146:lib/display/abstract/src/display_if_support.c **** 			if (e>=2*wwx){
 147:lib/display/abstract/src/display_if_support.c **** 				e -= 2*wwx;
 148:lib/display/abstract/src/display_if_support.c **** 				y +=sy;
 149:lib/display/abstract/src/display_if_support.c **** 			}
 150:lib/display/abstract/src/display_if_support.c **** 		}
 151:lib/display/abstract/src/display_if_support.c **** 
 152:lib/display/abstract/src/display_if_support.c **** 	}
 153:lib/display/abstract/src/display_if_support.c **** 	else
 154:lib/display/abstract/src/display_if_support.c **** 	{
 155:lib/display/abstract/src/display_if_support.c **** 		
 156:lib/display/abstract/src/display_if_support.c **** 		e=hhy;
 157:lib/display/abstract/src/display_if_support.c **** 
 158:lib/display/abstract/src/display_if_support.c **** 		for(n=0; n<=y_ct;++n ){
 159:lib/display/abstract/src/display_if_support.c **** 		
 160:lib/display/abstract/src/display_if_support.c **** 			PutPixel(x,y,colour);
 161:lib/display/abstract/src/display_if_support.c **** 			y +=sy;
 162:lib/display/abstract/src/display_if_support.c **** 			e += 2*wwx;
 163:lib/display/abstract/src/display_if_support.c **** 
 164:lib/display/abstract/src/display_if_support.c **** 			if (e>=2*hhy){
 165:lib/display/abstract/src/display_if_support.c **** 				e -= 2*hhy;
 166:lib/display/abstract/src/display_if_support.c **** 				x +=sx;
 167:lib/display/abstract/src/display_if_support.c **** 			}
 168:lib/display/abstract/src/display_if_support.c **** 		}
 169:lib/display/abstract/src/display_if_support.c **** 	}
 170:lib/display/abstract/src/display_if_support.c **** 
 171:lib/display/abstract/src/display_if_support.c **** }
 172:lib/display/abstract/src/display_if_support.c **** 
 173:lib/display/abstract/src/display_if_support.c **** /**************************************************************************/
 174:lib/display/abstract/src/display_if_support.c **** /*! 
 175:lib/display/abstract/src/display_if_support.c **** 	DRAW Circle Function With no Filler.
 176:lib/display/abstract/src/display_if_support.c **** */
 177:lib/display/abstract/src/display_if_support.c **** /**************************************************************************/
 178:lib/display/abstract/src/display_if_support.c **** #if 1 /* More Accuracy method by http://dencha.ojaru.jp thanks! */
 179:lib/display/abstract/src/display_if_support.c **** inline void Display_DrawCircle_If(int x_ct,int y_ct,long diameter, uint16_t colour)
 180:lib/display/abstract/src/display_if_support.c **** {
 181:lib/display/abstract/src/display_if_support.c ****     PLOT_XY center;
 182:lib/display/abstract/src/display_if_support.c ****     center.x=x_ct;
 183:lib/display/abstract/src/display_if_support.c ****     center.y=y_ct;
 184:lib/display/abstract/src/display_if_support.c ****     long cx = 0, cy=diameter/2, *px, *py, tmp;
 185:lib/display/abstract/src/display_if_support.c ****     long dx, dy, x_sign, num_eigth, r_root2,y_sign =0;
 186:lib/display/abstract/src/display_if_support.c ****     double d;
 187:lib/display/abstract/src/display_if_support.c **** 
 188:lib/display/abstract/src/display_if_support.c ****     r_root2 = (diameter>3)? root(diameter*diameter/8) :1;
 189:lib/display/abstract/src/display_if_support.c ****     tmp = r_root2*r_root2*8-diameter*diameter;
 190:lib/display/abstract/src/display_if_support.c ****     if (ABS(tmp)>ABS(tmp+8*(2*r_root2+1))) r_root2++;	/* near by (r*ń2) */
 191:lib/display/abstract/src/display_if_support.c **** 
 192:lib/display/abstract/src/display_if_support.c ****     d = -diameter*diameter + 4*cy*cy -4*cy +2;
 193:lib/display/abstract/src/display_if_support.c ****     dx = 4;
 194:lib/display/abstract/src/display_if_support.c ****     dy = -8*cy+8;
 195:lib/display/abstract/src/display_if_support.c **** 	
 196:lib/display/abstract/src/display_if_support.c ****     PLOT_XY mirror_center = center, now_center, start_po[8], end_po[8];
 197:lib/display/abstract/src/display_if_support.c ****     if ((diameter&1) ==0){
 198:lib/display/abstract/src/display_if_support.c ****         mirror_center.x++;
 199:lib/display/abstract/src/display_if_support.c ****         mirror_center.y++;
 200:lib/display/abstract/src/display_if_support.c ****     }
 201:lib/display/abstract/src/display_if_support.c **** 
 202:lib/display/abstract/src/display_if_support.c ****     /* Clipper */
 203:lib/display/abstract/src/display_if_support.c ****     for(num_eigth=0; num_eigth <8; num_eigth++){
 204:lib/display/abstract/src/display_if_support.c ****         start_po[num_eigth].y=diameter/2;
 205:lib/display/abstract/src/display_if_support.c ****         start_po[num_eigth].x=0;
 206:lib/display/abstract/src/display_if_support.c ****         end_po[num_eigth].x=end_po[num_eigth].y=r_root2;
 207:lib/display/abstract/src/display_if_support.c ****     }
 208:lib/display/abstract/src/display_if_support.c **** 
 209:lib/display/abstract/src/display_if_support.c ****     for(int li=0;li<4;li++){
 210:lib/display/abstract/src/display_if_support.c ****         if (li==0) { cy = center.y-(MAX_Y-1); y_sign=-1;}
 211:lib/display/abstract/src/display_if_support.c ****         if (li==1) { cy = mirror_center.x;    y_sign= 1;}
 212:lib/display/abstract/src/display_if_support.c ****         if (li==2) { cy = mirror_center.y;    y_sign= 1;}
 213:lib/display/abstract/src/display_if_support.c ****         if (li==3) { cy = center.x-(MAX_X-1); y_sign=-1;}
 214:lib/display/abstract/src/display_if_support.c **** 
 215:lib/display/abstract/src/display_if_support.c ****         if (ABS(cy)>=(diameter/2)) {
 216:lib/display/abstract/src/display_if_support.c ****             if (((li==0 || li==3) && cy<0) || ((li==1 || li==2) && cy>0)) continue;	/* Circle is In
 217:lib/display/abstract/src/display_if_support.c ****             else return ;	/* Circle is Outside of Region */
 218:lib/display/abstract/src/display_if_support.c ****         }
 219:lib/display/abstract/src/display_if_support.c **** 
 220:lib/display/abstract/src/display_if_support.c ****         tmp = diameter*diameter -4*cy*cy;
 221:lib/display/abstract/src/display_if_support.c ****         cx = root_i(tmp/4); /* n=tmp/4; if (tmp%4) n++; */
 222:lib/display/abstract/src/display_if_support.c ****         tmp -= 4*cx*cx;
 223:lib/display/abstract/src/display_if_support.c ****         if (ABS(tmp)>=ABS(tmp -8*cx-4)) cx++;
 224:lib/display/abstract/src/display_if_support.c **** 
 225:lib/display/abstract/src/display_if_support.c **** 		/* Clipper Divided Octal Regions */
 226:lib/display/abstract/src/display_if_support.c ****         if (cy*y_sign>r_root2){
 227:lib/display/abstract/src/display_if_support.c ****             /* 1,2 -> 3,4 -> 5,6 -> 7,0 */
 228:lib/display/abstract/src/display_if_support.c ****             if (start_po[li*2+1].x<ABS(cx)) {
 229:lib/display/abstract/src/display_if_support.c ****                 start_po[li*2+1].y = ABS(cy);
 230:lib/display/abstract/src/display_if_support.c ****                 start_po[li*2+1].x = ABS(cx);
 231:lib/display/abstract/src/display_if_support.c ****             }
 232:lib/display/abstract/src/display_if_support.c ****             if (start_po[(li*2+2)%8].x<ABS(cx)) {
 233:lib/display/abstract/src/display_if_support.c ****                 start_po[(li*2+2)%8].y = ABS(cy);
 234:lib/display/abstract/src/display_if_support.c ****                 start_po[(li*2+2)%8].x = ABS(cx);
 235:lib/display/abstract/src/display_if_support.c ****             }
 236:lib/display/abstract/src/display_if_support.c ****         }
 237:lib/display/abstract/src/display_if_support.c ****         else {
 238:lib/display/abstract/src/display_if_support.c ****             start_po[li*2+1].y = start_po[(li*2+2)%8].y = 0;        /* Set Out of Region */
 239:lib/display/abstract/src/display_if_support.c ****             start_po[li*2+1].x = start_po[(li*2+2)%8].x = diameter;	/* Set Out of Region */
 240:lib/display/abstract/src/display_if_support.c ****             if (cy*y_sign<=r_root2 && cy*y_sign>0){
 241:lib/display/abstract/src/display_if_support.c ****                 /* Set Out of Region... 1,2 -> 3,4 -> 5,6 -> 7,0 */
 242:lib/display/abstract/src/display_if_support.c ****                 /* 0,3 -> 2,5 -> 4,7 -> 6,1 */
 243:lib/display/abstract/src/display_if_support.c ****                 if (end_po[li*2].x > ABS(cy)) {
 244:lib/display/abstract/src/display_if_support.c ****                     end_po[li*2].y = ABS(cx);
 245:lib/display/abstract/src/display_if_support.c ****                     end_po[li*2].x = ABS(cy);
 246:lib/display/abstract/src/display_if_support.c ****                 }
 247:lib/display/abstract/src/display_if_support.c ****                 if (end_po[(li*2+3)%8].x > ABS(cy)) {
 248:lib/display/abstract/src/display_if_support.c ****                     end_po[(li*2+3)%8].y = ABS(cx);
 249:lib/display/abstract/src/display_if_support.c ****                     end_po[(li*2+3)%8].x = ABS(cy);
 250:lib/display/abstract/src/display_if_support.c ****                 }
 251:lib/display/abstract/src/display_if_support.c ****             }
 252:lib/display/abstract/src/display_if_support.c ****             else {
 253:lib/display/abstract/src/display_if_support.c ****                 start_po[li*2].y = start_po[(li*2+3)%8].y = 0;
 254:lib/display/abstract/src/display_if_support.c ****                 start_po[li*2].x = start_po[(li*2+3)%8].x = diameter;
 255:lib/display/abstract/src/display_if_support.c ****                 if (cy*y_sign<=0 && cy*y_sign>-r_root2){
 256:lib/display/abstract/src/display_if_support.c **** 				    /* Set Out of Region... 0,3 -> 2,5 -> 4,7 -> 6,1 */
 257:lib/display/abstract/src/display_if_support.c **** 					/* 4,7 -> 6,1 -> 0,3 -> 2,5 */
 258:lib/display/abstract/src/display_if_support.c ****                     if (start_po[(li*2+4)%8].x < ABS(cy)) {
 259:lib/display/abstract/src/display_if_support.c ****                         start_po[(li*2+4)%8].y = ABS(cx);
 260:lib/display/abstract/src/display_if_support.c ****                         start_po[(li*2+4)%8].x = ABS(cy);
 261:lib/display/abstract/src/display_if_support.c ****                     }
 262:lib/display/abstract/src/display_if_support.c ****                     if (start_po[(li*2+7)%8].x < ABS(cy)) {
 263:lib/display/abstract/src/display_if_support.c ****                         start_po[(li*2+7)%8].y = ABS(cx);
 264:lib/display/abstract/src/display_if_support.c ****                         start_po[(li*2+7)%8].x = ABS(cy);
 265:lib/display/abstract/src/display_if_support.c ****                     }
 266:lib/display/abstract/src/display_if_support.c ****                 }
 267:lib/display/abstract/src/display_if_support.c ****                 else {
 268:lib/display/abstract/src/display_if_support.c ****                     start_po[(li*2+4)%8].y = start_po[(li*2+7)%8].y = 0;
 269:lib/display/abstract/src/display_if_support.c ****                     start_po[(li*2+4)%8].x = start_po[(li*2+7)%8].x = diameter;
 270:lib/display/abstract/src/display_if_support.c **** 					/* Set Out of Region...  4,7 -> 6,1 -> 0,3 -> 2,5 */
 271:lib/display/abstract/src/display_if_support.c **** 					/* 5,6 -> 7,0 -> 1,2 -> 3,4 */
 272:lib/display/abstract/src/display_if_support.c ****                     if (end_po[(li*2+5)%8].x>ABS(cx)) {
 273:lib/display/abstract/src/display_if_support.c ****                         end_po[(li*2+5)%8].y = ABS(cy);
 274:lib/display/abstract/src/display_if_support.c ****                         end_po[(li*2+5)%8].x = ABS(cx);
 275:lib/display/abstract/src/display_if_support.c ****                     }
 276:lib/display/abstract/src/display_if_support.c ****                     if (end_po[(li*2+6)%8].x>ABS(cx)) {
 277:lib/display/abstract/src/display_if_support.c ****                         end_po[(li*2+6)%8].y = ABS(cy);
 278:lib/display/abstract/src/display_if_support.c ****                         end_po[(li*2+6)%8].x = ABS(cx);
 279:lib/display/abstract/src/display_if_support.c ****                     }
 280:lib/display/abstract/src/display_if_support.c ****                 }
 281:lib/display/abstract/src/display_if_support.c ****             }
 282:lib/display/abstract/src/display_if_support.c ****         }
 283:lib/display/abstract/src/display_if_support.c ****     }
 284:lib/display/abstract/src/display_if_support.c **** 
 285:lib/display/abstract/src/display_if_support.c ****     /* Draw Circle main loop */
 286:lib/display/abstract/src/display_if_support.c ****     for(num_eigth=0; num_eigth<8 ; num_eigth++){
 287:lib/display/abstract/src/display_if_support.c **** 		/* Circle Divided Octal Regions */
 288:lib/display/abstract/src/display_if_support.c ****         if (num_eigth<4){
 289:lib/display/abstract/src/display_if_support.c ****                 now_center.y = y_ct; y_sign=1; }            /* 0,1,2,3 */
 290:lib/display/abstract/src/display_if_support.c ****         else{   now_center.y = mirror_center.y; y_sign=-1; }    /* 4,5,6,7 */
 291:lib/display/abstract/src/display_if_support.c ****         if ((num_eigth%6)<=1){
 292:lib/display/abstract/src/display_if_support.c ****                 now_center.x = x_ct;  x_sign=1; }           /* 0,1,6,7 */
 293:lib/display/abstract/src/display_if_support.c ****         else {  now_center.x = mirror_center.x; x_sign=-1; }    /* 2,3,4,5 */
 294:lib/display/abstract/src/display_if_support.c ****         if ((num_eigth%4)%3){
 295:lib/display/abstract/src/display_if_support.c ****                 px = &cx; py = &cy; }   /* 0,3,4,7 */
 296:lib/display/abstract/src/display_if_support.c ****         else {  px = &cy; py = &cx; }   /* 1,2,5,6 */
 297:lib/display/abstract/src/display_if_support.c **** 
 298:lib/display/abstract/src/display_if_support.c ****         /* initial value  */
 299:lib/display/abstract/src/display_if_support.c ****         cy=start_po[num_eigth].y;
 300:lib/display/abstract/src/display_if_support.c ****         cx=start_po[num_eigth].x;
 301:lib/display/abstract/src/display_if_support.c **** 
 302:lib/display/abstract/src/display_if_support.c ****         /* diameter */
 303:lib/display/abstract/src/display_if_support.c ****         d = 4*cx*cx+4*cy*cy -4*cy+2 - diameter * diameter;
 304:lib/display/abstract/src/display_if_support.c ****         dx = 8*cx+4;
 305:lib/display/abstract/src/display_if_support.c ****         dy = -8*cy+8;
 306:lib/display/abstract/src/display_if_support.c **** 
 307:lib/display/abstract/src/display_if_support.c ****         /* Set Point */
 308:lib/display/abstract/src/display_if_support.c ****         for (;cx<=end_po[num_eigth].x;cx++){
 309:lib/display/abstract/src/display_if_support.c ****             if (d>0) {
 310:lib/display/abstract/src/display_if_support.c ****                 d += dy;
 311:lib/display/abstract/src/display_if_support.c ****                 dy+=8;
 312:lib/display/abstract/src/display_if_support.c ****                 cy--;
 313:lib/display/abstract/src/display_if_support.c ****             }
 314:lib/display/abstract/src/display_if_support.c ****             PutPixel((*px)*x_sign + now_center.x, (*py)*y_sign + now_center.y, colour);
 315:lib/display/abstract/src/display_if_support.c ****             d += dx;
 316:lib/display/abstract/src/display_if_support.c ****             dx+=8;
 317:lib/display/abstract/src/display_if_support.c ****         }
 318:lib/display/abstract/src/display_if_support.c ****     }
 319:lib/display/abstract/src/display_if_support.c **** }
 320:lib/display/abstract/src/display_if_support.c **** 
 321:lib/display/abstract/src/display_if_support.c **** #else
 322:lib/display/abstract/src/display_if_support.c **** inline void Display_DrawCircle_If(int x_ct,int y_ct,int radius, uint16_t colour)
 323:lib/display/abstract/src/display_if_support.c **** {
 324:lib/display/abstract/src/display_if_support.c **** 	/* Bresenham Midpoint Algorithum */
 325:lib/display/abstract/src/display_if_support.c ****    long cx, cy, d, dH, dD;
 326:lib/display/abstract/src/display_if_support.c **** 
 327:lib/display/abstract/src/display_if_support.c ****     d   = 1 - radius;
 328:lib/display/abstract/src/display_if_support.c ****     dH  = 3;
 329:lib/display/abstract/src/display_if_support.c ****     dD  = 5 - 2 * radius;
 330:lib/display/abstract/src/display_if_support.c ****     cy  = radius;
 331:lib/display/abstract/src/display_if_support.c **** 
 332:lib/display/abstract/src/display_if_support.c ****     for (cx = 0; cx <= cy; cx++) {
 333:lib/display/abstract/src/display_if_support.c ****         if (d < 0) {
 334:lib/display/abstract/src/display_if_support.c ****             d   += dH;
 335:lib/display/abstract/src/display_if_support.c ****             dH  += 2;
 336:lib/display/abstract/src/display_if_support.c ****             dD  += 2;
 337:lib/display/abstract/src/display_if_support.c ****         }
 338:lib/display/abstract/src/display_if_support.c ****         else{
 339:lib/display/abstract/src/display_if_support.c ****             d   += dD;
 340:lib/display/abstract/src/display_if_support.c ****             dH  += 2;
 341:lib/display/abstract/src/display_if_support.c ****             dD  += 4;
 342:lib/display/abstract/src/display_if_support.c ****             --cy;
 343:lib/display/abstract/src/display_if_support.c ****         }
 344:lib/display/abstract/src/display_if_support.c **** 
 345:lib/display/abstract/src/display_if_support.c ****         PutPixel( cy + x_ct,  cx + y_ct, colour);	/* Between   0- 45 */
 346:lib/display/abstract/src/display_if_support.c ****         PutPixel( cx + x_ct,  cy + y_ct, colour);	/* Between  45- 90 */
 347:lib/display/abstract/src/display_if_support.c ****         PutPixel(-cx + x_ct,  cy + y_ct, colour);	/* Between  90-135 */
 348:lib/display/abstract/src/display_if_support.c ****         PutPixel(-cy + x_ct,  cx + y_ct, colour);	/* Between 135-180 */
 349:lib/display/abstract/src/display_if_support.c ****         PutPixel(-cy + x_ct, -cx + y_ct, colour);	/* Between 180-225 */
 350:lib/display/abstract/src/display_if_support.c ****         PutPixel(-cx + x_ct, -cy + y_ct, colour);	/* Between 225-270 */
 351:lib/display/abstract/src/display_if_support.c ****         PutPixel( cx + x_ct, -cy + y_ct, colour);	/* Between 270-315 */
 352:lib/display/abstract/src/display_if_support.c ****         PutPixel( cy + x_ct, -cx + y_ct, colour);	/* Between 315-360 */
 353:lib/display/abstract/src/display_if_support.c ****     }
 354:lib/display/abstract/src/display_if_support.c **** }
 355:lib/display/abstract/src/display_if_support.c **** #endif
 356:lib/display/abstract/src/display_if_support.c **** 
 357:lib/display/abstract/src/display_if_support.c **** /**************************************************************************/
 358:lib/display/abstract/src/display_if_support.c **** /*! 
 359:lib/display/abstract/src/display_if_support.c **** 	DRAW Circle with Filler.
 360:lib/display/abstract/src/display_if_support.c **** */
 361:lib/display/abstract/src/display_if_support.c **** /**************************************************************************/
 362:lib/display/abstract/src/display_if_support.c **** inline void Display_FillCircle_If(int x_ct,int y_ct,long diameter, uint16_t colour)
 363:lib/display/abstract/src/display_if_support.c **** {
 364:lib/display/abstract/src/display_if_support.c **** 	/* Bresenham Midpoint Algorithum */
 365:lib/display/abstract/src/display_if_support.c **** 	long cx, cy, d, dH, dD, n;
 366:lib/display/abstract/src/display_if_support.c **** 	long radius= diameter/2;
 367:lib/display/abstract/src/display_if_support.c **** 	
 368:lib/display/abstract/src/display_if_support.c ****     d   = 1 - radius;
 369:lib/display/abstract/src/display_if_support.c ****     dH  = 3;
 370:lib/display/abstract/src/display_if_support.c ****     dD  = 5 - 2 * radius;
 371:lib/display/abstract/src/display_if_support.c ****     cy  = radius;
 372:lib/display/abstract/src/display_if_support.c **** 
 373:lib/display/abstract/src/display_if_support.c ****     for (cx = 0; cx <= cy; cx++) {
 374:lib/display/abstract/src/display_if_support.c ****         if (d < 0) {
 375:lib/display/abstract/src/display_if_support.c ****             d   += dH;
 376:lib/display/abstract/src/display_if_support.c ****             dH  += 2;
 377:lib/display/abstract/src/display_if_support.c ****             dD  += 2;
 378:lib/display/abstract/src/display_if_support.c ****         }
 379:lib/display/abstract/src/display_if_support.c ****         else{
 380:lib/display/abstract/src/display_if_support.c ****             d   += dD;
 381:lib/display/abstract/src/display_if_support.c ****             dH  += 2;
 382:lib/display/abstract/src/display_if_support.c ****             dD  += 4;
 383:lib/display/abstract/src/display_if_support.c ****             --cy;
 384:lib/display/abstract/src/display_if_support.c ****         }
 385:lib/display/abstract/src/display_if_support.c **** 
 386:lib/display/abstract/src/display_if_support.c **** 		/* Between 0-45deg */
 387:lib/display/abstract/src/display_if_support.c **** 		n = 2*cy;
 388:lib/display/abstract/src/display_if_support.c **** 		do{
 389:lib/display/abstract/src/display_if_support.c **** 			PutPixel((cy-n)+ x_ct,cx + y_ct,colour);
 390:lib/display/abstract/src/display_if_support.c **** 		} while (n--);
 391:lib/display/abstract/src/display_if_support.c **** 
 392:lib/display/abstract/src/display_if_support.c **** 		/* Between 45-90deg */
 393:lib/display/abstract/src/display_if_support.c **** 		n = 2*cx;
 394:lib/display/abstract/src/display_if_support.c **** 		do{
 395:lib/display/abstract/src/display_if_support.c **** 			PutPixel((cx-n)+ x_ct,cy + y_ct,colour);
 396:lib/display/abstract/src/display_if_support.c **** 		} while (n--);
 397:lib/display/abstract/src/display_if_support.c **** 
 398:lib/display/abstract/src/display_if_support.c **** 		/* Between 270-315deg */
 399:lib/display/abstract/src/display_if_support.c **** 		n = 2*cx;
 400:lib/display/abstract/src/display_if_support.c **** 		do{
 401:lib/display/abstract/src/display_if_support.c **** 			PutPixel((cx-n)+ x_ct,-cy + y_ct,colour);
 402:lib/display/abstract/src/display_if_support.c **** 		} while (n--);
 403:lib/display/abstract/src/display_if_support.c **** 
 404:lib/display/abstract/src/display_if_support.c **** 		/* Between 315-360deg */
 405:lib/display/abstract/src/display_if_support.c **** 		n = 2*cy;
 406:lib/display/abstract/src/display_if_support.c **** 		do{
 407:lib/display/abstract/src/display_if_support.c **** 			PutPixel((cy-n)+ x_ct,-cx + y_ct,colour);
 408:lib/display/abstract/src/display_if_support.c **** 		} while (n--);
 409:lib/display/abstract/src/display_if_support.c **** 
 410:lib/display/abstract/src/display_if_support.c ****     }
 411:lib/display/abstract/src/display_if_support.c **** }
 412:lib/display/abstract/src/display_if_support.c **** 
 413:lib/display/abstract/src/display_if_support.c **** /**************************************************************************/
 414:lib/display/abstract/src/display_if_support.c **** /*! 
 415:lib/display/abstract/src/display_if_support.c **** 	DRAW Rectangle Line with no Filler.
 416:lib/display/abstract/src/display_if_support.c **** */
 417:lib/display/abstract/src/display_if_support.c **** /**************************************************************************/
 418:lib/display/abstract/src/display_if_support.c **** inline void Display_DrawRect_If(uint32_t xs, uint32_t xe, uint32_t ys, uint32_t ye, uint16_t colour
 419:lib/display/abstract/src/display_if_support.c **** {
 420:lib/display/abstract/src/display_if_support.c **** 	volatile uint32_t n;
 421:lib/display/abstract/src/display_if_support.c **** 	
 422:lib/display/abstract/src/display_if_support.c **** 	n = xe - xs;
 423:lib/display/abstract/src/display_if_support.c **** 	do{
 424:lib/display/abstract/src/display_if_support.c **** 		PutPixel((xe-n),ys,colour);
 425:lib/display/abstract/src/display_if_support.c **** 	} while (n--);
 426:lib/display/abstract/src/display_if_support.c **** 
 427:lib/display/abstract/src/display_if_support.c **** 	n = xe - xs;
 428:lib/display/abstract/src/display_if_support.c **** 	do{
 429:lib/display/abstract/src/display_if_support.c **** 		PutPixel((xe-n),ye,colour);
 430:lib/display/abstract/src/display_if_support.c **** 	} while (n--);
 431:lib/display/abstract/src/display_if_support.c **** 
 432:lib/display/abstract/src/display_if_support.c **** 	n = ye - ys;
 433:lib/display/abstract/src/display_if_support.c **** 	do{
 434:lib/display/abstract/src/display_if_support.c **** 		PutPixel(xs,(ye-n),colour);
 435:lib/display/abstract/src/display_if_support.c **** 	} while (n--);
 436:lib/display/abstract/src/display_if_support.c **** 
 437:lib/display/abstract/src/display_if_support.c **** 	n = ye - ys;
 438:lib/display/abstract/src/display_if_support.c **** 	do{
 439:lib/display/abstract/src/display_if_support.c **** 		PutPixel(xe,(ye-n),colour);
 440:lib/display/abstract/src/display_if_support.c **** 	} while (n--);
 441:lib/display/abstract/src/display_if_support.c **** 	
 442:lib/display/abstract/src/display_if_support.c **** }
 443:lib/display/abstract/src/display_if_support.c **** 
 444:lib/display/abstract/src/display_if_support.c **** 
 445:lib/display/abstract/src/display_if_support.c **** 
 446:lib/display/abstract/src/display_if_support.c **** 
 447:lib/display/abstract/src/display_if_support.c **** 
 448:lib/display/abstract/src/display_if_support.c **** 
 449:lib/display/abstract/src/display_if_support.c **** /**************************************************************************/
 450:lib/display/abstract/src/display_if_support.c **** /*! 
 451:lib/display/abstract/src/display_if_support.c **** 	Put SJIS Kanji Font With Transparency.
 452:lib/display/abstract/src/display_if_support.c **** */
 453:lib/display/abstract/src/display_if_support.c **** /**************************************************************************/
 454:lib/display/abstract/src/display_if_support.c **** static void putkanji_t(uint16_t col, uint16_t row, uint8_t* pkanji, uint16_t colour)
 455:lib/display/abstract/src/display_if_support.c **** {
  51              		.loc 1 455 0
  52              		.cfi_startproc
  53              		@ args = 0, pretend = 0, frame = 16
  54              		@ frame_needed = 0, uses_anonymous_args = 0
  55              	.LVL3:
  56 0000 2DE9F04F 		push	{r4, r5, r6, r7, r8, r9, sl, fp, lr}
  57              	.LCFI0:
  58              		.cfi_def_cfa_offset 36
  59              		.cfi_offset 4, -36
  60              		.cfi_offset 5, -32
  61              		.cfi_offset 6, -28
  62              		.cfi_offset 7, -24
  63              		.cfi_offset 8, -20
  64              		.cfi_offset 9, -16
  65              		.cfi_offset 10, -12
  66              		.cfi_offset 11, -8
  67              		.cfi_offset 14, -4
  68 0004 85B0     		sub	sp, sp, #20
  69              	.LCFI1:
  70              		.cfi_def_cfa_offset 56
  71 0006 8046     		mov	r8, r0
  72 0008 8946     		mov	r9, r1
  73 000a 9A46     		mov	sl, r3
 456:lib/display/abstract/src/display_if_support.c **** 
 457:lib/display/abstract/src/display_if_support.c **** 	uint8_t*	ptemp;
 458:lib/display/abstract/src/display_if_support.c **** 	int 		i,j,l;
 459:lib/display/abstract/src/display_if_support.c **** 	int 		k,m;
 460:lib/display/abstract/src/display_if_support.c **** 
 461:lib/display/abstract/src/display_if_support.c **** 	l = CurrentKanjiDat->X_Size / 8;
  74              		.loc 1 461 0
  75 000c 2D4B     		ldr	r3, .L26
  76              	.LVL4:
  77 000e 1868     		ldr	r0, [r3, #0]
  78              	.LVL5:
  79 0010 477A     		ldrb	r7, [r0, #9]	@ zero_extendqisi2
  80 0012 FE08     		lsrs	r6, r7, #3
  81              	.LVL6:
 462:lib/display/abstract/src/display_if_support.c **** 	m = CurrentKanjiDat->X_Size % 8;
  82              		.loc 1 462 0
  83 0014 07F00707 		and	r7, r7, #7
  84              	.LVL7:
 463:lib/display/abstract/src/display_if_support.c **** 
 464:lib/display/abstract/src/display_if_support.c **** 	ptemp = GetPtr_Kanji(((*pkanji) << 8) | *(pkanji+1));
  85              		.loc 1 464 0
  86 0018 1178     		ldrb	r1, [r2, #0]	@ zero_extendqisi2
  87              	.LVL8:
  88 001a 5278     		ldrb	r2, [r2, #1]	@ zero_extendqisi2
  89              	.LVL9:
  90 001c 42EA0120 		orr	r0, r2, r1, lsl #8
  91 0020 FFF7FEFF 		bl	GetPtr_Kanji
  92              	.LVL10:
  93 0024 0446     		mov	r4, r0
  94              	.LVL11:
 465:lib/display/abstract/src/display_if_support.c **** 
 466:lib/display/abstract/src/display_if_support.c **** 	for(i=0; i<CurrentKanjiDat->Y_Size;i++)
 467:lib/display/abstract/src/display_if_support.c **** 	{
 468:lib/display/abstract/src/display_if_support.c **** 		for(k=0; k < l ;k++){
 469:lib/display/abstract/src/display_if_support.c **** 			
 470:lib/display/abstract/src/display_if_support.c **** 			for(j=0; j< 8;j++){
 471:lib/display/abstract/src/display_if_support.c **** 
 472:lib/display/abstract/src/display_if_support.c **** 				if((*(ptemp)<<j)&0x80){
 473:lib/display/abstract/src/display_if_support.c **** 						SetPixel(col +j +(k*8),row +i);
 474:lib/display/abstract/src/display_if_support.c **** 						Display_wr_dat_if(colour);
 475:lib/display/abstract/src/display_if_support.c **** 					}
 476:lib/display/abstract/src/display_if_support.c **** 			}
 477:lib/display/abstract/src/display_if_support.c **** 			ptemp++;
 478:lib/display/abstract/src/display_if_support.c **** 		}
 479:lib/display/abstract/src/display_if_support.c **** 
 480:lib/display/abstract/src/display_if_support.c **** 		for(j=0; j< m ;j++){
 481:lib/display/abstract/src/display_if_support.c **** 
 482:lib/display/abstract/src/display_if_support.c **** 			if((*(ptemp)<<j)&0x80){
 483:lib/display/abstract/src/display_if_support.c **** 					SetPixel(col +j +(k*8),row +i);
  95              		.loc 1 483 0
  96 0026 08EBC60B 		add	fp, r8, r6, lsl #3
  97 002a 1FFA8BFB 		uxth	fp, fp
 466:lib/display/abstract/src/display_if_support.c **** 	{
  98              		.loc 1 466 0
  99 002e 0025     		movs	r5, #0
 100              	.LVL12:
 101              	.L3:
 466:lib/display/abstract/src/display_if_support.c **** 	{
 102              		.loc 1 466 0 is_stmt 0 discriminator 1
 103 0030 244B     		ldr	r3, .L26
 104 0032 1868     		ldr	r0, [r3, #0]
 105 0034 817A     		ldrb	r1, [r0, #10]	@ zero_extendqisi2
 106 0036 8D42     		cmp	r5, r1
 107 0038 40DA     		bge	.L24
 108              	.L12:
 466:lib/display/abstract/src/display_if_support.c **** 	{
 109              		.loc 1 466 0
 110 003a 0022     		movs	r2, #0
 111              	.LVL13:
 112              	.L11:
 468:lib/display/abstract/src/display_if_support.c **** 			
 113              		.loc 1 468 0 is_stmt 1 discriminator 1
 114 003c B242     		cmp	r2, r6
 115 003e 21DA     		bge	.L6
 454:lib/display/abstract/src/display_if_support.c **** {
 116              		.loc 1 454 0
 117 0040 08EBC20C 		add	ip, r8, r2, lsl #3
 118 0044 1FFA8CFC 		uxth	ip, ip
 119 0048 0023     		movs	r3, #0
 120              	.LVL14:
 121              	.L5:
 472:lib/display/abstract/src/display_if_support.c **** 						SetPixel(col +j +(k*8),row +i);
 122              		.loc 1 472 0
 123 004a A05C     		ldrb	r0, [r4, r2]	@ zero_extendqisi2
 124 004c 00FA03F0 		lsl	r0, r0, r3
 125 0050 0106     		lsls	r1, r0, #24
 126 0052 12D5     		bpl	.L4
 454:lib/display/abstract/src/display_if_support.c **** {
 127              		.loc 1 454 0
 128 0054 0CEB0300 		add	r0, ip, r3
 129 0058 09EB0501 		add	r1, r9, r5
 473:lib/display/abstract/src/display_if_support.c **** 						Display_wr_dat_if(colour);
 130              		.loc 1 473 0
 131 005c 80B2     		uxth	r0, r0
 132 005e 89B2     		uxth	r1, r1
 133 0060 0392     		str	r2, [sp, #12]
 134 0062 0193     		str	r3, [sp, #4]
 135 0064 CDF808C0 		str	ip, [sp, #8]
 136 0068 FFF7FEFF 		bl	SetPixel
 137              	.LVL15:
 474:lib/display/abstract/src/display_if_support.c **** 					}
 138              		.loc 1 474 0
 139 006c 5046     		mov	r0, sl
 140 006e FFF7FEFF 		bl	ST7732_wr_gram
 141              	.LVL16:
 142 0072 DDF808C0 		ldr	ip, [sp, #8]
 143 0076 019B     		ldr	r3, [sp, #4]
 144 0078 039A     		ldr	r2, [sp, #12]
 145              	.L4:
 470:lib/display/abstract/src/display_if_support.c **** 
 146              		.loc 1 470 0
 147 007a 0133     		adds	r3, r3, #1
 148              	.LVL17:
 149 007c 082B     		cmp	r3, #8
 150 007e E4D1     		bne	.L5
 468:lib/display/abstract/src/display_if_support.c **** 			
 151              		.loc 1 468 0
 152 0080 0132     		adds	r2, r2, #1
 153              	.LVL18:
 154 0082 DBE7     		b	.L11
 155              	.LVL19:
 156              	.L6:
 157 0084 A419     		adds	r4, r4, r6
 454:lib/display/abstract/src/display_if_support.c **** {
 158              		.loc 1 454 0 discriminator 1
 159 0086 0023     		movs	r3, #0
 160              	.LVL20:
 161              	.L7:
 480:lib/display/abstract/src/display_if_support.c **** 
 162              		.loc 1 480 0 discriminator 1
 163 0088 BB42     		cmp	r3, r7
 164 008a 13DA     		bge	.L25
 165              	.L9:
 482:lib/display/abstract/src/display_if_support.c **** 					SetPixel(col +j +(k*8),row +i);
 166              		.loc 1 482 0
 167 008c 2078     		ldrb	r0, [r4, #0]	@ zero_extendqisi2
 168 008e 00FA03F0 		lsl	r0, r0, r3
 169 0092 0206     		lsls	r2, r0, #24
 170 0094 0CD5     		bpl	.L8
 454:lib/display/abstract/src/display_if_support.c **** {
 171              		.loc 1 454 0
 172 0096 0BEB0302 		add	r2, fp, r3
 173 009a 09EB0501 		add	r1, r9, r5
 174              		.loc 1 483 0
 175 009e 90B2     		uxth	r0, r2
 176 00a0 89B2     		uxth	r1, r1
 177 00a2 0193     		str	r3, [sp, #4]
 178 00a4 FFF7FEFF 		bl	SetPixel
 179              	.LVL21:
 484:lib/display/abstract/src/display_if_support.c **** 					Display_wr_dat_if(colour);
 180              		.loc 1 484 0
 181 00a8 5046     		mov	r0, sl
 182 00aa FFF7FEFF 		bl	ST7732_wr_gram
 183              	.LVL22:
 184 00ae 019B     		ldr	r3, [sp, #4]
 185              	.L8:
 480:lib/display/abstract/src/display_if_support.c **** 
 186              		.loc 1 480 0
 187 00b0 0133     		adds	r3, r3, #1
 188              	.LVL23:
 189 00b2 E9E7     		b	.L7
 190              	.L25:
 485:lib/display/abstract/src/display_if_support.c **** 				}
 486:lib/display/abstract/src/display_if_support.c **** 				
 487:lib/display/abstract/src/display_if_support.c **** 		}
 488:lib/display/abstract/src/display_if_support.c **** 		
 489:lib/display/abstract/src/display_if_support.c **** 		if (m != 0) ptemp++;	
 191              		.loc 1 489 0
 192 00b4 07B1     		cbz	r7, .L10
 193              		.loc 1 489 0 is_stmt 0 discriminator 1
 194 00b6 0134     		adds	r4, r4, #1
 195              	.LVL24:
 196              	.L10:
 466:lib/display/abstract/src/display_if_support.c **** 	{
 197              		.loc 1 466 0 is_stmt 1
 198 00b8 0135     		adds	r5, r5, #1
 199              	.LVL25:
 200 00ba B9E7     		b	.L3
 201              	.LVL26:
 202              	.L24:
 490:lib/display/abstract/src/display_if_support.c **** 	
 491:lib/display/abstract/src/display_if_support.c **** 	}
 492:lib/display/abstract/src/display_if_support.c **** 
 493:lib/display/abstract/src/display_if_support.c **** }
 203              		.loc 1 493 0
 204 00bc 05B0     		add	sp, sp, #20
 205 00be BDE8F08F 		pop	{r4, r5, r6, r7, r8, r9, sl, fp, pc}
 206              	.L27:
 207 00c2 00BF     		.align	2
 208              	.L26:
 209 00c4 00000000 		.word	CurrentKanjiDat
 210              		.cfi_endproc
 211              	.LFE67:
 213              		.section	.text.putank_t.isra.0,"ax",%progbits
 214              		.align	1
 215              		.thumb
 216              		.thumb_func
 218              	putank_t.isra.0:
 219              	.LFB73:
 494:lib/display/abstract/src/display_if_support.c **** 
 495:lib/display/abstract/src/display_if_support.c **** 
 496:lib/display/abstract/src/display_if_support.c **** /**************************************************************************/
 497:lib/display/abstract/src/display_if_support.c **** /*! 
 498:lib/display/abstract/src/display_if_support.c **** 	Put SJIS ANK Font With Transparency.
 499:lib/display/abstract/src/display_if_support.c **** */
 500:lib/display/abstract/src/display_if_support.c **** /**************************************************************************/
 501:lib/display/abstract/src/display_if_support.c **** static void putank_t(uint16_t col, uint16_t row, uint8_t* pank, uint16_t colour)
 220              		.loc 1 501 0
 221              		.cfi_startproc
 222              		@ args = 0, pretend = 0, frame = 16
 223              		@ frame_needed = 0, uses_anonymous_args = 0
 224              	.LVL27:
 225 0000 2DE9F04F 		push	{r4, r5, r6, r7, r8, r9, sl, fp, lr}
 226              	.LCFI2:
 227              		.cfi_def_cfa_offset 36
 228              		.cfi_offset 4, -36
 229              		.cfi_offset 5, -32
 230              		.cfi_offset 6, -28
 231              		.cfi_offset 7, -24
 232              		.cfi_offset 8, -20
 233              		.cfi_offset 9, -16
 234              		.cfi_offset 10, -12
 235              		.cfi_offset 11, -8
 236              		.cfi_offset 14, -4
 237 0004 85B0     		sub	sp, sp, #20
 238              	.LCFI3:
 239              		.cfi_def_cfa_offset 56
 240 0006 8046     		mov	r8, r0
 241 0008 8946     		mov	r9, r1
 242 000a 9A46     		mov	sl, r3
 243              	.LVL28:
 502:lib/display/abstract/src/display_if_support.c **** {
 503:lib/display/abstract/src/display_if_support.c **** 
 504:lib/display/abstract/src/display_if_support.c **** 	uint8_t*	ptemp;
 505:lib/display/abstract/src/display_if_support.c **** 	int 		i,j,l;
 506:lib/display/abstract/src/display_if_support.c **** 	int 		k,m;
 507:lib/display/abstract/src/display_if_support.c **** 
 508:lib/display/abstract/src/display_if_support.c **** 	l = CurrentAnkDat->X_Size / 8;
 244              		.loc 1 508 0
 245 000c 2B4B     		ldr	r3, .L51
 246              	.LVL29:
 247 000e 1868     		ldr	r0, [r3, #0]
 248              	.LVL30:
 249 0010 4779     		ldrb	r7, [r0, #5]	@ zero_extendqisi2
 250 0012 FE08     		lsrs	r6, r7, #3
 251              	.LVL31:
 509:lib/display/abstract/src/display_if_support.c **** 	m = CurrentAnkDat->X_Size % 8;
 252              		.loc 1 509 0
 253 0014 07F00707 		and	r7, r7, #7
 254              	.LVL32:
 510:lib/display/abstract/src/display_if_support.c **** 
 511:lib/display/abstract/src/display_if_support.c **** 	ptemp = GetPtr_Ank(*pank);
 255              		.loc 1 511 0
 256 0018 1046     		mov	r0, r2
 257 001a FFF7FEFF 		bl	GetPtr_Ank
 258              	.LVL33:
 259 001e 0446     		mov	r4, r0
 260              	.LVL34:
 512:lib/display/abstract/src/display_if_support.c **** 
 513:lib/display/abstract/src/display_if_support.c **** 	for(i=0; i<CurrentAnkDat->Y_Size;i++)
 514:lib/display/abstract/src/display_if_support.c **** 	{
 515:lib/display/abstract/src/display_if_support.c **** 		for(k=0; k < l ;k++){
 516:lib/display/abstract/src/display_if_support.c **** 			
 517:lib/display/abstract/src/display_if_support.c **** 			for(j=0; j< 8;j++){
 518:lib/display/abstract/src/display_if_support.c **** 
 519:lib/display/abstract/src/display_if_support.c **** 				if((*(ptemp)<<j)&0x80){
 520:lib/display/abstract/src/display_if_support.c **** 						SetPixel(col +j +(k*8),row +i);
 521:lib/display/abstract/src/display_if_support.c **** 						Display_wr_dat_if(colour);
 522:lib/display/abstract/src/display_if_support.c **** 					}
 523:lib/display/abstract/src/display_if_support.c **** 			}
 524:lib/display/abstract/src/display_if_support.c **** 			ptemp++;
 525:lib/display/abstract/src/display_if_support.c **** 		}
 526:lib/display/abstract/src/display_if_support.c **** 
 527:lib/display/abstract/src/display_if_support.c **** 		for(j=0; j< m ;j++){
 528:lib/display/abstract/src/display_if_support.c **** 
 529:lib/display/abstract/src/display_if_support.c **** 			if((*(ptemp)<<j)&0x80){
 530:lib/display/abstract/src/display_if_support.c **** 					SetPixel(col +j +(k*8),row +i);
 261              		.loc 1 530 0
 262 0020 08EBC60B 		add	fp, r8, r6, lsl #3
 263 0024 1FFA8BFB 		uxth	fp, fp
 513:lib/display/abstract/src/display_if_support.c **** 	{
 264              		.loc 1 513 0
 265 0028 0025     		movs	r5, #0
 266              	.LVL35:
 267              	.L29:
 268 002a 2449     		ldr	r1, .L51
 269 002c 0A68     		ldr	r2, [r1, #0]
 270 002e 9379     		ldrb	r3, [r2, #6]	@ zero_extendqisi2
 271 0030 9D42     		cmp	r5, r3
 272 0032 40DA     		bge	.L49
 273              	.L38:
 274 0034 0022     		movs	r2, #0
 275              	.LVL36:
 276              	.L37:
 515:lib/display/abstract/src/display_if_support.c **** 			
 277              		.loc 1 515 0
 278 0036 B242     		cmp	r2, r6
 279 0038 21DA     		bge	.L32
 501:lib/display/abstract/src/display_if_support.c **** {
 280              		.loc 1 501 0
 281 003a 08EBC20C 		add	ip, r8, r2, lsl #3
 282 003e 1FFA8CFC 		uxth	ip, ip
 283 0042 0023     		movs	r3, #0
 284              	.LVL37:
 285              	.L31:
 519:lib/display/abstract/src/display_if_support.c **** 						SetPixel(col +j +(k*8),row +i);
 286              		.loc 1 519 0
 287 0044 A05C     		ldrb	r0, [r4, r2]	@ zero_extendqisi2
 288 0046 00FA03F0 		lsl	r0, r0, r3
 289 004a 0106     		lsls	r1, r0, #24
 290 004c 12D5     		bpl	.L30
 501:lib/display/abstract/src/display_if_support.c **** {
 291              		.loc 1 501 0
 292 004e 0CEB0300 		add	r0, ip, r3
 293 0052 09EB0501 		add	r1, r9, r5
 520:lib/display/abstract/src/display_if_support.c **** 						Display_wr_dat_if(colour);
 294              		.loc 1 520 0
 295 0056 80B2     		uxth	r0, r0
 296 0058 89B2     		uxth	r1, r1
 297 005a 0392     		str	r2, [sp, #12]
 298 005c 0193     		str	r3, [sp, #4]
 299 005e CDF808C0 		str	ip, [sp, #8]
 300 0062 FFF7FEFF 		bl	SetPixel
 301              	.LVL38:
 521:lib/display/abstract/src/display_if_support.c **** 					}
 302              		.loc 1 521 0
 303 0066 5046     		mov	r0, sl
 304 0068 FFF7FEFF 		bl	ST7732_wr_gram
 305              	.LVL39:
 306 006c DDF808C0 		ldr	ip, [sp, #8]
 307 0070 019B     		ldr	r3, [sp, #4]
 308 0072 039A     		ldr	r2, [sp, #12]
 309              	.L30:
 517:lib/display/abstract/src/display_if_support.c **** 
 310              		.loc 1 517 0
 311 0074 0133     		adds	r3, r3, #1
 312              	.LVL40:
 313 0076 082B     		cmp	r3, #8
 314 0078 E4D1     		bne	.L31
 515:lib/display/abstract/src/display_if_support.c **** 			
 315              		.loc 1 515 0
 316 007a 0132     		adds	r2, r2, #1
 317              	.LVL41:
 318 007c DBE7     		b	.L37
 319              	.LVL42:
 320              	.L32:
 321 007e A419     		adds	r4, r4, r6
 501:lib/display/abstract/src/display_if_support.c **** {
 322              		.loc 1 501 0
 323 0080 0023     		movs	r3, #0
 324              	.LVL43:
 325              	.L33:
 527:lib/display/abstract/src/display_if_support.c **** 
 326              		.loc 1 527 0
 327 0082 BB42     		cmp	r3, r7
 328 0084 13DA     		bge	.L50
 329              	.L35:
 529:lib/display/abstract/src/display_if_support.c **** 					SetPixel(col +j +(k*8),row +i);
 330              		.loc 1 529 0
 331 0086 2078     		ldrb	r0, [r4, #0]	@ zero_extendqisi2
 332 0088 00FA03F0 		lsl	r0, r0, r3
 333 008c 0006     		lsls	r0, r0, #24
 334 008e 0CD5     		bpl	.L34
 501:lib/display/abstract/src/display_if_support.c **** {
 335              		.loc 1 501 0
 336 0090 0BEB0302 		add	r2, fp, r3
 337 0094 09EB0501 		add	r1, r9, r5
 338              		.loc 1 530 0
 339 0098 90B2     		uxth	r0, r2
 340 009a 89B2     		uxth	r1, r1
 341 009c 0193     		str	r3, [sp, #4]
 342 009e FFF7FEFF 		bl	SetPixel
 343              	.LVL44:
 531:lib/display/abstract/src/display_if_support.c **** 					Display_wr_dat_if(colour);
 344              		.loc 1 531 0
 345 00a2 5046     		mov	r0, sl
 346 00a4 FFF7FEFF 		bl	ST7732_wr_gram
 347              	.LVL45:
 348 00a8 019B     		ldr	r3, [sp, #4]
 349              	.L34:
 527:lib/display/abstract/src/display_if_support.c **** 
 350              		.loc 1 527 0
 351 00aa 0133     		adds	r3, r3, #1
 352              	.LVL46:
 353 00ac E9E7     		b	.L33
 354              	.L50:
 532:lib/display/abstract/src/display_if_support.c **** 				}
 533:lib/display/abstract/src/display_if_support.c **** 		}
 534:lib/display/abstract/src/display_if_support.c **** 		if (m != 0) ptemp++;	
 355              		.loc 1 534 0
 356 00ae 07B1     		cbz	r7, .L36
 357 00b0 0134     		adds	r4, r4, #1
 358              	.LVL47:
 359              	.L36:
 513:lib/display/abstract/src/display_if_support.c **** 	{
 360              		.loc 1 513 0
 361 00b2 0135     		adds	r5, r5, #1
 362              	.LVL48:
 363 00b4 B9E7     		b	.L29
 364              	.LVL49:
 365              	.L49:
 535:lib/display/abstract/src/display_if_support.c **** 
 536:lib/display/abstract/src/display_if_support.c **** 	}
 537:lib/display/abstract/src/display_if_support.c **** }
 366              		.loc 1 537 0
 367 00b6 05B0     		add	sp, sp, #20
 368 00b8 BDE8F08F 		pop	{r4, r5, r6, r7, r8, r9, sl, fp, pc}
 369              	.L52:
 370              		.align	2
 371              	.L51:
 372 00bc 00000000 		.word	CurrentAnkDat
 373              		.cfi_endproc
 374              	.LFE73:
 376              		.section	.text.Display_ChrCol,"ax",%progbits
 377              		.align	1
 378              		.global	Display_ChrCol
 379              		.thumb
 380              		.thumb_func
 382              	Display_ChrCol:
 383              	.LFB59:
  64:lib/display/abstract/src/display_if_support.c **** 	pScrCol->Fg = fg;
 384              		.loc 1 64 0
 385              		.cfi_startproc
 386              		@ args = 0, pretend = 0, frame = 0
 387              		@ frame_needed = 0, uses_anonymous_args = 0
 388              		@ link register save eliminated.
 389              	.LVL50:
  65:lib/display/abstract/src/display_if_support.c **** 	pScrCol->Bg = bg;
 390              		.loc 1 65 0
 391 0000 024B     		ldr	r3, .L54
 392 0002 1A68     		ldr	r2, [r3, #0]
 393 0004 1080     		strh	r0, [r2, #0]	@ movhi
  66:lib/display/abstract/src/display_if_support.c **** }
 394              		.loc 1 66 0
 395 0006 1868     		ldr	r0, [r3, #0]
 396              	.LVL51:
 397 0008 4180     		strh	r1, [r0, #2]	@ movhi
 398 000a 7047     		bx	lr
 399              	.L55:
 400              		.align	2
 401              	.L54:
 402 000c 00000000 		.word	.LANCHOR0
 403              		.cfi_endproc
 404              	.LFE59:
 406              		.section	.text.PutPixel,"ax",%progbits
 407              		.align	1
 408              		.global	PutPixel
 409              		.thumb
 410              		.thumb_func
 412              	PutPixel:
 413              	.LFB61:
  86:lib/display/abstract/src/display_if_support.c **** 	SetPixel(col,row);
 414              		.loc 1 86 0
 415              		.cfi_startproc
 416              		@ args = 0, pretend = 0, frame = 0
 417              		@ frame_needed = 0, uses_anonymous_args = 0
 418              	.LVL52:
 419 0000 10B5     		push	{r4, lr}
 420              	.LCFI4:
 421              		.cfi_def_cfa_offset 8
 422              		.cfi_offset 4, -8
 423              		.cfi_offset 14, -4
 424 0002 1446     		mov	r4, r2
  87:lib/display/abstract/src/display_if_support.c **** 	Display_wr_dat_if(colour);
 425              		.loc 1 87 0
 426 0004 FFF7FEFF 		bl	SetPixel
 427              	.LVL53:
  88:lib/display/abstract/src/display_if_support.c **** }
 428              		.loc 1 88 0
 429 0008 2046     		mov	r0, r4
  89:lib/display/abstract/src/display_if_support.c **** 
 430              		.loc 1 89 0
 431 000a BDE81040 		pop	{r4, lr}
  88:lib/display/abstract/src/display_if_support.c **** }
 432              		.loc 1 88 0
 433 000e FFF7FEBF 		b	ST7732_wr_gram
 434              	.LVL54:
 435              		.cfi_endproc
 436              	.LFE61:
 438              		.section	.text.Display_FillRect_If,"ax",%progbits
 439              		.align	1
 440              		.global	Display_FillRect_If
 441              		.thumb
 442              		.thumb_func
 444              	Display_FillRect_If:
 445              	.LFB62:
  98:lib/display/abstract/src/display_if_support.c **** 	volatile uint32_t n;
 446              		.loc 1 98 0
 447              		.cfi_startproc
 448              		@ args = 4, pretend = 0, frame = 8
 449              		@ frame_needed = 0, uses_anonymous_args = 0
 450              	.LVL55:
 451 0000 2DE9F341 		push	{r0, r1, r4, r5, r6, r7, r8, lr}
 452              	.LCFI5:
 453              		.cfi_def_cfa_offset 32
 454              		.cfi_offset 0, -32
 455              		.cfi_offset 1, -28
 456              		.cfi_offset 4, -24
 457              		.cfi_offset 5, -20
 458              		.cfi_offset 6, -16
 459              		.cfi_offset 7, -12
 460              		.cfi_offset 8, -8
 461              		.cfi_offset 14, -4
 462 0004 0446     		mov	r4, r0
 463 0006 0D46     		mov	r5, r1
 464 0008 1646     		mov	r6, r2
 465 000a 1F46     		mov	r7, r3
 466 000c BDF82080 		ldrh	r8, [sp, #32]
 101:lib/display/abstract/src/display_if_support.c **** 	
 467              		.loc 1 101 0
 468 0010 8142     		cmp	r1, r0
 469 0012 11D3     		bcc	.L57
 101:lib/display/abstract/src/display_if_support.c **** 	
 470              		.loc 1 101 0 is_stmt 0 discriminator 2
 471 0014 9342     		cmp	r3, r2
 472 0016 0FD3     		bcc	.L57
 103:lib/display/abstract/src/display_if_support.c **** 	n = (width-x+1) * (height-y+1);
 473              		.loc 1 103 0 is_stmt 1
 474 0018 FFF7FEFF 		bl	ST7732_rect
 475              	.LVL56:
 104:lib/display/abstract/src/display_if_support.c **** 	
 476              		.loc 1 104 0
 477 001c BE1B     		subs	r6, r7, r6
 478              	.LVL57:
 479 001e 0136     		adds	r6, r6, #1
 480 0020 2C1B     		subs	r4, r5, r4
 481              	.LVL58:
 482 0022 0134     		adds	r4, r4, #1
 483 0024 7443     		muls	r4, r6, r4
 484              	.LVL59:
 485 0026 0194     		str	r4, [sp, #4]
 486              	.LVL60:
 487              	.L60:
 107:lib/display/abstract/src/display_if_support.c **** 	} while (--n);
 488              		.loc 1 107 0 discriminator 1
 489 0028 4046     		mov	r0, r8
 490 002a FFF7FEFF 		bl	ST7732_wr_gram
 491              	.LVL61:
 108:lib/display/abstract/src/display_if_support.c **** 
 492              		.loc 1 108 0 discriminator 1
 493 002e 019B     		ldr	r3, [sp, #4]
 494 0030 581E     		subs	r0, r3, #1
 495 0032 0190     		str	r0, [sp, #4]
 496              	.LVL62:
 497 0034 0028     		cmp	r0, #0
 498 0036 F7D1     		bne	.L60
 499              	.L57:
 110:lib/display/abstract/src/display_if_support.c **** 
 500              		.loc 1 110 0
 501 0038 BDE8FC81 		pop	{r2, r3, r4, r5, r6, r7, r8, pc}
 502              		.cfi_endproc
 503              	.LFE62:
 505              		.section	.text.Display_DrawLine_If,"ax",%progbits
 506              		.align	1
 507              		.global	Display_DrawLine_If
 508              		.thumb
 509              		.thumb_func
 511              	Display_DrawLine_If:
 512              	.LFB63:
 119:lib/display/abstract/src/display_if_support.c **** 	/* Bresenham Algorithum */
 513              		.loc 1 119 0
 514              		.cfi_startproc
 515              		@ args = 4, pretend = 0, frame = 16
 516              		@ frame_needed = 0, uses_anonymous_args = 0
 517              	.LVL63:
 518 0000 2DE9F04F 		push	{r4, r5, r6, r7, r8, r9, sl, fp, lr}
 519              	.LCFI6:
 520              		.cfi_def_cfa_offset 36
 521              		.cfi_offset 4, -36
 522              		.cfi_offset 5, -32
 523              		.cfi_offset 6, -28
 524              		.cfi_offset 7, -24
 525              		.cfi_offset 8, -20
 526              		.cfi_offset 9, -16
 527              		.cfi_offset 10, -12
 528              		.cfi_offset 11, -8
 529              		.cfi_offset 14, -4
 530 0004 85B0     		sub	sp, sp, #20
 531              	.LCFI7:
 532              		.cfi_def_cfa_offset 56
 533 0006 BDF83890 		ldrh	r9, [sp, #56]
 124:lib/display/abstract/src/display_if_support.c **** 	wwx = xe - xs;
 534              		.loc 1 124 0
 535 000a 5C1A     		subs	r4, r3, r1
 536              	.LVL64:
 125:lib/display/abstract/src/display_if_support.c **** 	x_ct  = ABS(wwx);
 537              		.loc 1 125 0
 538 000c 121A     		subs	r2, r2, r0
 539              	.LVL65:
 126:lib/display/abstract/src/display_if_support.c **** 	y_ct  = ABS(hhy);
 540              		.loc 1 126 0
 541 000e 82EAE27C 		eor	ip, r2, r2, asr #31
 542 0012 ACEBE27C 		sub	ip, ip, r2, asr #31
 543              	.LVL66:
 127:lib/display/abstract/src/display_if_support.c **** 	
 544              		.loc 1 127 0
 545 0016 84EAE473 		eor	r3, r4, r4, asr #31
 546 001a A3EBE473 		sub	r3, r3, r4, asr #31
 547              	.LVL67:
 129:lib/display/abstract/src/display_if_support.c **** 	if (hhy) sy = 1; else	 sy =-1;
 548              		.loc 1 129 0
 549 001e 002A     		cmp	r2, #0
 550 0020 0CBF     		ite	eq
 551 0022 4FF0FF37 		moveq	r7, #-1
 552 0026 0127     		movne	r7, #1
 553              	.LVL68:
 130:lib/display/abstract/src/display_if_support.c **** 
 554              		.loc 1 130 0
 555 0028 002C     		cmp	r4, #0
 556 002a 0CBF     		ite	eq
 557 002c 4FF0FF38 		moveq	r8, #-1
 558 0030 4FF00108 		movne	r8, #1
 559              	.LVL69:
 135:lib/display/abstract/src/display_if_support.c **** 	{
 560              		.loc 1 135 0
 561 0034 9C45     		cmp	ip, r3
 562 0036 4FEA440A 		lsl	sl, r4, #1
 563 003a 4FEA420B 		lsl	fp, r2, #1
 564 003e 6FF00105 		mvn	r5, #1
 565 0042 1BDB     		blt	.L65
 147:lib/display/abstract/src/display_if_support.c **** 				y +=sy;
 566              		.loc 1 147 0
 567 0044 5543     		muls	r5, r2, r5
 568 0046 0395     		str	r5, [sp, #12]
 125:lib/display/abstract/src/display_if_support.c **** 	x_ct  = ABS(wwx);
 569              		.loc 1 125 0
 570 0048 1446     		mov	r4, r2
 571              	.LVL70:
 147:lib/display/abstract/src/display_if_support.c **** 				y +=sy;
 572              		.loc 1 147 0
 573 004a 0E46     		mov	r6, r1
 574 004c 0346     		mov	r3, r0
 575              	.LVL71:
 576 004e 0025     		movs	r5, #0
 577              	.LVL72:
 578              	.L67:
 142:lib/display/abstract/src/display_if_support.c **** 			x +=sx;
 579              		.loc 1 142 0
 580 0050 98B2     		uxth	r0, r3
 581 0052 B1B2     		uxth	r1, r6
 582 0054 4A46     		mov	r2, r9
 583 0056 0193     		str	r3, [sp, #4]
 584 0058 CDF808C0 		str	ip, [sp, #8]
 585 005c FFF7FEFF 		bl	PutPixel
 586              	.LVL73:
 143:lib/display/abstract/src/display_if_support.c **** 			e += 2*hhy;
 587              		.loc 1 143 0
 588 0060 0199     		ldr	r1, [sp, #4]
 589 0062 CB19     		adds	r3, r1, r7
 590              	.LVL74:
 144:lib/display/abstract/src/display_if_support.c **** 
 591              		.loc 1 144 0
 592 0064 5444     		add	r4, r4, sl
 593              	.LVL75:
 146:lib/display/abstract/src/display_if_support.c **** 				e -= 2*wwx;
 594              		.loc 1 146 0
 595 0066 5C45     		cmp	r4, fp
 596 0068 DDF808C0 		ldr	ip, [sp, #8]
 597 006c 02DB     		blt	.L66
 147:lib/display/abstract/src/display_if_support.c **** 				y +=sy;
 598              		.loc 1 147 0
 599 006e 039A     		ldr	r2, [sp, #12]
 600 0070 A418     		adds	r4, r4, r2
 601              	.LVL76:
 148:lib/display/abstract/src/display_if_support.c **** 			}
 602              		.loc 1 148 0
 603 0072 4644     		add	r6, r6, r8
 604              	.LVL77:
 605              	.L66:
 140:lib/display/abstract/src/display_if_support.c **** 
 606              		.loc 1 140 0
 607 0074 0135     		adds	r5, r5, #1
 608              	.LVL78:
 609 0076 6545     		cmp	r5, ip
 610 0078 EADD     		ble	.L67
 611 007a 1AE0     		b	.L62
 612              	.LVL79:
 613              	.L65:
 165:lib/display/abstract/src/display_if_support.c **** 				x +=sx;
 614              		.loc 1 165 0
 615 007c 6543     		muls	r5, r4, r5
 616 007e 0395     		str	r5, [sp, #12]
 617 0080 8C46     		mov	ip, r1
 618              	.LVL80:
 619 0082 0646     		mov	r6, r0
 620 0084 0025     		movs	r5, #0
 621              	.LVL81:
 622              	.L69:
 160:lib/display/abstract/src/display_if_support.c **** 			y +=sy;
 623              		.loc 1 160 0
 624 0086 B0B2     		uxth	r0, r6
 625 0088 1FFA8CF1 		uxth	r1, ip
 626 008c 4A46     		mov	r2, r9
 627 008e 0193     		str	r3, [sp, #4]
 628 0090 CDF808C0 		str	ip, [sp, #8]
 629 0094 FFF7FEFF 		bl	PutPixel
 630              	.LVL82:
 161:lib/display/abstract/src/display_if_support.c **** 			e += 2*wwx;
 631              		.loc 1 161 0
 632 0098 DDF808C0 		ldr	ip, [sp, #8]
 633 009c C444     		add	ip, ip, r8
 634              	.LVL83:
 162:lib/display/abstract/src/display_if_support.c **** 
 635              		.loc 1 162 0
 636 009e 5C44     		add	r4, r4, fp
 637              	.LVL84:
 164:lib/display/abstract/src/display_if_support.c **** 				e -= 2*hhy;
 638              		.loc 1 164 0
 639 00a0 5445     		cmp	r4, sl
 640 00a2 019B     		ldr	r3, [sp, #4]
 641 00a4 02DB     		blt	.L68
 165:lib/display/abstract/src/display_if_support.c **** 				x +=sx;
 642              		.loc 1 165 0
 643 00a6 0398     		ldr	r0, [sp, #12]
 644 00a8 2418     		adds	r4, r4, r0
 645              	.LVL85:
 166:lib/display/abstract/src/display_if_support.c **** 			}
 646              		.loc 1 166 0
 647 00aa F619     		adds	r6, r6, r7
 648              	.LVL86:
 649              	.L68:
 158:lib/display/abstract/src/display_if_support.c **** 		
 650              		.loc 1 158 0
 651 00ac 0135     		adds	r5, r5, #1
 652              	.LVL87:
 653 00ae 9D42     		cmp	r5, r3
 654 00b0 E9DD     		ble	.L69
 655              	.LVL88:
 656              	.L62:
 171:lib/display/abstract/src/display_if_support.c **** 
 657              		.loc 1 171 0
 658 00b2 05B0     		add	sp, sp, #20
 659 00b4 BDE8F08F 		pop	{r4, r5, r6, r7, r8, r9, sl, fp, pc}
 660              		.cfi_endproc
 661              	.LFE63:
 663              		.global	__aeabi_i2d
 664              		.global	__aeabi_dcmple
 665              		.global	__aeabi_ddiv
 666              		.global	__aeabi_dadd
 667              		.global	__aeabi_dmul
 668              		.global	__aeabi_dcmpeq
 669              		.global	__aeabi_d2iz
 670              		.global	__aeabi_dcmpgt
 671              		.section	.text.Display_DrawCircle_If,"ax",%progbits
 672              		.align	1
 673              		.global	Display_DrawCircle_If
 674              		.thumb
 675              		.thumb_func
 677              	Display_DrawCircle_If:
 678              	.LFB64:
 180:lib/display/abstract/src/display_if_support.c ****     PLOT_XY center;
 679              		.loc 1 180 0
 680              		.cfi_startproc
 681              		@ args = 0, pretend = 0, frame = 128
 682              		@ frame_needed = 0, uses_anonymous_args = 0
 683              	.LVL89:
 684 0000 2DE9F04F 		push	{r4, r5, r6, r7, r8, r9, sl, fp, lr}
 685              	.LCFI8:
 686              		.cfi_def_cfa_offset 36
 687              		.cfi_offset 4, -36
 688              		.cfi_offset 5, -32
 689              		.cfi_offset 6, -28
 690              		.cfi_offset 7, -24
 691              		.cfi_offset 8, -20
 692              		.cfi_offset 9, -16
 693              		.cfi_offset 10, -12
 694              		.cfi_offset 11, -8
 695              		.cfi_offset 14, -4
 696 0004 A1B0     		sub	sp, sp, #132
 697              	.LCFI9:
 698              		.cfi_def_cfa_offset 168
 699 0006 0690     		str	r0, [sp, #24]
 700 0008 0791     		str	r1, [sp, #28]
 701 000a 0392     		str	r2, [sp, #12]
 702 000c 0D93     		str	r3, [sp, #52]
 182:lib/display/abstract/src/display_if_support.c ****     center.y=y_ct;
 703              		.loc 1 182 0
 704 000e 84B2     		uxth	r4, r0
 705 0010 0894     		str	r4, [sp, #32]
 706              	.LVL90:
 183:lib/display/abstract/src/display_if_support.c ****     long cx = 0, cy=diameter/2, *px, *py, tmp;
 707              		.loc 1 183 0
 708 0012 8EB2     		uxth	r6, r1
 709 0014 0996     		str	r6, [sp, #36]
 710              	.LVL91:
 184:lib/display/abstract/src/display_if_support.c ****     long dx, dy, x_sign, num_eigth, r_root2,y_sign =0;
 711              		.loc 1 184 0
 712 0016 0023     		movs	r3, #0
 713              	.LVL92:
 714 0018 0E93     		str	r3, [sp, #56]
 715              	.LVL93:
 716 001a 0220     		movs	r0, #2
 717              	.LVL94:
 718 001c 92FBF0F1 		sdiv	r1, r2, r0
 719              	.LVL95:
 720 0020 0591     		str	r1, [sp, #20]
 721 0022 0F91     		str	r1, [sp, #60]
 722              	.LVL96:
 188:lib/display/abstract/src/display_if_support.c ****     tmp = r_root2*r_root2*8-diameter*diameter;
 723              		.loc 1 188 0
 724 0024 032A     		cmp	r2, #3
 725 0026 32DD     		ble	.L115
 188:lib/display/abstract/src/display_if_support.c ****     tmp = r_root2*r_root2*8-diameter*diameter;
 726              		.loc 1 188 0 is_stmt 0 discriminator 1
 727 0028 1046     		mov	r0, r2
 728 002a 5043     		muls	r0, r2, r0
 729 002c C010     		asrs	r0, r0, #3
 730 002e FFF7FEFF 		bl	__aeabi_i2d
 731              	.LVL97:
 732 0032 8246     		mov	sl, r0
 733 0034 8B46     		mov	fp, r1
 734              	.LVL98:
 735              	.LBB7:
 736              	.LBB8:
  51:lib/display/abstract/src/display_if_support.c ****     do { s2=s; s=(x/s+s)/2; } while(s2!=s);
 737              		.loc 1 51 0 is_stmt 1 discriminator 1
 738 0036 0022     		movs	r2, #0
 739 0038 0023     		movs	r3, #0
 740 003a FFF7FEFF 		bl	__aeabi_dcmple
 741              	.LVL99:
 742 003e E8B9     		cbnz	r0, .L116
  51:lib/display/abstract/src/display_if_support.c ****     do { s2=s; s=(x/s+s)/2; } while(s2!=s);
 743              		.loc 1 51 0 is_stmt 0
 744 0040 0024     		movs	r4, #0
 745 0042 B14D     		ldr	r5, .L133
 746              	.LVL100:
 747              	.L78:
  52:lib/display/abstract/src/display_if_support.c ****     return s;
 748              		.loc 1 52 0 is_stmt 1
 749 0044 5046     		mov	r0, sl
 750 0046 5946     		mov	r1, fp
 751 0048 2246     		mov	r2, r4
 752 004a 2B46     		mov	r3, r5
 753 004c FFF7FEFF 		bl	__aeabi_ddiv
 754              	.LVL101:
 755 0050 2246     		mov	r2, r4
 756 0052 2B46     		mov	r3, r5
 757 0054 FFF7FEFF 		bl	__aeabi_dadd
 758              	.LVL102:
 759 0058 0022     		movs	r2, #0
 760 005a AC4B     		ldr	r3, .L133+4
 761 005c FFF7FEFF 		bl	__aeabi_dmul
 762              	.LVL103:
 763 0060 0646     		mov	r6, r0
 764 0062 0F46     		mov	r7, r1
 765 0064 8046     		mov	r8, r0
 766 0066 8946     		mov	r9, r1
 767              	.LVL104:
 768 0068 2046     		mov	r0, r4
 769 006a 2946     		mov	r1, r5
 770 006c 3246     		mov	r2, r6
 771 006e 3B46     		mov	r3, r7
 772 0070 FFF7FEFF 		bl	__aeabi_dcmpeq
 773              	.LVL105:
 774 0074 30B9     		cbnz	r0, .L77
 775              	.L117:
 776 0076 3446     		mov	r4, r6
 777              	.LVL106:
 778 0078 3D46     		mov	r5, r7
 779 007a E3E7     		b	.L78
 780              	.LVL107:
 781              	.L116:
  51:lib/display/abstract/src/display_if_support.c ****     do { s2=s; s=(x/s+s)/2; } while(s2!=s);
 782              		.loc 1 51 0
 783 007c 4FF00008 		mov	r8, #0
 784 0080 DFF88492 		ldr	r9, .L133
 785              	.LVL108:
 786              	.L77:
 787              	.LBE8:
 788              	.LBE7:
 188:lib/display/abstract/src/display_if_support.c ****     tmp = r_root2*r_root2*8-diameter*diameter;
 789              		.loc 1 188 0
 790 0084 4046     		mov	r0, r8
 791 0086 4946     		mov	r1, r9
 792 0088 FFF7FEFF 		bl	__aeabi_d2iz
 793              	.LVL109:
 794 008c 00E0     		b	.L76
 795              	.LVL110:
 796              	.L115:
 797 008e 0120     		movs	r0, #1
 798              	.LVL111:
 799              	.L76:
 189:lib/display/abstract/src/display_if_support.c ****     if (ABS(tmp)>ABS(tmp+8*(2*r_root2+1))) r_root2++;	/* near by (r*ń2) */
 800              		.loc 1 189 0 discriminator 3
 801 0090 039F     		ldr	r7, [sp, #12]
 802 0092 7F43     		muls	r7, r7, r7
 803 0094 0A97     		str	r7, [sp, #40]
 804 0096 00FB00F3 		mul	r3, r0, r0
 805 009a D900     		lsls	r1, r3, #3
 806 009c CE1B     		subs	r6, r1, r7
 807              	.LVL112:
 190:lib/display/abstract/src/display_if_support.c **** 
 808              		.loc 1 190 0 discriminator 3
 809 009e 86EAE675 		eor	r5, r6, r6, asr #31
 810 00a2 A5EBE675 		sub	r5, r5, r6, asr #31
 811 00a6 06EB0011 		add	r1, r6, r0, lsl #4
 812 00aa 0831     		adds	r1, r1, #8
 813 00ac 04D5     		bpl	.L79
 190:lib/display/abstract/src/display_if_support.c **** 
 814              		.loc 1 190 0 is_stmt 0 discriminator 2
 815 00ae 0401     		lsls	r4, r0, #4
 816 00b0 6FF00702 		mvn	r2, #7
 817 00b4 131B     		subs	r3, r2, r4
 818 00b6 991B     		subs	r1, r3, r6
 819              	.L79:
 190:lib/display/abstract/src/display_if_support.c **** 
 820              		.loc 1 190 0 discriminator 3
 821 00b8 8D42     		cmp	r5, r1
 822 00ba C8BF     		it	gt
 823 00bc 0130     		addgt	r0, r0, #1
 824              	.LVL113:
 197:lib/display/abstract/src/display_if_support.c ****         mirror_center.x++;
 825              		.loc 1 197 0 is_stmt 1 discriminator 3
 826 00be 039E     		ldr	r6, [sp, #12]
 827              	.LVL114:
 828 00c0 F407     		lsls	r4, r6, #31
 829 00c2 08D4     		bmi	.L118
 198:lib/display/abstract/src/display_if_support.c ****         mirror_center.y++;
 830              		.loc 1 198 0
 831 00c4 089C     		ldr	r4, [sp, #32]
 832 00c6 621C     		adds	r2, r4, #1
 833 00c8 93B2     		uxth	r3, r2
 834 00ca 0C93     		str	r3, [sp, #48]
 835              	.LVL115:
 199:lib/display/abstract/src/display_if_support.c ****     }
 836              		.loc 1 199 0
 837 00cc 0999     		ldr	r1, [sp, #36]
 838 00ce 4E1C     		adds	r6, r1, #1
 839 00d0 B5B2     		uxth	r5, r6
 840 00d2 0B95     		str	r5, [sp, #44]
 841              	.LVL116:
 842 00d4 03E0     		b	.L81
 843              	.LVL117:
 844              	.L118:
 196:lib/display/abstract/src/display_if_support.c ****     if ((diameter&1) ==0){
 845              		.loc 1 196 0
 846 00d6 099F     		ldr	r7, [sp, #36]
 847 00d8 0B97     		str	r7, [sp, #44]
 848 00da 089D     		ldr	r5, [sp, #32]
 849 00dc 0C95     		str	r5, [sp, #48]
 850              	.LVL118:
 851              	.L81:
 852 00de 0023     		movs	r3, #0
 853              	.LVL119:
 854              	.L82:
 179:lib/display/abstract/src/display_if_support.c **** {
 855              		.loc 1 179 0 discriminator 2
 856 00e0 10AC     		add	r4, sp, #64
 857 00e2 E218     		adds	r2, r4, r3
 204:lib/display/abstract/src/display_if_support.c ****         start_po[num_eigth].x=0;
 858              		.loc 1 204 0 discriminator 2
 859 00e4 0599     		ldr	r1, [sp, #20]
 860 00e6 5180     		strh	r1, [r2, #2]	@ movhi
 205:lib/display/abstract/src/display_if_support.c ****         end_po[num_eigth].x=end_po[num_eigth].y=r_root2;
 861              		.loc 1 205 0 discriminator 2
 862 00e8 0021     		movs	r1, #0
 863 00ea 1953     		strh	r1, [r3, r4]	@ movhi
 206:lib/display/abstract/src/display_if_support.c ****     }
 864              		.loc 1 206 0 discriminator 2
 865 00ec 86B2     		uxth	r6, r0
 179:lib/display/abstract/src/display_if_support.c **** {
 866              		.loc 1 179 0 discriminator 2
 867 00ee 18AC     		add	r4, sp, #96
 868 00f0 E518     		adds	r5, r4, r3
 206:lib/display/abstract/src/display_if_support.c ****     }
 869              		.loc 1 206 0 discriminator 2
 870 00f2 6E80     		strh	r6, [r5, #2]	@ movhi
 871 00f4 1E53     		strh	r6, [r3, r4]	@ movhi
 872 00f6 0433     		adds	r3, r3, #4
 203:lib/display/abstract/src/display_if_support.c ****         start_po[num_eigth].y=diameter/2;
 873              		.loc 1 203 0 discriminator 2
 874 00f8 202B     		cmp	r3, #32
 875 00fa F1D1     		bne	.L82
 876              	.LVL120:
 877 00fc 0F9D     		ldr	r5, [sp, #60]
 203:lib/display/abstract/src/display_if_support.c ****         start_po[num_eigth].y=diameter/2;
 878              		.loc 1 203 0 is_stmt 0
 879 00fe 0424     		movs	r4, #4
 880 0100 0A46     		mov	r2, r1
 881 0102 0491     		str	r1, [sp, #16]
 882              	.LVL121:
 883              	.L105:
 884              	.LBB9:
 210:lib/display/abstract/src/display_if_support.c ****         if (li==1) { cy = mirror_center.x;    y_sign= 1;}
 885              		.loc 1 210 0 is_stmt 1
 886 0104 3AB9     		cbnz	r2, .L83
 210:lib/display/abstract/src/display_if_support.c ****         if (li==1) { cy = mirror_center.x;    y_sign= 1;}
 887              		.loc 1 210 0 is_stmt 0 discriminator 1
 888 0106 079F     		ldr	r7, [sp, #28]
 889 0108 BDB2     		uxth	r5, r7
 890 010a 9F3D     		subs	r5, r5, #159
 891              	.LVL122:
 892 010c 4FF0FF3A 		mov	sl, #-1
 893 0110 CDF810A0 		str	sl, [sp, #16]
 894 0114 16E0     		b	.L84
 895              	.LVL123:
 896              	.L83:
 211:lib/display/abstract/src/display_if_support.c ****         if (li==2) { cy = mirror_center.y;    y_sign= 1;}
 897              		.loc 1 211 0 is_stmt 1
 898 0116 012A     		cmp	r2, #1
 899 0118 02D1     		bne	.L85
 211:lib/display/abstract/src/display_if_support.c ****         if (li==2) { cy = mirror_center.y;    y_sign= 1;}
 900              		.loc 1 211 0 is_stmt 0 discriminator 1
 901 011a 0C9D     		ldr	r5, [sp, #48]
 902              	.LVL124:
 903 011c 0492     		str	r2, [sp, #16]
 904 011e 11E0     		b	.L84
 905              	.LVL125:
 906              	.L85:
 212:lib/display/abstract/src/display_if_support.c ****         if (li==3) { cy = center.x-(MAX_X-1); y_sign=-1;}
 907              		.loc 1 212 0 is_stmt 1
 908 0120 022A     		cmp	r2, #2
 909 0122 05D1     		bne	.L86
 212:lib/display/abstract/src/display_if_support.c ****         if (li==3) { cy = center.x-(MAX_X-1); y_sign=-1;}
 910              		.loc 1 212 0 is_stmt 0 discriminator 1
 911 0124 0B9D     		ldr	r5, [sp, #44]
 912              	.LVL126:
 913 0126 4FF0010B 		mov	fp, #1
 914 012a CDF810B0 		str	fp, [sp, #16]
 915 012e 09E0     		b	.L84
 916              	.LVL127:
 917              	.L86:
 213:lib/display/abstract/src/display_if_support.c **** 
 918              		.loc 1 213 0 is_stmt 1
 919 0130 032A     		cmp	r2, #3
 920 0132 07D1     		bne	.L84
 213:lib/display/abstract/src/display_if_support.c **** 
 921              		.loc 1 213 0 is_stmt 0 discriminator 1
 922 0134 DDF818C0 		ldr	ip, [sp, #24]
 923 0138 1FFA8CF5 		uxth	r5, ip
 924 013c 7F3D     		subs	r5, r5, #127
 925              	.LVL128:
 926 013e 4FF0FF36 		mov	r6, #-1
 927 0142 0496     		str	r6, [sp, #16]
 928              	.LVL129:
 929              	.L84:
 215:lib/display/abstract/src/display_if_support.c ****             if (((li==0 || li==3) && cy<0) || ((li==1 || li==2) && cy>0)) continue;	/* Circle is In
 930              		.loc 1 215 0 is_stmt 1
 931 0144 85EAE573 		eor	r3, r5, r5, asr #31
 932 0148 A3EBE573 		sub	r3, r3, r5, asr #31
 933 014c 059E     		ldr	r6, [sp, #20]
 934 014e B342     		cmp	r3, r6
 935 0150 0DDB     		blt	.L87
 216:lib/display/abstract/src/display_if_support.c ****             else return ;	/* Circle is Outside of Region */
 936              		.loc 1 216 0
 937 0152 0AB1     		cbz	r2, .L88
 216:lib/display/abstract/src/display_if_support.c ****             else return ;	/* Circle is Outside of Region */
 938              		.loc 1 216 0 is_stmt 0 discriminator 2
 939 0154 032A     		cmp	r2, #3
 940 0156 02D1     		bne	.L89
 941              	.L88:
 216:lib/display/abstract/src/display_if_support.c ****             else return ;	/* Circle is Outside of Region */
 942              		.loc 1 216 0 discriminator 1
 943 0158 002D     		cmp	r5, #0
 944 015a C0F20C81 		blt	.L90
 945              	.L89:
 946 015e 531E     		subs	r3, r2, #1
 947 0160 012B     		cmp	r3, #1
 948 0162 00F2A681 		bhi	.L75
 949 0166 002D     		cmp	r5, #0
 950 0168 00F30581 		bgt	.L90
 951 016c A1E1     		b	.L75
 952              	.L87:
 220:lib/display/abstract/src/display_if_support.c ****         cx = root_i(tmp/4); /* n=tmp/4; if (tmp%4) n++; */
 953              		.loc 1 220 0 is_stmt 1
 954 016e 05FB05F9 		mul	r9, r5, r5
 955 0172 0A9F     		ldr	r7, [sp, #40]
 956 0174 A7EB890B 		sub	fp, r7, r9, lsl #2
 957              	.LVL130:
 221:lib/display/abstract/src/display_if_support.c ****         tmp -= 4*cx*cx;
 958              		.loc 1 221 0
 959 0178 4FF00408 		mov	r8, #4
 960 017c 9BFBF8F9 		sdiv	r9, fp, r8
 961              	.LVL131:
  41:lib/display/abstract/src/display_if_support.c ****     do {
 962              		.loc 1 41 0
 963 0180 0127     		movs	r7, #1
 964              	.LVL132:
 965              	.L131:
 966              	.LBB10:
 967              	.LBB11:
  43:lib/display/abstract/src/display_if_support.c ****         s2=s+1;
 968              		.loc 1 43 0
 969 0182 99FBF7F6 		sdiv	r6, r9, r7
 970 0186 F719     		adds	r7, r6, r7
 971              	.LVL133:
 972 0188 4FF0020A 		mov	sl, #2
 973 018c 97FBFAF7 		sdiv	r7, r7, sl
 974              	.LVL134:
  45:lib/display/abstract/src/display_if_support.c ****     } while(1);
 975              		.loc 1 45 0
 976 0190 07FB07F6 		mul	r6, r7, r7
 977 0194 4E45     		cmp	r6, r9
 978 0196 F4DC     		bgt	.L131
  44:lib/display/abstract/src/display_if_support.c ****         if (s*s<=x && x<s2*s2) break;
 979              		.loc 1 44 0
 980 0198 07F1010C 		add	ip, r7, #1
 981              	.LVL135:
  45:lib/display/abstract/src/display_if_support.c ****     } while(1);
 982              		.loc 1 45 0
 983 019c 0CFB0CF8 		mul	r8, ip, ip
 984 01a0 C145     		cmp	r9, r8
 985 01a2 EEDA     		bge	.L131
 986              	.LBE11:
 987              	.LBE10:
 222:lib/display/abstract/src/display_if_support.c ****         if (ABS(tmp)>=ABS(tmp -8*cx-4)) cx++;
 988              		.loc 1 222 0
 989 01a4 ABEB860B 		sub	fp, fp, r6, lsl #2
 990              	.LVL136:
 223:lib/display/abstract/src/display_if_support.c **** 
 991              		.loc 1 223 0
 992 01a8 8BEAEB79 		eor	r9, fp, fp, asr #31
 993 01ac A9EBEB79 		sub	r9, r9, fp, asr #31
 994              	.LVL137:
 995 01b0 ABEBC706 		sub	r6, fp, r7, lsl #3
 996 01b4 032E     		cmp	r6, #3
 997 01b6 02DD     		ble	.L95
 223:lib/display/abstract/src/display_if_support.c **** 
 998              		.loc 1 223 0 is_stmt 0 discriminator 1
 999 01b8 A6F10406 		sub	r6, r6, #4
 1000 01bc 03E0     		b	.L96
 1001              	.L95:
 223:lib/display/abstract/src/display_if_support.c **** 
 1002              		.loc 1 223 0 discriminator 2
 1003 01be FE00     		lsls	r6, r7, #3
 1004 01c0 CBEB0606 		rsb	r6, fp, r6
 1005 01c4 0436     		adds	r6, r6, #4
 1006              	.L96:
 223:lib/display/abstract/src/display_if_support.c **** 
 1007              		.loc 1 223 0 discriminator 3
 1008 01c6 B145     		cmp	r9, r6
 1009 01c8 A8BF     		it	ge
 1010 01ca 6746     		movge	r7, ip
 1011              	.LVL138:
 1012 01cc 0197     		str	r7, [sp, #4]
 226:lib/display/abstract/src/display_if_support.c ****             /* 1,2 -> 3,4 -> 5,6 -> 7,0 */
 1013              		.loc 1 226 0 is_stmt 1 discriminator 3
 1014 01ce DDF810A0 		ldr	sl, [sp, #16]
 1015 01d2 0AFB05F8 		mul	r8, sl, r5
 1016 01d6 8045     		cmp	r8, r0
 1017 01d8 0DF14009 		add	r9, sp, #64
 1018 01dc A4F1020B 		sub	fp, r4, #2
 1019              	.LVL139:
 1020 01e0 1ADD     		ble	.L98
 179:lib/display/abstract/src/display_if_support.c **** {
 1021              		.loc 1 179 0
 1022 01e2 09EB0107 		add	r7, r9, r1
 228:lib/display/abstract/src/display_if_support.c ****                 start_po[li*2+1].y = ABS(cy);
 1023              		.loc 1 228 0
 1024 01e6 019E     		ldr	r6, [sp, #4]
 1025 01e8 002E     		cmp	r6, #0
 1026 01ea B8BF     		it	lt
 1027 01ec 7642     		rsblt	r6, r6, #0
 1028 01ee B7F804C0 		ldrh	ip, [r7, #4]
 1029              	.LVL140:
 1030 01f2 B445     		cmp	ip, r6
 229:lib/display/abstract/src/display_if_support.c ****                 start_po[li*2+1].x = ABS(cx);
 1031              		.loc 1 229 0
 1032 01f4 BCBF     		itt	lt
 1033 01f6 FB80     		strhlt	r3, [r7, #6]	@ movhi
 230:lib/display/abstract/src/display_if_support.c ****             }
 1034              		.loc 1 230 0
 1035 01f8 BE80     		strhlt	r6, [r7, #4]	@ movhi
 232:lib/display/abstract/src/display_if_support.c ****                 start_po[(li*2+2)%8].y = ABS(cy);
 1036              		.loc 1 232 0
 1037 01fa 0BF0070B 		and	fp, fp, #7
 1038 01fe 20AF     		add	r7, sp, #128
 1039 0200 07EB8B07 		add	r7, r7, fp, lsl #2
 1040 0204 37F840CC 		ldrh	ip, [r7, #-64]
 1041 0208 B445     		cmp	ip, r6
 1042 020a 80F2B480 		bge	.L90
 233:lib/display/abstract/src/display_if_support.c ****                 start_po[(li*2+2)%8].x = ABS(cx);
 1043              		.loc 1 233 0
 1044 020e 27F83E3C 		strh	r3, [r7, #-62]	@ movhi
 234:lib/display/abstract/src/display_if_support.c ****             }
 1045              		.loc 1 234 0
 1046 0212 27F8406C 		strh	r6, [r7, #-64]	@ movhi
 1047 0216 AEE0     		b	.L90
 1048              	.LVL141:
 1049              	.L98:
 238:lib/display/abstract/src/display_if_support.c ****             start_po[li*2+1].x = start_po[(li*2+2)%8].x = diameter;	/* Set Out of Region */
 1050              		.loc 1 238 0
 1051 0218 0BF00707 		and	r7, fp, #7
 1052 021c 20AE     		add	r6, sp, #128
 1053 021e 06EB8706 		add	r6, r6, r7, lsl #2
 1054 0222 4FF0000C 		mov	ip, #0
 1055              	.LVL142:
 1056 0226 26F83ECC 		strh	ip, [r6, #-62]	@ movhi
 179:lib/display/abstract/src/display_if_support.c **** {
 1057              		.loc 1 179 0
 1058 022a 09EB010A 		add	sl, r9, r1
 238:lib/display/abstract/src/display_if_support.c ****             start_po[li*2+1].x = start_po[(li*2+2)%8].x = diameter;	/* Set Out of Region */
 1059              		.loc 1 238 0
 1060 022e AAF806C0 		strh	ip, [sl, #6]	@ movhi
 239:lib/display/abstract/src/display_if_support.c ****             if (cy*y_sign<=r_root2 && cy*y_sign>0){
 1061              		.loc 1 239 0
 1062 0232 DDF80CB0 		ldr	fp, [sp, #12]
 1063 0236 1FFA8BF7 		uxth	r7, fp
 1064 023a 26F8407C 		strh	r7, [r6, #-64]	@ movhi
 1065 023e AAF80470 		strh	r7, [sl, #4]	@ movhi
 240:lib/display/abstract/src/display_if_support.c ****                 /* Set Out of Region... 1,2 -> 3,4 -> 5,6 -> 7,0 */
 1066              		.loc 1 240 0
 1067 0242 E045     		cmp	r8, ip
 1068 0244 23DD     		ble	.L100
 243:lib/display/abstract/src/display_if_support.c ****                     end_po[li*2].y = ABS(cx);
 1069              		.loc 1 243 0
 1070 0246 18AF     		add	r7, sp, #96
 1071 0248 31F807C0 		ldrh	ip, [r1, r7]
 1072 024c 9C45     		cmp	ip, r3
 1073 024e 0ADD     		ble	.L101
 179:lib/display/abstract/src/display_if_support.c **** {
 1074              		.loc 1 179 0
 1075 0250 7E18     		adds	r6, r7, r1
 244:lib/display/abstract/src/display_if_support.c ****                     end_po[li*2].x = ABS(cy);
 1076              		.loc 1 244 0
 1077 0252 DDF80480 		ldr	r8, [sp, #4]
 1078 0256 B8F1000F 		cmp	r8, #0
 1079 025a B8BF     		it	lt
 1080 025c C8F10008 		rsblt	r8, r8, #0
 1081 0260 A6F80280 		strh	r8, [r6, #2]	@ movhi
 245:lib/display/abstract/src/display_if_support.c ****                 }
 1082              		.loc 1 245 0
 1083 0264 CB53     		strh	r3, [r1, r7]	@ movhi
 1084              	.L101:
 179:lib/display/abstract/src/display_if_support.c **** {
 1085              		.loc 1 179 0
 1086 0266 671E     		subs	r7, r4, #1
 247:lib/display/abstract/src/display_if_support.c ****                     end_po[(li*2+3)%8].y = ABS(cx);
 1087              		.loc 1 247 0
 1088 0268 07F00706 		and	r6, r7, #7
 1089 026c 0DF1800C 		add	ip, sp, #128
 1090 0270 0CEB8607 		add	r7, ip, r6, lsl #2
 1091 0274 37F8206C 		ldrh	r6, [r7, #-32]
 1092 0278 9E42     		cmp	r6, r3
 1093 027a 7CDD     		ble	.L90
 248:lib/display/abstract/src/display_if_support.c ****                     end_po[(li*2+3)%8].x = ABS(cy);
 1094              		.loc 1 248 0
 1095 027c 019E     		ldr	r6, [sp, #4]
 1096 027e 002E     		cmp	r6, #0
 1097 0280 B8BF     		it	lt
 1098 0282 7642     		rsblt	r6, r6, #0
 1099 0284 27F81E6C 		strh	r6, [r7, #-30]	@ movhi
 249:lib/display/abstract/src/display_if_support.c ****                 }
 1100              		.loc 1 249 0
 1101 0288 27F8203C 		strh	r3, [r7, #-32]	@ movhi
 1102 028c 73E0     		b	.L90
 1103              	.L100:
 179:lib/display/abstract/src/display_if_support.c **** {
 1104              		.loc 1 179 0
 1105 028e 04F1FF3B 		add	fp, r4, #-1
 253:lib/display/abstract/src/display_if_support.c ****                 start_po[li*2].x = start_po[(li*2+3)%8].x = diameter;
 1106              		.loc 1 253 0
 1107 0292 0BF0070B 		and	fp, fp, #7
 1108 0296 20AE     		add	r6, sp, #128
 1109 0298 06EB8B06 		add	r6, r6, fp, lsl #2
 1110 029c 26F83ECC 		strh	ip, [r6, #-62]	@ movhi
 1111 02a0 AAF802C0 		strh	ip, [sl, #2]	@ movhi
 254:lib/display/abstract/src/display_if_support.c ****                 if (cy*y_sign<=0 && cy*y_sign>-r_root2){
 1112              		.loc 1 254 0
 1113 02a4 26F8407C 		strh	r7, [r6, #-64]	@ movhi
 1114 02a8 29F80170 		strh	r7, [r9, r1]	@ movhi
 255:lib/display/abstract/src/display_if_support.c **** 				    /* Set Out of Region... 0,3 -> 2,5 -> 4,7 -> 6,1 */
 1115              		.loc 1 255 0
 1116 02ac C0F10009 		rsb	r9, r0, #0
 1117 02b0 C845     		cmp	r8, r9
 1118 02b2 04F00708 		and	r8, r4, #7
 1119 02b6 2BDD     		ble	.L102
 258:lib/display/abstract/src/display_if_support.c ****                         start_po[(li*2+4)%8].y = ABS(cx);
 1120              		.loc 1 258 0
 1121 02b8 0DF1800A 		add	sl, sp, #128
 1122 02bc 0AEB8806 		add	r6, sl, r8, lsl #2
 1123 02c0 36F8407C 		ldrh	r7, [r6, #-64]
 1124 02c4 9F42     		cmp	r7, r3
 1125 02c6 0ADA     		bge	.L103
 259:lib/display/abstract/src/display_if_support.c ****                         start_po[(li*2+4)%8].x = ABS(cy);
 1126              		.loc 1 259 0
 1127 02c8 DDF804B0 		ldr	fp, [sp, #4]
 1128 02cc BBF1000F 		cmp	fp, #0
 1129 02d0 B8BF     		it	lt
 1130 02d2 CBF1000B 		rsblt	fp, fp, #0
 1131 02d6 26F83EBC 		strh	fp, [r6, #-62]	@ movhi
 260:lib/display/abstract/src/display_if_support.c ****                     }
 1132              		.loc 1 260 0
 1133 02da 26F8403C 		strh	r3, [r6, #-64]	@ movhi
 1134              	.L103:
 179:lib/display/abstract/src/display_if_support.c **** {
 1135              		.loc 1 179 0
 1136 02de E61C     		adds	r6, r4, #3
 262:lib/display/abstract/src/display_if_support.c ****                         start_po[(li*2+7)%8].y = ABS(cx);
 1137              		.loc 1 262 0
 1138 02e0 06F00707 		and	r7, r6, #7
 1139 02e4 0DF1800B 		add	fp, sp, #128
 1140 02e8 0BEB8707 		add	r7, fp, r7, lsl #2
 1141 02ec 37F840CC 		ldrh	ip, [r7, #-64]
 1142 02f0 9C45     		cmp	ip, r3
 1143 02f2 40DA     		bge	.L90
 263:lib/display/abstract/src/display_if_support.c ****                         start_po[(li*2+7)%8].x = ABS(cy);
 1144              		.loc 1 263 0
 1145 02f4 019E     		ldr	r6, [sp, #4]
 1146 02f6 002E     		cmp	r6, #0
 1147 02f8 B8BF     		it	lt
 1148 02fa 7642     		rsblt	r6, r6, #0
 1149 02fc 27F83E6C 		strh	r6, [r7, #-62]	@ movhi
 264:lib/display/abstract/src/display_if_support.c ****                     }
 1150              		.loc 1 264 0
 1151 0300 27F8403C 		strh	r3, [r7, #-64]	@ movhi
 1152 0304 37E0     		b	.L90
 1153              	.L134:
 1154 0306 00BF     		.align	2
 1155              	.L133:
 1156 0308 0000F03F 		.word	1072693248
 1157 030c 0000E03F 		.word	1071644672
 1158              	.L102:
 179:lib/display/abstract/src/display_if_support.c **** {
 1159              		.loc 1 179 0
 1160 0310 04F1030A 		add	sl, r4, #3
 268:lib/display/abstract/src/display_if_support.c ****                     start_po[(li*2+4)%8].x = start_po[(li*2+7)%8].x = diameter;
 1161              		.loc 1 268 0
 1162 0314 0AF00709 		and	r9, sl, #7
 1163 0318 20AE     		add	r6, sp, #128
 1164 031a 06EB8909 		add	r9, r6, r9, lsl #2
 1165 031e 29F83ECC 		strh	ip, [r9, #-62]	@ movhi
 1166 0322 06EB8808 		add	r8, r6, r8, lsl #2
 1167 0326 28F83ECC 		strh	ip, [r8, #-62]	@ movhi
 269:lib/display/abstract/src/display_if_support.c **** 					/* Set Out of Region...  4,7 -> 6,1 -> 0,3 -> 2,5 */
 1168              		.loc 1 269 0
 1169 032a 29F8407C 		strh	r7, [r9, #-64]	@ movhi
 1170 032e 28F8407C 		strh	r7, [r8, #-64]	@ movhi
 179:lib/display/abstract/src/display_if_support.c **** {
 1171              		.loc 1 179 0
 1172 0332 671C     		adds	r7, r4, #1
 272:lib/display/abstract/src/display_if_support.c ****                         end_po[(li*2+5)%8].y = ABS(cy);
 1173              		.loc 1 272 0
 1174 0334 07F00707 		and	r7, r7, #7
 1175 0338 019E     		ldr	r6, [sp, #4]
 1176 033a 002E     		cmp	r6, #0
 1177 033c B8BF     		it	lt
 1178 033e 7642     		rsblt	r6, r6, #0
 1179 0340 0DF1800A 		add	sl, sp, #128
 1180 0344 0AEB8707 		add	r7, sl, r7, lsl #2
 1181 0348 37F820CC 		ldrh	ip, [r7, #-32]
 1182 034c B445     		cmp	ip, r6
 273:lib/display/abstract/src/display_if_support.c ****                         end_po[(li*2+5)%8].x = ABS(cx);
 1183              		.loc 1 273 0
 1184 034e C4BF     		itt	gt
 1185 0350 27F81E3C 		strhgt	r3, [r7, #-30]	@ movhi
 274:lib/display/abstract/src/display_if_support.c ****                     }
 1186              		.loc 1 274 0
 1187 0354 27F8206C 		strhgt	r6, [r7, #-32]	@ movhi
 179:lib/display/abstract/src/display_if_support.c **** {
 1188              		.loc 1 179 0
 1189 0358 A71C     		adds	r7, r4, #2
 276:lib/display/abstract/src/display_if_support.c ****                         end_po[(li*2+6)%8].y = ABS(cy);
 1190              		.loc 1 276 0
 1191 035a 07F00707 		and	r7, r7, #7
 1192 035e 0DF1800B 		add	fp, sp, #128
 1193 0362 0BEB8707 		add	r7, fp, r7, lsl #2
 1194 0366 37F820CC 		ldrh	ip, [r7, #-32]
 1195 036a B445     		cmp	ip, r6
 277:lib/display/abstract/src/display_if_support.c ****                         end_po[(li*2+6)%8].x = ABS(cx);
 1196              		.loc 1 277 0
 1197 036c C4BF     		itt	gt
 1198 036e 27F81E3C 		strhgt	r3, [r7, #-30]	@ movhi
 278:lib/display/abstract/src/display_if_support.c ****                     }
 1199              		.loc 1 278 0
 1200 0372 27F8206C 		strhgt	r6, [r7, #-32]	@ movhi
 1201              	.LVL143:
 1202              	.L90:
 209:lib/display/abstract/src/display_if_support.c ****         if (li==0) { cy = center.y-(MAX_Y-1); y_sign=-1;}
 1203              		.loc 1 209 0
 1204 0376 0132     		adds	r2, r2, #1
 1205              	.LVL144:
 1206 0378 0234     		adds	r4, r4, #2
 1207 037a 0831     		adds	r1, r1, #8
 1208 037c 042A     		cmp	r2, #4
 1209 037e 7FF4C1AE 		bne	.L105
 1210 0382 4FF00008 		mov	r8, #0
 1211              	.LVL145:
 1212              	.L113:
 1213              	.LBE9:
 288:lib/display/abstract/src/display_if_support.c ****                 now_center.y = y_ct; y_sign=1; }            /* 0,1,2,3 */
 1214              		.loc 1 288 0
 1215 0386 B8F1030F 		cmp	r8, #3
 1216 038a 06DC     		bgt	.L119
 289:lib/display/abstract/src/display_if_support.c ****         else{   now_center.y = mirror_center.y; y_sign=-1; }    /* 4,5,6,7 */
 1217              		.loc 1 289 0
 1218 038c DDF824B0 		ldr	fp, [sp, #36]
 1219 0390 4FF0010E 		mov	lr, #1
 1220 0394 CDF810E0 		str	lr, [sp, #16]
 1221 0398 04E0     		b	.L106
 1222              	.L119:
 290:lib/display/abstract/src/display_if_support.c ****         if ((num_eigth%6)<=1){
 1223              		.loc 1 290 0
 1224 039a DDF82CB0 		ldr	fp, [sp, #44]
 1225 039e 4FF0FF30 		mov	r0, #-1
 1226 03a2 0490     		str	r0, [sp, #16]
 1227              	.L106:
 1228              	.LVL146:
 291:lib/display/abstract/src/display_if_support.c ****                 now_center.x = x_ct;  x_sign=1; }           /* 0,1,6,7 */
 1229              		.loc 1 291 0
 1230 03a4 0621     		movs	r1, #6
 1231 03a6 98FBF1F4 		sdiv	r4, r8, r1
 1232 03aa 01FB1485 		mls	r5, r1, r4, r8
 1233 03ae 012D     		cmp	r5, #1
 1234 03b0 04DC     		bgt	.L120
 292:lib/display/abstract/src/display_if_support.c ****         else {  now_center.x = mirror_center.x; x_sign=-1; }    /* 2,3,4,5 */
 1235              		.loc 1 292 0
 1236 03b2 089B     		ldr	r3, [sp, #32]
 1237 03b4 0693     		str	r3, [sp, #24]
 1238 03b6 0122     		movs	r2, #1
 1239 03b8 0392     		str	r2, [sp, #12]
 1240 03ba 04E0     		b	.L107
 1241              	.L120:
 293:lib/display/abstract/src/display_if_support.c ****         if ((num_eigth%4)%3){
 1242              		.loc 1 293 0
 1243 03bc 0C9E     		ldr	r6, [sp, #48]
 1244 03be 0696     		str	r6, [sp, #24]
 1245 03c0 4FF0FF37 		mov	r7, #-1
 1246 03c4 0397     		str	r7, [sp, #12]
 1247              	.L107:
 1248              	.LVL147:
 294:lib/display/abstract/src/display_if_support.c ****                 px = &cx; py = &cy; }   /* 0,3,4,7 */
 1249              		.loc 1 294 0
 1250 03c6 08F00300 		and	r0, r8, #3
 1251 03ca 0324     		movs	r4, #3
 1252 03cc 90FBF4F1 		sdiv	r1, r0, r4
 1253 03d0 04FB1105 		mls	r5, r4, r1, r0
 1254 03d4 25B1     		cbz	r5, .L121
 295:lib/display/abstract/src/display_if_support.c ****         else {  px = &cy; py = &cx; }   /* 1,2,5,6 */
 1255              		.loc 1 295 0
 1256 03d6 0DF13C0A 		add	sl, sp, #60
 1257 03da 0DF13809 		add	r9, sp, #56
 1258 03de 03E0     		b	.L108
 1259              	.L121:
 296:lib/display/abstract/src/display_if_support.c **** 
 1260              		.loc 1 296 0
 1261 03e0 0DF1380A 		add	sl, sp, #56
 1262 03e4 0DF13C09 		add	r9, sp, #60
 1263              	.L108:
 1264              	.LVL148:
 179:lib/display/abstract/src/display_if_support.c **** {
 1265              		.loc 1 179 0
 1266 03e8 4FEA8806 		lsl	r6, r8, #2
 1267 03ec 0796     		str	r6, [sp, #28]
 1268 03ee 10AB     		add	r3, sp, #64
 1269 03f0 9F19     		adds	r7, r3, r6
 299:lib/display/abstract/src/display_if_support.c ****         cx=start_po[num_eigth].x;
 1270              		.loc 1 299 0
 1271 03f2 7F88     		ldrh	r7, [r7, #2]
 1272              	.LVL149:
 1273 03f4 0F97     		str	r7, [sp, #60]
 1274              	.LVL150:
 300:lib/display/abstract/src/display_if_support.c **** 
 1275              		.loc 1 300 0
 1276 03f6 33F82860 		ldrh	r6, [r3, r8, lsl #2]
 1277              	.LVL151:
 1278 03fa 0E96     		str	r6, [sp, #56]
 1279              	.LVL152:
 303:lib/display/abstract/src/display_if_support.c ****         dx = 8*cx+4;
 1280              		.loc 1 303 0
 1281 03fc 07FB07F2 		mul	r2, r7, r7
 1282 0400 06FB0620 		mla	r0, r6, r6, r2
 1283 0404 C41B     		subs	r4, r0, r7
 1284 0406 A100     		lsls	r1, r4, #2
 1285 0408 8D1C     		adds	r5, r1, #2
 1286 040a DDF828C0 		ldr	ip, [sp, #40]
 1287 040e CCEB0500 		rsb	r0, ip, r5
 1288 0412 FFF7FEFF 		bl	__aeabi_i2d
 1289              	.LVL153:
 1290 0416 0446     		mov	r4, r0
 1291 0418 0D46     		mov	r5, r1
 1292              	.LVL154:
 304:lib/display/abstract/src/display_if_support.c ****         dy = -8*cy+8;
 1293              		.loc 1 304 0
 1294 041a F300     		lsls	r3, r6, #3
 1295 041c 1E1D     		adds	r6, r3, #4
 1296              	.LVL155:
 305:lib/display/abstract/src/display_if_support.c **** 
 1297              		.loc 1 305 0
 1298 041e FF00     		lsls	r7, r7, #3
 1299              	.LVL156:
 1300 0420 C7F10807 		rsb	r7, r7, #8
 1301              	.LVL157:
 1302              	.L109:
 308:lib/display/abstract/src/display_if_support.c ****             if (d>0) {
 1303              		.loc 1 308 0 discriminator 1
 1304 0424 0E9A     		ldr	r2, [sp, #56]
 1305 0426 0592     		str	r2, [sp, #20]
 1306 0428 18A8     		add	r0, sp, #96
 1307 042a DDF81CE0 		ldr	lr, [sp, #28]
 1308 042e 3EF80010 		ldrh	r1, [lr, r0]
 1309 0432 8A42     		cmp	r2, r1
 1310 0434 37DC     		bgt	.L132
 1311              	.L112:
 309:lib/display/abstract/src/display_if_support.c ****                 d += dy;
 1312              		.loc 1 309 0
 1313 0436 2046     		mov	r0, r4
 1314 0438 2946     		mov	r1, r5
 1315 043a 0022     		movs	r2, #0
 1316 043c 0023     		movs	r3, #0
 1317 043e FFF7FEFF 		bl	__aeabi_dcmpgt
 1318              	.LVL158:
 1319 0442 70B1     		cbz	r0, .L110
 310:lib/display/abstract/src/display_if_support.c ****                 dy+=8;
 1320              		.loc 1 310 0
 1321 0444 3846     		mov	r0, r7
 1322 0446 FFF7FEFF 		bl	__aeabi_i2d
 1323              	.LVL159:
 1324 044a 0246     		mov	r2, r0
 1325 044c 0B46     		mov	r3, r1
 1326 044e 2046     		mov	r0, r4
 1327 0450 2946     		mov	r1, r5
 1328 0452 FFF7FEFF 		bl	__aeabi_dadd
 1329              	.LVL160:
 1330 0456 0446     		mov	r4, r0
 1331              	.LVL161:
 1332 0458 0D46     		mov	r5, r1
 1333              	.LVL162:
 311:lib/display/abstract/src/display_if_support.c ****                 cy--;
 1334              		.loc 1 311 0
 1335 045a 0837     		adds	r7, r7, #8
 1336              	.LVL163:
 312:lib/display/abstract/src/display_if_support.c ****             }
 1337              		.loc 1 312 0
 1338 045c 0F9B     		ldr	r3, [sp, #60]
 1339 045e 5A1E     		subs	r2, r3, #1
 1340 0460 0F92     		str	r2, [sp, #60]
 1341              	.L110:
 314:lib/display/abstract/src/display_if_support.c ****             d += dx;
 1342              		.loc 1 314 0
 1343 0462 D9F80000 		ldr	r0, [r9, #0]
 1344 0466 DDF80CC0 		ldr	ip, [sp, #12]
 1345 046a 0699     		ldr	r1, [sp, #24]
 1346 046c 0CFB0013 		mla	r3, ip, r0, r1
 1347 0470 DAF80020 		ldr	r2, [sl, #0]
 1348 0474 DDF810E0 		ldr	lr, [sp, #16]
 1349 0478 0EFB02B1 		mla	r1, lr, r2, fp
 1350 047c 98B2     		uxth	r0, r3
 1351 047e 89B2     		uxth	r1, r1
 1352 0480 0D9A     		ldr	r2, [sp, #52]
 1353 0482 FFF7FEFF 		bl	PutPixel
 1354              	.LVL164:
 315:lib/display/abstract/src/display_if_support.c ****             dx+=8;
 1355              		.loc 1 315 0
 1356 0486 3046     		mov	r0, r6
 1357 0488 FFF7FEFF 		bl	__aeabi_i2d
 1358              	.LVL165:
 1359 048c 0246     		mov	r2, r0
 1360 048e 0B46     		mov	r3, r1
 1361 0490 2046     		mov	r0, r4
 1362 0492 2946     		mov	r1, r5
 1363 0494 FFF7FEFF 		bl	__aeabi_dadd
 1364              	.LVL166:
 1365 0498 0446     		mov	r4, r0
 1366              	.LVL167:
 1367 049a 0D46     		mov	r5, r1
 1368              	.LVL168:
 316:lib/display/abstract/src/display_if_support.c ****         }
 1369              		.loc 1 316 0
 1370 049c 0836     		adds	r6, r6, #8
 1371              	.LVL169:
 308:lib/display/abstract/src/display_if_support.c ****             if (d>0) {
 1372              		.loc 1 308 0
 1373 049e 0598     		ldr	r0, [sp, #20]
 1374 04a0 431C     		adds	r3, r0, #1
 1375 04a2 0E93     		str	r3, [sp, #56]
 1376 04a4 BEE7     		b	.L109
 1377              	.L132:
 286:lib/display/abstract/src/display_if_support.c **** 		/* Circle Divided Octal Regions */
 1378              		.loc 1 286 0
 1379 04a6 08F10108 		add	r8, r8, #1
 1380              	.LVL170:
 1381 04aa B8F1080F 		cmp	r8, #8
 1382 04ae 7FF46AAF 		bne	.L113
 1383              	.LVL171:
 1384              	.L75:
 319:lib/display/abstract/src/display_if_support.c **** 
 1385              		.loc 1 319 0
 1386 04b2 21B0     		add	sp, sp, #132
 1387 04b4 BDE8F08F 		pop	{r4, r5, r6, r7, r8, r9, sl, fp, pc}
 1388              		.cfi_endproc
 1389              	.LFE64:
 1391              		.section	.text.Display_FillCircle_If,"ax",%progbits
 1392              		.align	1
 1393              		.global	Display_FillCircle_If
 1394              		.thumb
 1395              		.thumb_func
 1397              	Display_FillCircle_If:
 1398              	.LFB65:
 363:lib/display/abstract/src/display_if_support.c **** 	/* Bresenham Midpoint Algorithum */
 1399              		.loc 1 363 0
 1400              		.cfi_startproc
 1401              		@ args = 0, pretend = 0, frame = 32
 1402              		@ frame_needed = 0, uses_anonymous_args = 0
 1403              	.LVL172:
 1404 0000 2DE9F04F 		push	{r4, r5, r6, r7, r8, r9, sl, fp, lr}
 1405              	.LCFI10:
 1406              		.cfi_def_cfa_offset 36
 1407              		.cfi_offset 4, -36
 1408              		.cfi_offset 5, -32
 1409              		.cfi_offset 6, -28
 1410              		.cfi_offset 7, -24
 1411              		.cfi_offset 8, -20
 1412              		.cfi_offset 9, -16
 1413              		.cfi_offset 10, -12
 1414              		.cfi_offset 11, -8
 1415              		.cfi_offset 14, -4
 1416 0004 89B0     		sub	sp, sp, #36
 1417              	.LCFI11:
 1418              		.cfi_def_cfa_offset 72
 1419 0006 0690     		str	r0, [sp, #24]
 1420 0008 0791     		str	r1, [sp, #28]
 1421 000a 9A46     		mov	sl, r3
 366:lib/display/abstract/src/display_if_support.c **** 	
 1422              		.loc 1 366 0
 1423 000c 0224     		movs	r4, #2
 1424 000e 92FBF4F2 		sdiv	r2, r2, r4
 1425              	.LVL173:
 368:lib/display/abstract/src/display_if_support.c ****     dH  = 3;
 1426              		.loc 1 368 0
 1427 0012 C2F10106 		rsb	r6, r2, #1
 1428              	.LVL174:
 370:lib/display/abstract/src/display_if_support.c ****     cy  = radius;
 1429              		.loc 1 370 0
 1430 0016 5700     		lsls	r7, r2, #1
 1431 0018 C7F10507 		rsb	r7, r7, #5
 1432              	.LVL175:
 371:lib/display/abstract/src/display_if_support.c **** 
 1433              		.loc 1 371 0
 1434 001c 1446     		mov	r4, r2
 373:lib/display/abstract/src/display_if_support.c ****         if (d < 0) {
 1435              		.loc 1 373 0
 1436 001e 0025     		movs	r5, #0
 1437              	.LVL176:
 1438              	.L136:
 362:lib/display/abstract/src/display_if_support.c **** {
 1439              		.loc 1 362 0 discriminator 1
 1440 0020 6B00     		lsls	r3, r5, #1
 1441 0022 D81C     		adds	r0, r3, #3
 1442              	.LVL177:
 373:lib/display/abstract/src/display_if_support.c ****         if (d < 0) {
 1443              		.loc 1 373 0 discriminator 1
 1444 0024 A542     		cmp	r5, r4
 1445 0026 66DC     		bgt	.L149
 1446              	.L143:
 374:lib/display/abstract/src/display_if_support.c ****             d   += dH;
 1447              		.loc 1 374 0
 1448 0028 002E     		cmp	r6, #0
 1449 002a 02DA     		bge	.L137
 375:lib/display/abstract/src/display_if_support.c ****             dH  += 2;
 1450              		.loc 1 375 0
 1451 002c 3618     		adds	r6, r6, r0
 1452              	.LVL178:
 377:lib/display/abstract/src/display_if_support.c ****         }
 1453              		.loc 1 377 0
 1454 002e 0237     		adds	r7, r7, #2
 1455              	.LVL179:
 1456 0030 02E0     		b	.L138
 1457              	.LVL180:
 1458              	.L137:
 380:lib/display/abstract/src/display_if_support.c ****             dH  += 2;
 1459              		.loc 1 380 0
 1460 0032 F619     		adds	r6, r6, r7
 1461              	.LVL181:
 382:lib/display/abstract/src/display_if_support.c ****             --cy;
 1462              		.loc 1 382 0
 1463 0034 0437     		adds	r7, r7, #4
 1464              	.LVL182:
 383:lib/display/abstract/src/display_if_support.c ****         }
 1465              		.loc 1 383 0
 1466 0036 013C     		subs	r4, r4, #1
 1467              	.LVL183:
 1468              	.L138:
 387:lib/display/abstract/src/display_if_support.c **** 		do{
 1469              		.loc 1 387 0
 1470 0038 4FEA4408 		lsl	r8, r4, #1
 1471              	.LVL184:
 1472 003c C146     		mov	r9, r8
 1473              	.LVL185:
 1474              	.L139:
 362:lib/display/abstract/src/display_if_support.c **** {
 1475              		.loc 1 362 0 discriminator 1
 1476 003e A2B2     		uxth	r2, r4
 1477 0040 0292     		str	r2, [sp, #8]
 1478 0042 0699     		ldr	r1, [sp, #24]
 1479 0044 88B2     		uxth	r0, r1
 1480 0046 0490     		str	r0, [sp, #16]
 1481 0048 1218     		adds	r2, r2, r0
 1482 004a 91B2     		uxth	r1, r2
 1483 004c 0591     		str	r1, [sp, #20]
 1484 004e 0798     		ldr	r0, [sp, #28]
 1485 0050 1FFA80FB 		uxth	fp, r0
 1486 0054 AAB2     		uxth	r2, r5
 1487 0056 0392     		str	r2, [sp, #12]
 1488 0058 0599     		ldr	r1, [sp, #20]
 1489 005a C9EB0100 		rsb	r0, r9, r1
 1490 005e 039A     		ldr	r2, [sp, #12]
 1491 0060 02EB0B01 		add	r1, r2, fp
 389:lib/display/abstract/src/display_if_support.c **** 		} while (n--);
 1492              		.loc 1 389 0 discriminator 1
 1493 0064 80B2     		uxth	r0, r0
 1494 0066 89B2     		uxth	r1, r1
 1495 0068 5246     		mov	r2, sl
 1496 006a 0193     		str	r3, [sp, #4]
 1497 006c FFF7FEFF 		bl	PutPixel
 1498              	.LVL186:
 390:lib/display/abstract/src/display_if_support.c **** 
 1499              		.loc 1 390 0 discriminator 1
 1500 0070 09F1FF39 		add	r9, r9, #-1
 1501              	.LVL187:
 1502 0074 B9F1FF3F 		cmp	r9, #-1
 1503 0078 019B     		ldr	r3, [sp, #4]
 1504 007a E0D1     		bne	.L139
 362:lib/display/abstract/src/display_if_support.c **** {
 1505              		.loc 1 362 0
 1506 007c 9946     		mov	r9, r3
 1507              	.LVL188:
 1508              	.L140:
 362:lib/display/abstract/src/display_if_support.c **** {
 1509              		.loc 1 362 0 is_stmt 0 discriminator 1
 1510 007e 0398     		ldr	r0, [sp, #12]
 1511 0080 049A     		ldr	r2, [sp, #16]
 1512 0082 00EB020C 		add	ip, r0, r2
 1513 0086 C3EB0C00 		rsb	r0, r3, ip
 395:lib/display/abstract/src/display_if_support.c **** 		} while (n--);
 1514              		.loc 1 395 0 is_stmt 1 discriminator 1
 1515 008a 0299     		ldr	r1, [sp, #8]
 1516 008c 01EB0B02 		add	r2, r1, fp
 1517 0090 80B2     		uxth	r0, r0
 1518 0092 91B2     		uxth	r1, r2
 1519 0094 5246     		mov	r2, sl
 1520 0096 0193     		str	r3, [sp, #4]
 1521 0098 CDF800C0 		str	ip, [sp, #0]
 1522 009c FFF7FEFF 		bl	PutPixel
 1523              	.LVL189:
 396:lib/display/abstract/src/display_if_support.c **** 
 1524              		.loc 1 396 0 discriminator 1
 1525 00a0 019B     		ldr	r3, [sp, #4]
 1526 00a2 013B     		subs	r3, r3, #1
 1527              	.LVL190:
 1528 00a4 5A1C     		adds	r2, r3, #1
 1529 00a6 DDF800C0 		ldr	ip, [sp, #0]
 1530 00aa E8D1     		bne	.L140
 362:lib/display/abstract/src/display_if_support.c **** {
 1531              		.loc 1 362 0
 1532 00ac 1FFA8CFC 		uxth	ip, ip
 1533              	.LVL191:
 1534              	.L141:
 362:lib/display/abstract/src/display_if_support.c **** {
 1535              		.loc 1 362 0 is_stmt 0 discriminator 1
 1536 00b0 C9EB0C00 		rsb	r0, r9, ip
 401:lib/display/abstract/src/display_if_support.c **** 		} while (n--);
 1537              		.loc 1 401 0 is_stmt 1 discriminator 1
 1538 00b4 0299     		ldr	r1, [sp, #8]
 1539 00b6 C1EB0B02 		rsb	r2, r1, fp
 1540 00ba 80B2     		uxth	r0, r0
 1541 00bc 91B2     		uxth	r1, r2
 1542 00be 5246     		mov	r2, sl
 1543 00c0 CDF800C0 		str	ip, [sp, #0]
 1544 00c4 FFF7FEFF 		bl	PutPixel
 1545              	.LVL192:
 402:lib/display/abstract/src/display_if_support.c **** 
 1546              		.loc 1 402 0 discriminator 1
 1547 00c8 09F1FF39 		add	r9, r9, #-1
 1548              	.LVL193:
 1549 00cc B9F1FF3F 		cmp	r9, #-1
 1550 00d0 DDF800C0 		ldr	ip, [sp, #0]
 1551 00d4 ECD1     		bne	.L141
 1552              	.LVL194:
 1553              	.L144:
 362:lib/display/abstract/src/display_if_support.c **** {
 1554              		.loc 1 362 0 discriminator 1
 1555 00d6 059B     		ldr	r3, [sp, #20]
 1556 00d8 C8EB0300 		rsb	r0, r8, r3
 1557 00dc 0399     		ldr	r1, [sp, #12]
 1558 00de C1EB0B02 		rsb	r2, r1, fp
 407:lib/display/abstract/src/display_if_support.c **** 		} while (n--);
 1559              		.loc 1 407 0 discriminator 1
 1560 00e2 80B2     		uxth	r0, r0
 1561 00e4 91B2     		uxth	r1, r2
 1562 00e6 5246     		mov	r2, sl
 1563 00e8 FFF7FEFF 		bl	PutPixel
 1564              	.LVL195:
 408:lib/display/abstract/src/display_if_support.c **** 
 1565              		.loc 1 408 0 discriminator 1
 1566 00ec 18F1FF38 		adds	r8, r8, #-1
 1567              	.LVL196:
 1568 00f0 F1D2     		bcs	.L144
 373:lib/display/abstract/src/display_if_support.c ****         if (d < 0) {
 1569              		.loc 1 373 0
 1570 00f2 0135     		adds	r5, r5, #1
 1571              	.LVL197:
 1572 00f4 94E7     		b	.L136
 1573              	.LVL198:
 1574              	.L149:
 411:lib/display/abstract/src/display_if_support.c **** 
 1575              		.loc 1 411 0
 1576 00f6 09B0     		add	sp, sp, #36
 1577 00f8 BDE8F08F 		pop	{r4, r5, r6, r7, r8, r9, sl, fp, pc}
 1578              		.cfi_endproc
 1579              	.LFE65:
 1581              		.section	.text.Display_DrawRect_If,"ax",%progbits
 1582              		.align	1
 1583              		.global	Display_DrawRect_If
 1584              		.thumb
 1585              		.thumb_func
 1587              	Display_DrawRect_If:
 1588              	.LFB66:
 419:lib/display/abstract/src/display_if_support.c **** 	volatile uint32_t n;
 1589              		.loc 1 419 0
 1590              		.cfi_startproc
 1591              		@ args = 4, pretend = 0, frame = 8
 1592              		@ frame_needed = 0, uses_anonymous_args = 0
 1593              	.LVL199:
 1594 0000 2DE9F347 		push	{r0, r1, r4, r5, r6, r7, r8, r9, sl, lr}
 1595              	.LCFI12:
 1596              		.cfi_def_cfa_offset 40
 1597              		.cfi_offset 0, -40
 1598              		.cfi_offset 1, -36
 1599              		.cfi_offset 4, -32
 1600              		.cfi_offset 5, -28
 1601              		.cfi_offset 6, -24
 1602              		.cfi_offset 7, -20
 1603              		.cfi_offset 8, -16
 1604              		.cfi_offset 9, -12
 1605              		.cfi_offset 10, -8
 1606              		.cfi_offset 14, -4
 1607 0004 0746     		mov	r7, r0
 1608 0006 0E46     		mov	r6, r1
 1609 0008 9046     		mov	r8, r2
 1610 000a 9946     		mov	r9, r3
 1611 000c BDF82840 		ldrh	r4, [sp, #40]
 422:lib/display/abstract/src/display_if_support.c **** 	do{
 1612              		.loc 1 422 0
 1613 0010 C0EB010A 		rsb	sl, r0, r1
 1614              	.LVL200:
 1615 0014 CDF804A0 		str	sl, [sp, #4]
 1616              	.LVL201:
 1617              	.L151:
 424:lib/display/abstract/src/display_if_support.c **** 	} while (n--);
 1618              		.loc 1 424 0 discriminator 1
 1619 0018 B5B2     		uxth	r5, r6
 1620 001a 0198     		ldr	r0, [sp, #4]
 1621 001c 291A     		subs	r1, r5, r0
 1622 001e 88B2     		uxth	r0, r1
 1623 0020 1FFA88F1 		uxth	r1, r8
 1624 0024 2246     		mov	r2, r4
 1625 0026 FFF7FEFF 		bl	PutPixel
 1626              	.LVL202:
 425:lib/display/abstract/src/display_if_support.c **** 
 1627              		.loc 1 425 0 discriminator 1
 1628 002a 019B     		ldr	r3, [sp, #4]
 1629 002c 5A1E     		subs	r2, r3, #1
 1630              	.LVL203:
 1631 002e 0192     		str	r2, [sp, #4]
 1632              	.LVL204:
 1633 0030 002B     		cmp	r3, #0
 1634 0032 F1D1     		bne	.L151
 1635              	.LVL205:
 427:lib/display/abstract/src/display_if_support.c **** 	do{
 1636              		.loc 1 427 0
 1637 0034 CDF804A0 		str	sl, [sp, #4]
 1638              	.LVL206:
 1639              	.L152:
 429:lib/display/abstract/src/display_if_support.c **** 	} while (n--);
 1640              		.loc 1 429 0 discriminator 1
 1641 0038 0198     		ldr	r0, [sp, #4]
 1642 003a 1FFA89F6 		uxth	r6, r9
 1643 003e 291A     		subs	r1, r5, r0
 1644 0040 88B2     		uxth	r0, r1
 1645 0042 3146     		mov	r1, r6
 1646 0044 2246     		mov	r2, r4
 1647 0046 FFF7FEFF 		bl	PutPixel
 1648              	.LVL207:
 430:lib/display/abstract/src/display_if_support.c **** 
 1649              		.loc 1 430 0 discriminator 1
 1650 004a 019B     		ldr	r3, [sp, #4]
 1651 004c 5A1E     		subs	r2, r3, #1
 1652              	.LVL208:
 1653 004e 0192     		str	r2, [sp, #4]
 1654              	.LVL209:
 1655 0050 002B     		cmp	r3, #0
 1656 0052 F1D1     		bne	.L152
 432:lib/display/abstract/src/display_if_support.c **** 	do{
 1657              		.loc 1 432 0
 1658 0054 C8EB0908 		rsb	r8, r8, r9
 1659              	.LVL210:
 1660 0058 CDF80480 		str	r8, [sp, #4]
 1661              	.LVL211:
 1662              	.L153:
 434:lib/display/abstract/src/display_if_support.c **** 	} while (n--);
 1663              		.loc 1 434 0 discriminator 1
 1664 005c 0198     		ldr	r0, [sp, #4]
 1665 005e 311A     		subs	r1, r6, r0
 1666 0060 B8B2     		uxth	r0, r7
 1667 0062 89B2     		uxth	r1, r1
 1668 0064 2246     		mov	r2, r4
 1669 0066 FFF7FEFF 		bl	PutPixel
 1670              	.LVL212:
 435:lib/display/abstract/src/display_if_support.c **** 
 1671              		.loc 1 435 0 discriminator 1
 1672 006a 019B     		ldr	r3, [sp, #4]
 1673 006c 5A1E     		subs	r2, r3, #1
 1674              	.LVL213:
 1675 006e 0192     		str	r2, [sp, #4]
 1676              	.LVL214:
 1677 0070 002B     		cmp	r3, #0
 1678 0072 F3D1     		bne	.L153
 1679              	.LVL215:
 437:lib/display/abstract/src/display_if_support.c **** 	do{
 1680              		.loc 1 437 0
 1681 0074 CDF80480 		str	r8, [sp, #4]
 1682              	.L154:
 439:lib/display/abstract/src/display_if_support.c **** 	} while (n--);
 1683              		.loc 1 439 0 discriminator 1
 1684 0078 0198     		ldr	r0, [sp, #4]
 1685 007a 311A     		subs	r1, r6, r0
 1686 007c 2846     		mov	r0, r5
 1687 007e 89B2     		uxth	r1, r1
 1688 0080 2246     		mov	r2, r4
 1689 0082 FFF7FEFF 		bl	PutPixel
 1690              	.LVL216:
 440:lib/display/abstract/src/display_if_support.c **** 	
 1691              		.loc 1 440 0 discriminator 1
 1692 0086 019B     		ldr	r3, [sp, #4]
 1693 0088 5A1E     		subs	r2, r3, #1
 1694              	.LVL217:
 1695 008a 0192     		str	r2, [sp, #4]
 1696              	.LVL218:
 1697 008c 002B     		cmp	r3, #0
 1698 008e F3D1     		bne	.L154
 442:lib/display/abstract/src/display_if_support.c **** 
 1699              		.loc 1 442 0
 1700 0090 BDE8FC87 		pop	{r2, r3, r4, r5, r6, r7, r8, r9, sl, pc}
 1701              		.cfi_endproc
 1702              	.LFE66:
 1704              		.section	.text.putkanji,"ax",%progbits
 1705              		.align	1
 1706              		.global	putkanji
 1707              		.thumb
 1708              		.thumb_func
 1710              	putkanji:
 1711              	.LFB69:
 538:lib/display/abstract/src/display_if_support.c **** 
 539:lib/display/abstract/src/display_if_support.c **** 
 540:lib/display/abstract/src/display_if_support.c **** /**************************************************************************/
 541:lib/display/abstract/src/display_if_support.c **** /*! 
 542:lib/display/abstract/src/display_if_support.c **** 	Put SJIS Kanji Font With Occupy.
 543:lib/display/abstract/src/display_if_support.c **** */
 544:lib/display/abstract/src/display_if_support.c **** /**************************************************************************/
 545:lib/display/abstract/src/display_if_support.c **** void putkanji(uint16_t col, uint16_t row, uint8_t* pkanji, uint16_t fg,uint16_t bg)
 546:lib/display/abstract/src/display_if_support.c **** {
 1712              		.loc 1 546 0
 1713              		.cfi_startproc
 1714              		@ args = 4, pretend = 0, frame = 0
 1715              		@ frame_needed = 0, uses_anonymous_args = 0
 1716              	.LVL219:
 1717 0000 2DE9F84F 		push	{r3, r4, r5, r6, r7, r8, r9, sl, fp, lr}
 1718              	.LCFI13:
 1719              		.cfi_def_cfa_offset 40
 1720              		.cfi_offset 3, -40
 1721              		.cfi_offset 4, -36
 1722              		.cfi_offset 5, -32
 1723              		.cfi_offset 6, -28
 1724              		.cfi_offset 7, -24
 1725              		.cfi_offset 8, -20
 1726              		.cfi_offset 9, -16
 1727              		.cfi_offset 10, -12
 1728              		.cfi_offset 11, -8
 1729              		.cfi_offset 14, -4
 1730 0004 0646     		mov	r6, r0
 1731 0006 0D46     		mov	r5, r1
 1732 0008 9946     		mov	r9, r3
 1733 000a BDF828A0 		ldrh	sl, [sp, #40]
 547:lib/display/abstract/src/display_if_support.c **** 
 548:lib/display/abstract/src/display_if_support.c **** 	uint8_t*	ptemp;
 549:lib/display/abstract/src/display_if_support.c **** 	int 		i,j,l;
 550:lib/display/abstract/src/display_if_support.c **** 	int 		k,m;
 551:lib/display/abstract/src/display_if_support.c **** 	uint16_t 	wd;
 552:lib/display/abstract/src/display_if_support.c **** 
 553:lib/display/abstract/src/display_if_support.c **** 	l = CurrentKanjiDat->X_Size / 8;
 1734              		.loc 1 553 0
 1735 000e DFF8A0B0 		ldr	fp, .L179
 1736 0012 DBF80030 		ldr	r3, [fp, #0]
 1737              	.LVL220:
 1738 0016 93F80980 		ldrb	r8, [r3, #9]	@ zero_extendqisi2
 1739 001a 4FEAD807 		lsr	r7, r8, #3
 1740              	.LVL221:
 554:lib/display/abstract/src/display_if_support.c **** 	m = CurrentKanjiDat->X_Size % 8;
 1741              		.loc 1 554 0
 1742 001e 08F00708 		and	r8, r8, #7
 1743              	.LVL222:
 555:lib/display/abstract/src/display_if_support.c **** 
 556:lib/display/abstract/src/display_if_support.c **** 	ptemp = GetPtr_Kanji(((*pkanji) << 8) | *(pkanji+1));
 1744              		.loc 1 556 0
 1745 0022 1078     		ldrb	r0, [r2, #0]	@ zero_extendqisi2
 1746              	.LVL223:
 1747 0024 5178     		ldrb	r1, [r2, #1]	@ zero_extendqisi2
 1748              	.LVL224:
 1749 0026 41EA0020 		orr	r0, r1, r0, lsl #8
 1750 002a FFF7FEFF 		bl	GetPtr_Kanji
 1751              	.LVL225:
 1752 002e 0446     		mov	r4, r0
 1753              	.LVL226:
 557:lib/display/abstract/src/display_if_support.c **** 	
 558:lib/display/abstract/src/display_if_support.c **** 	Display_rect_if(col, col + CurrentKanjiDat->X_Size - 1,
 1754              		.loc 1 558 0
 1755 0030 DBF80020 		ldr	r2, [fp, #0]
 1756 0034 537A     		ldrb	r3, [r2, #9]	@ zero_extendqisi2
 1757 0036 F118     		adds	r1, r6, r3
 559:lib/display/abstract/src/display_if_support.c **** 					row, row + CurrentKanjiDat->Y_Size - 1);
 1758              		.loc 1 559 0
 1759 0038 907A     		ldrb	r0, [r2, #10]	@ zero_extendqisi2
 1760              	.LVL227:
 1761 003a 2B18     		adds	r3, r5, r0
 558:lib/display/abstract/src/display_if_support.c **** 					row, row + CurrentKanjiDat->Y_Size - 1);
 1762              		.loc 1 558 0
 1763 003c 3046     		mov	r0, r6
 1764 003e 0139     		subs	r1, r1, #1
 1765 0040 2A46     		mov	r2, r5
 1766 0042 013B     		subs	r3, r3, #1
 1767 0044 FFF7FEFF 		bl	ST7732_rect
 1768              	.LVL228:
 560:lib/display/abstract/src/display_if_support.c **** 
 561:lib/display/abstract/src/display_if_support.c **** 
 562:lib/display/abstract/src/display_if_support.c **** 	for(i=0; i<CurrentKanjiDat->Y_Size;i++)
 1769              		.loc 1 562 0
 1770 0048 4FF0000B 		mov	fp, #0
 1771              	.LVL229:
 1772              	.L160:
 1773              		.loc 1 562 0 is_stmt 0 discriminator 1
 1774 004c 184A     		ldr	r2, .L179
 1775 004e 1168     		ldr	r1, [r2, #0]
 1776 0050 887A     		ldrb	r0, [r1, #10]	@ zero_extendqisi2
 1777 0052 8345     		cmp	fp, r0
 1778 0054 29DA     		bge	.L176
 1779              	.L171:
 1780              		.loc 1 562 0
 1781 0056 0025     		movs	r5, #0
 1782              	.LVL230:
 1783              	.L167:
 563:lib/display/abstract/src/display_if_support.c **** 	{
 564:lib/display/abstract/src/display_if_support.c **** 		for(k=0; k < l ;k++){
 1784              		.loc 1 564 0 is_stmt 1 discriminator 1
 1785 0058 BD42     		cmp	r5, r7
 1786 005a 0FDA     		bge	.L177
 1787              	.L169:
 1788              		.loc 1 564 0 is_stmt 0
 1789 005c 0026     		movs	r6, #0
 1790              	.L162:
 565:lib/display/abstract/src/display_if_support.c **** 			
 566:lib/display/abstract/src/display_if_support.c **** 			for(j=0; j< 8;j++){
 567:lib/display/abstract/src/display_if_support.c **** 				wd = (((*(ptemp))<<j)&0x80) ?  fg : bg;
 1791              		.loc 1 567 0 is_stmt 1
 1792 005e 625D     		ldrb	r2, [r4, r5]	@ zero_extendqisi2
 1793 0060 02FA06F2 		lsl	r2, r2, r6
 1794 0064 12F0800F 		tst	r2, #128
 1795              	.LVL231:
 568:lib/display/abstract/src/display_if_support.c **** 			#if defined(DISABLE_FASTWRITE)
 569:lib/display/abstract/src/display_if_support.c **** 				SetPixel(col +j +(k*8),row +i);
 570:lib/display/abstract/src/display_if_support.c **** 			#endif
 571:lib/display/abstract/src/display_if_support.c **** 				Display_wr_dat_if(wd);
 1796              		.loc 1 571 0
 1797 0068 0CBF     		ite	eq
 1798 006a 5046     		moveq	r0, sl
 1799 006c 4846     		movne	r0, r9
 1800 006e FFF7FEFF 		bl	ST7732_wr_gram
 1801              	.LVL232:
 566:lib/display/abstract/src/display_if_support.c **** 				wd = (((*(ptemp))<<j)&0x80) ?  fg : bg;
 1802              		.loc 1 566 0
 1803 0072 0136     		adds	r6, r6, #1
 1804              	.LVL233:
 1805 0074 082E     		cmp	r6, #8
 1806 0076 F2D1     		bne	.L162
 564:lib/display/abstract/src/display_if_support.c **** 			
 1807              		.loc 1 564 0
 1808 0078 0135     		adds	r5, r5, #1
 1809              	.LVL234:
 1810 007a EDE7     		b	.L167
 1811              	.LVL235:
 1812              	.L177:
 1813 007c E419     		adds	r4, r4, r7
 545:lib/display/abstract/src/display_if_support.c **** {
 1814              		.loc 1 545 0 discriminator 1
 1815 007e 0025     		movs	r5, #0
 1816              	.LVL236:
 1817              	.L163:
 572:lib/display/abstract/src/display_if_support.c **** 			}
 573:lib/display/abstract/src/display_if_support.c **** 			ptemp++;
 574:lib/display/abstract/src/display_if_support.c **** 		}
 575:lib/display/abstract/src/display_if_support.c **** 
 576:lib/display/abstract/src/display_if_support.c **** 		for(j=0; j< m ;j++){
 1818              		.loc 1 576 0 discriminator 1
 1819 0080 4545     		cmp	r5, r8
 1820 0082 0BDA     		bge	.L178
 1821              	.L165:
 577:lib/display/abstract/src/display_if_support.c **** 				wd = (((*(ptemp))<<j)&0x80) ?  fg : bg;
 1822              		.loc 1 577 0
 1823 0084 2378     		ldrb	r3, [r4, #0]	@ zero_extendqisi2
 1824 0086 03FA05F3 		lsl	r3, r3, r5
 1825 008a 13F0800F 		tst	r3, #128
 1826              	.LVL237:
 578:lib/display/abstract/src/display_if_support.c **** 			#if defined(DISABLE_FASTWRITE)
 579:lib/display/abstract/src/display_if_support.c **** 				SetPixel(col +j +(k*8),row +i);
 580:lib/display/abstract/src/display_if_support.c **** 			#endif
 581:lib/display/abstract/src/display_if_support.c **** 				Display_wr_dat_if(wd);
 1827              		.loc 1 581 0
 1828 008e 0CBF     		ite	eq
 1829 0090 5046     		moveq	r0, sl
 1830 0092 4846     		movne	r0, r9
 1831 0094 FFF7FEFF 		bl	ST7732_wr_gram
 1832              	.LVL238:
 576:lib/display/abstract/src/display_if_support.c **** 				wd = (((*(ptemp))<<j)&0x80) ?  fg : bg;
 1833              		.loc 1 576 0
 1834 0098 0135     		adds	r5, r5, #1
 1835              	.LVL239:
 1836 009a F1E7     		b	.L163
 1837              	.L178:
 582:lib/display/abstract/src/display_if_support.c **** 		}
 583:lib/display/abstract/src/display_if_support.c **** 
 584:lib/display/abstract/src/display_if_support.c **** 		if (m != 0) ptemp++;	
 1838              		.loc 1 584 0
 1839 009c B8F1000F 		cmp	r8, #0
 1840 00a0 00D0     		beq	.L166
 1841              		.loc 1 584 0 is_stmt 0 discriminator 1
 1842 00a2 0134     		adds	r4, r4, #1
 1843              	.LVL240:
 1844              	.L166:
 562:lib/display/abstract/src/display_if_support.c **** 	{
 1845              		.loc 1 562 0 is_stmt 1
 1846 00a4 0BF1010B 		add	fp, fp, #1
 1847              	.LVL241:
 1848 00a8 D0E7     		b	.L160
 1849              	.LVL242:
 1850              	.L176:
 585:lib/display/abstract/src/display_if_support.c **** 	}
 586:lib/display/abstract/src/display_if_support.c **** 
 587:lib/display/abstract/src/display_if_support.c **** }
 1851              		.loc 1 587 0
 1852 00aa BDE8F88F 		pop	{r3, r4, r5, r6, r7, r8, r9, sl, fp, pc}
 1853              	.L180:
 1854 00ae 00BF     		.align	2
 1855              	.L179:
 1856 00b0 00000000 		.word	CurrentKanjiDat
 1857              		.cfi_endproc
 1858              	.LFE69:
 1860              		.section	.text.putank,"ax",%progbits
 1861              		.align	1
 1862              		.global	putank
 1863              		.thumb
 1864              		.thumb_func
 1866              	putank:
 1867              	.LFB70:
 588:lib/display/abstract/src/display_if_support.c **** 
 589:lib/display/abstract/src/display_if_support.c **** 
 590:lib/display/abstract/src/display_if_support.c **** /**************************************************************************/
 591:lib/display/abstract/src/display_if_support.c **** /*! 
 592:lib/display/abstract/src/display_if_support.c **** 	Put SJIS ANK Font With Occupy.
 593:lib/display/abstract/src/display_if_support.c **** */
 594:lib/display/abstract/src/display_if_support.c **** /**************************************************************************/
 595:lib/display/abstract/src/display_if_support.c **** void putank(uint16_t col, uint16_t row, uint8_t* pank, uint16_t fg,uint16_t bg)
 596:lib/display/abstract/src/display_if_support.c **** {
 1868              		.loc 1 596 0
 1869              		.cfi_startproc
 1870              		@ args = 4, pretend = 0, frame = 0
 1871              		@ frame_needed = 0, uses_anonymous_args = 0
 1872              	.LVL243:
 1873 0000 2DE9F84F 		push	{r3, r4, r5, r6, r7, r8, r9, sl, fp, lr}
 1874              	.LCFI14:
 1875              		.cfi_def_cfa_offset 40
 1876              		.cfi_offset 3, -40
 1877              		.cfi_offset 4, -36
 1878              		.cfi_offset 5, -32
 1879              		.cfi_offset 6, -28
 1880              		.cfi_offset 7, -24
 1881              		.cfi_offset 8, -20
 1882              		.cfi_offset 9, -16
 1883              		.cfi_offset 10, -12
 1884              		.cfi_offset 11, -8
 1885              		.cfi_offset 14, -4
 1886 0004 0646     		mov	r6, r0
 1887 0006 0D46     		mov	r5, r1
 1888 0008 9946     		mov	r9, r3
 1889 000a BDF828A0 		ldrh	sl, [sp, #40]
 597:lib/display/abstract/src/display_if_support.c **** 
 598:lib/display/abstract/src/display_if_support.c **** 	uint8_t*	ptemp;
 599:lib/display/abstract/src/display_if_support.c **** 	int 		i,j,l;
 600:lib/display/abstract/src/display_if_support.c **** 	int 		k,m;
 601:lib/display/abstract/src/display_if_support.c **** 	uint16_t 	wd;
 602:lib/display/abstract/src/display_if_support.c **** 
 603:lib/display/abstract/src/display_if_support.c **** 	l = CurrentAnkDat->X_Size / 8;
 1890              		.loc 1 603 0
 1891 000e DFF898B0 		ldr	fp, .L201
 1892 0012 DBF80030 		ldr	r3, [fp, #0]
 1893              	.LVL244:
 1894 0016 93F80580 		ldrb	r8, [r3, #5]	@ zero_extendqisi2
 1895 001a 4FEAD807 		lsr	r7, r8, #3
 1896              	.LVL245:
 604:lib/display/abstract/src/display_if_support.c **** 	m = CurrentAnkDat->X_Size % 8;
 1897              		.loc 1 604 0
 1898 001e 08F00708 		and	r8, r8, #7
 1899              	.LVL246:
 605:lib/display/abstract/src/display_if_support.c **** 
 606:lib/display/abstract/src/display_if_support.c **** 	ptemp = GetPtr_Ank(*pank);
 1900              		.loc 1 606 0
 1901 0022 1078     		ldrb	r0, [r2, #0]	@ zero_extendqisi2
 1902              	.LVL247:
 1903 0024 FFF7FEFF 		bl	GetPtr_Ank
 1904              	.LVL248:
 1905 0028 0446     		mov	r4, r0
 1906              	.LVL249:
 607:lib/display/abstract/src/display_if_support.c **** 
 608:lib/display/abstract/src/display_if_support.c **** 	Display_rect_if(col, col + CurrentAnkDat->X_Size - 1,
 1907              		.loc 1 608 0
 1908 002a DBF80000 		ldr	r0, [fp, #0]
 1909              	.LVL250:
 1910 002e 4179     		ldrb	r1, [r0, #5]	@ zero_extendqisi2
 1911 0030 7218     		adds	r2, r6, r1
 609:lib/display/abstract/src/display_if_support.c **** 					row, row + CurrentAnkDat->Y_Size - 1);
 1912              		.loc 1 609 0
 1913 0032 8379     		ldrb	r3, [r0, #6]	@ zero_extendqisi2
 1914 0034 EB18     		adds	r3, r5, r3
 608:lib/display/abstract/src/display_if_support.c **** 					row, row + CurrentAnkDat->Y_Size - 1);
 1915              		.loc 1 608 0
 1916 0036 3046     		mov	r0, r6
 1917 0038 511E     		subs	r1, r2, #1
 1918 003a 2A46     		mov	r2, r5
 1919 003c 013B     		subs	r3, r3, #1
 1920 003e FFF7FEFF 		bl	ST7732_rect
 1921              	.LVL251:
 610:lib/display/abstract/src/display_if_support.c **** 
 611:lib/display/abstract/src/display_if_support.c **** 
 612:lib/display/abstract/src/display_if_support.c **** 	for(i=0; i<CurrentAnkDat->Y_Size;i++)
 1922              		.loc 1 612 0
 1923 0042 4FF0000B 		mov	fp, #0
 1924              	.LVL252:
 1925              	.L182:
 1926              		.loc 1 612 0 is_stmt 0 discriminator 1
 1927 0046 1848     		ldr	r0, .L201
 1928 0048 0168     		ldr	r1, [r0, #0]
 1929 004a 8A79     		ldrb	r2, [r1, #6]	@ zero_extendqisi2
 1930 004c 9345     		cmp	fp, r2
 1931 004e 29DA     		bge	.L198
 1932              	.L193:
 1933              		.loc 1 612 0
 1934 0050 0025     		movs	r5, #0
 1935              	.LVL253:
 1936              	.L189:
 613:lib/display/abstract/src/display_if_support.c **** 	{
 614:lib/display/abstract/src/display_if_support.c **** 		for(k=0; k < l ;k++){
 1937              		.loc 1 614 0 is_stmt 1 discriminator 1
 1938 0052 BD42     		cmp	r5, r7
 1939 0054 0FDA     		bge	.L199
 1940              	.L191:
 1941              		.loc 1 614 0 is_stmt 0
 1942 0056 0026     		movs	r6, #0
 1943              	.L184:
 615:lib/display/abstract/src/display_if_support.c **** 			
 616:lib/display/abstract/src/display_if_support.c **** 			for(j=0; j< 8;j++){
 617:lib/display/abstract/src/display_if_support.c **** 				wd = (((*(ptemp))<<j)&0x80) ?  fg : bg;
 1944              		.loc 1 617 0 is_stmt 1
 1945 0058 605D     		ldrb	r0, [r4, r5]	@ zero_extendqisi2
 1946 005a 00FA06F0 		lsl	r0, r0, r6
 1947 005e 10F0800F 		tst	r0, #128
 1948              	.LVL254:
 618:lib/display/abstract/src/display_if_support.c **** 			#if defined(DISABLE_FASTWRITE)
 619:lib/display/abstract/src/display_if_support.c **** 				SetPixel(col +j +(k*8),row +i);
 620:lib/display/abstract/src/display_if_support.c **** 			#endif
 621:lib/display/abstract/src/display_if_support.c **** 				Display_wr_dat_if(wd);
 1949              		.loc 1 621 0
 1950 0062 0CBF     		ite	eq
 1951 0064 5046     		moveq	r0, sl
 1952 0066 4846     		movne	r0, r9
 1953 0068 FFF7FEFF 		bl	ST7732_wr_gram
 1954              	.LVL255:
 616:lib/display/abstract/src/display_if_support.c **** 				wd = (((*(ptemp))<<j)&0x80) ?  fg : bg;
 1955              		.loc 1 616 0
 1956 006c 0136     		adds	r6, r6, #1
 1957              	.LVL256:
 1958 006e 082E     		cmp	r6, #8
 1959 0070 F2D1     		bne	.L184
 614:lib/display/abstract/src/display_if_support.c **** 			
 1960              		.loc 1 614 0
 1961 0072 0135     		adds	r5, r5, #1
 1962              	.LVL257:
 1963 0074 EDE7     		b	.L189
 1964              	.LVL258:
 1965              	.L199:
 1966 0076 E419     		adds	r4, r4, r7
 595:lib/display/abstract/src/display_if_support.c **** {
 1967              		.loc 1 595 0 discriminator 1
 1968 0078 0025     		movs	r5, #0
 1969              	.LVL259:
 1970              	.L185:
 622:lib/display/abstract/src/display_if_support.c **** 			}
 623:lib/display/abstract/src/display_if_support.c **** 			ptemp++;
 624:lib/display/abstract/src/display_if_support.c **** 		}
 625:lib/display/abstract/src/display_if_support.c **** 
 626:lib/display/abstract/src/display_if_support.c **** 		for(j=0; j< m ;j++){
 1971              		.loc 1 626 0 discriminator 1
 1972 007a 4545     		cmp	r5, r8
 1973 007c 0BDA     		bge	.L200
 1974              	.L187:
 627:lib/display/abstract/src/display_if_support.c **** 				wd = (((*(ptemp))<<j)&0x80) ?  fg : bg;
 1975              		.loc 1 627 0
 1976 007e 2378     		ldrb	r3, [r4, #0]	@ zero_extendqisi2
 1977 0080 03FA05F3 		lsl	r3, r3, r5
 1978 0084 13F0800F 		tst	r3, #128
 1979              	.LVL260:
 628:lib/display/abstract/src/display_if_support.c **** 			#if defined(DISABLE_FASTWRITE)
 629:lib/display/abstract/src/display_if_support.c **** 				SetPixel(col +j +(k*8),row +i);
 630:lib/display/abstract/src/display_if_support.c **** 			#endif
 631:lib/display/abstract/src/display_if_support.c **** 				Display_wr_dat_if(wd);
 1980              		.loc 1 631 0
 1981 0088 0CBF     		ite	eq
 1982 008a 5046     		moveq	r0, sl
 1983 008c 4846     		movne	r0, r9
 1984 008e FFF7FEFF 		bl	ST7732_wr_gram
 1985              	.LVL261:
 626:lib/display/abstract/src/display_if_support.c **** 				wd = (((*(ptemp))<<j)&0x80) ?  fg : bg;
 1986              		.loc 1 626 0
 1987 0092 0135     		adds	r5, r5, #1
 1988              	.LVL262:
 1989 0094 F1E7     		b	.L185
 1990              	.L200:
 632:lib/display/abstract/src/display_if_support.c **** 		}
 633:lib/display/abstract/src/display_if_support.c **** 
 634:lib/display/abstract/src/display_if_support.c **** 		if (m != 0) ptemp++;	
 1991              		.loc 1 634 0
 1992 0096 B8F1000F 		cmp	r8, #0
 1993 009a 00D0     		beq	.L188
 1994              		.loc 1 634 0 is_stmt 0 discriminator 1
 1995 009c 0134     		adds	r4, r4, #1
 1996              	.LVL263:
 1997              	.L188:
 612:lib/display/abstract/src/display_if_support.c **** 	{
 1998              		.loc 1 612 0 is_stmt 1
 1999 009e 0BF1010B 		add	fp, fp, #1
 2000              	.LVL264:
 2001 00a2 D0E7     		b	.L182
 2002              	.LVL265:
 2003              	.L198:
 635:lib/display/abstract/src/display_if_support.c **** 	}
 636:lib/display/abstract/src/display_if_support.c **** 
 637:lib/display/abstract/src/display_if_support.c **** }
 2004              		.loc 1 637 0
 2005 00a4 BDE8F88F 		pop	{r3, r4, r5, r6, r7, r8, r9, sl, fp, pc}
 2006              	.L202:
 2007              		.align	2
 2008              	.L201:
 2009 00a8 00000000 		.word	CurrentAnkDat
 2010              		.cfi_endproc
 2011              	.LFE70:
 2013              		.section	.text.Display_Puts_If,"ax",%progbits
 2014              		.align	1
 2015              		.global	Display_Puts_If
 2016              		.thumb
 2017              		.thumb_func
 2019              	Display_Puts_If:
 2020              	.LFB71:
 638:lib/display/abstract/src/display_if_support.c **** 
 639:lib/display/abstract/src/display_if_support.c **** 
 640:lib/display/abstract/src/display_if_support.c **** /**************************************************************************/
 641:lib/display/abstract/src/display_if_support.c **** /*! 
 642:lib/display/abstract/src/display_if_support.c **** 	Put SJIS Fonts Basic.
 643:lib/display/abstract/src/display_if_support.c **** */
 644:lib/display/abstract/src/display_if_support.c **** /**************************************************************************/
 645:lib/display/abstract/src/display_if_support.c **** int Display_Puts_If(uint16_t col, uint16_t row, uint8_t* pch, uint8_t trans)
 646:lib/display/abstract/src/display_if_support.c **** {
 2021              		.loc 1 646 0
 2022              		.cfi_startproc
 2023              		@ args = 0, pretend = 0, frame = 0
 2024              		@ frame_needed = 0, uses_anonymous_args = 0
 2025              	.LVL266:
 2026 0000 F7B5     		push	{r0, r1, r2, r4, r5, r6, r7, lr}
 2027              	.LCFI15:
 2028              		.cfi_def_cfa_offset 32
 2029              		.cfi_offset 0, -32
 2030              		.cfi_offset 1, -28
 2031              		.cfi_offset 2, -24
 2032              		.cfi_offset 4, -20
 2033              		.cfi_offset 5, -16
 2034              		.cfi_offset 6, -12
 2035              		.cfi_offset 7, -8
 2036              		.cfi_offset 14, -4
 2037 0002 0446     		mov	r4, r0
 2038 0004 0E46     		mov	r6, r1
 2039 0006 1546     		mov	r5, r2
 2040 0008 1F46     		mov	r7, r3
 2041              	.LVL267:
 2042              	.L216:
 647:lib/display/abstract/src/display_if_support.c **** 
 648:lib/display/abstract/src/display_if_support.c **** 	while(*pch){
 2043              		.loc 1 648 0 discriminator 1
 2044 000a 2A78     		ldrb	r2, [r5, #0]	@ zero_extendqisi2
 2045 000c 002A     		cmp	r2, #0
 2046 000e 39D0     		beq	.L218
 2047              	.L213:
 649:lib/display/abstract/src/display_if_support.c **** 
 650:lib/display/abstract/src/display_if_support.c **** 		if (col >= MAX_X || row >= MAX_Y) return 0;
 2048              		.loc 1 650 0
 2049 0010 7F2C     		cmp	r4, #127
 2050 0012 39D8     		bhi	.L215
 2051              		.loc 1 650 0 is_stmt 0 discriminator 2
 2052 0014 9F2E     		cmp	r6, #159
 2053 0016 37D8     		bhi	.L215
 651:lib/display/abstract/src/display_if_support.c **** 
 652:lib/display/abstract/src/display_if_support.c **** 		if(((*pch >= 0x80)&&(*pch < 0xA0))||((*pch >= 0xE0)&&(*pch <= 0xFF)))
 2054              		.loc 1 652 0 is_stmt 1
 2055 0018 82F08003 		eor	r3, r2, #128
 2056 001c 1F2B     		cmp	r3, #31
 2057 001e 1B49     		ldr	r1, .L219
 2058 0020 01D9     		bls	.L206
 2059              		.loc 1 652 0 is_stmt 0 discriminator 1
 2060 0022 DF2A     		cmp	r2, #223
 2061 0024 16D9     		bls	.L207
 2062              	.L206:
 653:lib/display/abstract/src/display_if_support.c **** 	  		{
 654:lib/display/abstract/src/display_if_support.c **** 				if(trans == TRANSPARENT) putkanji_t(col,row,pch,pScrCol->Fg);
 2063              		.loc 1 654 0 is_stmt 1
 2064 0026 3FB9     		cbnz	r7, .L208
 2065              		.loc 1 654 0 is_stmt 0 discriminator 1
 2066 0028 0B68     		ldr	r3, [r1, #0]
 2067 002a 2046     		mov	r0, r4
 2068 002c 3146     		mov	r1, r6
 2069 002e 2A46     		mov	r2, r5
 2070 0030 1B88     		ldrh	r3, [r3, #0]
 2071 0032 FFF7FEFF 		bl	putkanji_t
 2072              	.LVL268:
 2073 0036 08E0     		b	.L209
 2074              	.L208:
 655:lib/display/abstract/src/display_if_support.c **** 				else					 putkanji  (col,row,pch,pScrCol->Fg,pScrCol->Bg);
 2075              		.loc 1 655 0 is_stmt 1
 2076 0038 0968     		ldr	r1, [r1, #0]
 2077 003a 0B88     		ldrh	r3, [r1, #0]
 2078 003c 4A88     		ldrh	r2, [r1, #2]
 2079 003e 0092     		str	r2, [sp, #0]
 2080 0040 2046     		mov	r0, r4
 2081 0042 3146     		mov	r1, r6
 2082 0044 2A46     		mov	r2, r5
 2083 0046 FFF7FEFF 		bl	putkanji
 2084              	.LVL269:
 2085              	.L209:
 656:lib/display/abstract/src/display_if_support.c **** 				
 657:lib/display/abstract/src/display_if_support.c **** 				pch +=2;
 2086              		.loc 1 657 0
 2087 004a 0235     		adds	r5, r5, #2
 2088              	.LVL270:
 658:lib/display/abstract/src/display_if_support.c **** 				col += CurrentKanjiDat->X_Size;
 2089              		.loc 1 658 0
 2090 004c 1048     		ldr	r0, .L219+4
 2091 004e 0168     		ldr	r1, [r0, #0]
 2092 0050 487A     		ldrb	r0, [r1, #9]	@ zero_extendqisi2
 2093 0052 14E0     		b	.L217
 2094              	.L207:
 659:lib/display/abstract/src/display_if_support.c **** 	  		}
 660:lib/display/abstract/src/display_if_support.c **** 		else
 661:lib/display/abstract/src/display_if_support.c **** 			{
 662:lib/display/abstract/src/display_if_support.c **** 				if(trans == TRANSPARENT) putank_t(col,row,pch,pScrCol->Fg);
 2095              		.loc 1 662 0
 2096 0054 37B9     		cbnz	r7, .L211
 2097              		.loc 1 662 0 is_stmt 0 discriminator 1
 2098 0056 0B68     		ldr	r3, [r1, #0]
 2099 0058 2046     		mov	r0, r4
 2100 005a 3146     		mov	r1, r6
 2101 005c 1B88     		ldrh	r3, [r3, #0]
 2102 005e FFF7FEFF 		bl	putank_t.isra.0
 2103              	.LVL271:
 2104 0062 08E0     		b	.L212
 2105              	.L211:
 663:lib/display/abstract/src/display_if_support.c **** 				else					 putank  (col,row,pch,pScrCol->Fg,pScrCol->Bg);
 2106              		.loc 1 663 0 is_stmt 1
 2107 0064 0A68     		ldr	r2, [r1, #0]
 2108 0066 1388     		ldrh	r3, [r2, #0]
 2109 0068 5088     		ldrh	r0, [r2, #2]
 2110 006a 0090     		str	r0, [sp, #0]
 2111 006c 2046     		mov	r0, r4
 2112 006e 3146     		mov	r1, r6
 2113 0070 2A46     		mov	r2, r5
 2114 0072 FFF7FEFF 		bl	putank
 2115              	.LVL272:
 2116              	.L212:
 664:lib/display/abstract/src/display_if_support.c **** 
 665:lib/display/abstract/src/display_if_support.c **** 				pch +=1;
 2117              		.loc 1 665 0
 2118 0076 0135     		adds	r5, r5, #1
 2119              	.LVL273:
 666:lib/display/abstract/src/display_if_support.c **** 				col += CurrentAnkDat->X_Size;
 2120              		.loc 1 666 0
 2121 0078 0649     		ldr	r1, .L219+8
 2122 007a 0A68     		ldr	r2, [r1, #0]
 2123 007c 5079     		ldrb	r0, [r2, #5]	@ zero_extendqisi2
 2124              	.L217:
 2125 007e 2418     		adds	r4, r4, r0
 2126              	.LVL274:
 2127 0080 A4B2     		uxth	r4, r4
 2128 0082 C2E7     		b	.L216
 2129              	.LVL275:
 2130              	.L218:
 667:lib/display/abstract/src/display_if_support.c **** 			}
 668:lib/display/abstract/src/display_if_support.c **** 	}
 669:lib/display/abstract/src/display_if_support.c **** 
 670:lib/display/abstract/src/display_if_support.c **** 	return 1;
 2131              		.loc 1 670 0
 2132 0084 0120     		movs	r0, #1
 2133 0086 00E0     		b	.L205
 2134              	.L215:
 650:lib/display/abstract/src/display_if_support.c **** 
 2135              		.loc 1 650 0
 2136 0088 0020     		movs	r0, #0
 2137              	.L205:
 671:lib/display/abstract/src/display_if_support.c **** }
 2138              		.loc 1 671 0
 2139 008a FEBD     		pop	{r1, r2, r3, r4, r5, r6, r7, pc}
 2140              	.L220:
 2141              		.align	2
 2142              	.L219:
 2143 008c 00000000 		.word	.LANCHOR0
 2144 0090 00000000 		.word	CurrentKanjiDat
 2145 0094 00000000 		.word	CurrentAnkDat
 2146              		.cfi_endproc
 2147              	.LFE71:
 2149              		.section	.text.Display_Puts_If_Ex,"ax",%progbits
 2150              		.align	1
 2151              		.global	Display_Puts_If_Ex
 2152              		.thumb
 2153              		.thumb_func
 2155              	Display_Puts_If_Ex:
 2156              	.LFB72:
 672:lib/display/abstract/src/display_if_support.c **** 
 673:lib/display/abstract/src/display_if_support.c **** /**************************************************************************/
 674:lib/display/abstract/src/display_if_support.c **** /*! 
 675:lib/display/abstract/src/display_if_support.c **** 	Put SJIS Fonts Advanced.
 676:lib/display/abstract/src/display_if_support.c **** */
 677:lib/display/abstract/src/display_if_support.c **** /**************************************************************************/
 678:lib/display/abstract/src/display_if_support.c **** int Display_Puts_If_Ex(uint16_t col, uint16_t row, uint8_t* pch, uint8_t trans, uint16_t fg,uint16_
 679:lib/display/abstract/src/display_if_support.c **** {
 2157              		.loc 1 679 0
 2158              		.cfi_startproc
 2159              		@ args = 8, pretend = 0, frame = 0
 2160              		@ frame_needed = 0, uses_anonymous_args = 0
 2161              	.LVL276:
 2162 0000 2DE9F743 		push	{r0, r1, r2, r4, r5, r6, r7, r8, r9, lr}
 2163              	.LCFI16:
 2164              		.cfi_def_cfa_offset 40
 2165              		.cfi_offset 0, -40
 2166              		.cfi_offset 1, -36
 2167              		.cfi_offset 2, -32
 2168              		.cfi_offset 4, -28
 2169              		.cfi_offset 5, -24
 2170              		.cfi_offset 6, -20
 2171              		.cfi_offset 7, -16
 2172              		.cfi_offset 8, -12
 2173              		.cfi_offset 9, -8
 2174              		.cfi_offset 14, -4
 2175 0004 0446     		mov	r4, r0
 2176 0006 0E46     		mov	r6, r1
 2177 0008 1546     		mov	r5, r2
 2178 000a 9846     		mov	r8, r3
 2179 000c BDF82870 		ldrh	r7, [sp, #40]
 2180 0010 BDF82C90 		ldrh	r9, [sp, #44]
 2181              	.LVL277:
 2182              	.L234:
 680:lib/display/abstract/src/display_if_support.c **** 
 681:lib/display/abstract/src/display_if_support.c **** 	while(*pch){
 2183              		.loc 1 681 0 discriminator 1
 2184 0014 2A78     		ldrb	r2, [r5, #0]	@ zero_extendqisi2
 2185 0016 002A     		cmp	r2, #0
 2186 0018 38D0     		beq	.L236
 2187              	.L231:
 682:lib/display/abstract/src/display_if_support.c **** 
 683:lib/display/abstract/src/display_if_support.c **** 		if (col >= MAX_X || row >= MAX_Y) return 0;
 2188              		.loc 1 683 0
 2189 001a 7F2C     		cmp	r4, #127
 2190 001c 38D8     		bhi	.L233
 2191              		.loc 1 683 0 is_stmt 0 discriminator 2
 2192 001e 9F2E     		cmp	r6, #159
 2193 0020 36D8     		bhi	.L233
 684:lib/display/abstract/src/display_if_support.c **** 
 685:lib/display/abstract/src/display_if_support.c **** 		if(((*pch >= 0x80)&&(*pch < 0xA0))||((*pch >= 0xE0)&&(*pch <= 0xFF)))
 2194              		.loc 1 685 0 is_stmt 1
 2195 0022 82F08003 		eor	r3, r2, #128
 2196 0026 1F2B     		cmp	r3, #31
 2197 0028 01D9     		bls	.L224
 2198              		.loc 1 685 0 is_stmt 0 discriminator 1
 2199 002a DF2A     		cmp	r2, #223
 2200 002c 16D9     		bls	.L225
 2201              	.L224:
 686:lib/display/abstract/src/display_if_support.c **** 	  		{
 687:lib/display/abstract/src/display_if_support.c **** 				if(trans == TRANSPARENT) putkanji_t(col,row,pch,fg);
 2202              		.loc 1 687 0 is_stmt 1
 2203 002e B8F1000F 		cmp	r8, #0
 2204 0032 06D1     		bne	.L226
 2205              		.loc 1 687 0 is_stmt 0 discriminator 1
 2206 0034 2046     		mov	r0, r4
 2207 0036 3146     		mov	r1, r6
 2208 0038 2A46     		mov	r2, r5
 2209 003a 3B46     		mov	r3, r7
 2210 003c FFF7FEFF 		bl	putkanji_t
 2211              	.LVL278:
 2212 0040 07E0     		b	.L227
 2213              	.L226:
 688:lib/display/abstract/src/display_if_support.c **** 				else					 putkanji  (col,row,pch,fg,bg);
 2214              		.loc 1 688 0 is_stmt 1
 2215 0042 CDF80090 		str	r9, [sp, #0]
 2216 0046 2046     		mov	r0, r4
 2217 0048 3146     		mov	r1, r6
 2218 004a 2A46     		mov	r2, r5
 2219 004c 3B46     		mov	r3, r7
 2220 004e FFF7FEFF 		bl	putkanji
 2221              	.LVL279:
 2222              	.L227:
 689:lib/display/abstract/src/display_if_support.c **** 				
 690:lib/display/abstract/src/display_if_support.c **** 				pch +=2;
 2223              		.loc 1 690 0
 2224 0052 0235     		adds	r5, r5, #2
 2225              	.LVL280:
 691:lib/display/abstract/src/display_if_support.c **** 				col += CurrentKanjiDat->X_Size;
 2226              		.loc 1 691 0
 2227 0054 104B     		ldr	r3, .L237
 2228 0056 1868     		ldr	r0, [r3, #0]
 2229 0058 427A     		ldrb	r2, [r0, #9]	@ zero_extendqisi2
 2230 005a 14E0     		b	.L235
 2231              	.L225:
 692:lib/display/abstract/src/display_if_support.c **** 	  		}
 693:lib/display/abstract/src/display_if_support.c **** 		else
 694:lib/display/abstract/src/display_if_support.c **** 			{
 695:lib/display/abstract/src/display_if_support.c **** 				if(trans == TRANSPARENT) putank_t(col,row,pch,fg);
 2232              		.loc 1 695 0
 2233 005c B8F1000F 		cmp	r8, #0
 2234 0060 05D1     		bne	.L229
 2235              		.loc 1 695 0 is_stmt 0 discriminator 1
 2236 0062 2046     		mov	r0, r4
 2237 0064 3146     		mov	r1, r6
 2238 0066 3B46     		mov	r3, r7
 2239 0068 FFF7FEFF 		bl	putank_t.isra.0
 2240              	.LVL281:
 2241 006c 07E0     		b	.L230
 2242              	.L229:
 696:lib/display/abstract/src/display_if_support.c **** 				else					 putank  (col,row,pch,fg,bg);
 2243              		.loc 1 696 0 is_stmt 1
 2244 006e CDF80090 		str	r9, [sp, #0]
 2245 0072 2046     		mov	r0, r4
 2246 0074 3146     		mov	r1, r6
 2247 0076 2A46     		mov	r2, r5
 2248 0078 3B46     		mov	r3, r7
 2249 007a FFF7FEFF 		bl	putank
 2250              	.LVL282:
 2251              	.L230:
 697:lib/display/abstract/src/display_if_support.c **** 
 698:lib/display/abstract/src/display_if_support.c **** 				pch +=1;
 2252              		.loc 1 698 0
 2253 007e 0135     		adds	r5, r5, #1
 2254              	.LVL283:
 699:lib/display/abstract/src/display_if_support.c **** 				col += CurrentAnkDat->X_Size;
 2255              		.loc 1 699 0
 2256 0080 0648     		ldr	r0, .L237+4
 2257 0082 0168     		ldr	r1, [r0, #0]
 2258 0084 4A79     		ldrb	r2, [r1, #5]	@ zero_extendqisi2
 2259              	.L235:
 2260 0086 A418     		adds	r4, r4, r2
 2261              	.LVL284:
 2262 0088 A4B2     		uxth	r4, r4
 2263 008a C3E7     		b	.L234
 2264              	.LVL285:
 2265              	.L236:
 700:lib/display/abstract/src/display_if_support.c **** 			}
 701:lib/display/abstract/src/display_if_support.c **** 	}
 702:lib/display/abstract/src/display_if_support.c **** 
 703:lib/display/abstract/src/display_if_support.c **** 	return 1;
 2266              		.loc 1 703 0
 2267 008c 0120     		movs	r0, #1
 2268 008e 00E0     		b	.L223
 2269              	.L233:
 683:lib/display/abstract/src/display_if_support.c **** 
 2270              		.loc 1 683 0
 2271 0090 0020     		movs	r0, #0
 2272              	.L223:
 704:lib/display/abstract/src/display_if_support.c **** }
 2273              		.loc 1 704 0
 2274 0092 BDE8FE83 		pop	{r1, r2, r3, r4, r5, r6, r7, r8, r9, pc}
 2275              	.L238:
 2276 0096 00BF     		.align	2
 2277              	.L237:
 2278 0098 00000000 		.word	CurrentKanjiDat
 2279 009c 00000000 		.word	CurrentAnkDat
 2280              		.cfi_endproc
 2281              	.LFE72:
 2283              		.global	pScrCol
 2284              		.global	ScrCol
 2285              		.section	.data.pScrCol,"aw",%progbits
 2286              		.align	2
 2287              		.set	.LANCHOR0,. + 0
 2290              	pScrCol:
 2291 0000 00000000 		.word	ScrCol
 2292              		.section	.data.ScrCol,"aw",%progbits
 2293              		.align	1
 2296              	ScrCol:
 2297 0000 86F9     		.short	-1658
 2298 0002 0000     		.short	0
 2299              		.text
 2300              	.Letext0:
 2301              		.file 2 "c:\\devz\\arm\\bleeding-edge\\bin\\../lib/gcc/arm-none-eabi/4.7.3/include/stdint-gcc.h"
 2302              		.file 3 "./lib/FONTX2/inc/font_if.h"
 2303              		.file 4 "./lib/display/abstract/inc/display_if_support.h"
 2304              		.file 5 "./lib/CMSIS/Include/core_cm3.h"
 2305              		.file 6 "./inc/systick.h"
 2306              		.file 7 "./lib/display/drivers/inc/st7732.h"