   1              		.syntax unified
   2              		.cpu cortex-m3
   3              		.fpu softvfp
   4              		.eabi_attribute 20, 1
   5              		.eabi_attribute 21, 1
   6              		.eabi_attribute 23, 3
   7              		.eabi_attribute 24, 1
   8              		.eabi_attribute 25, 1
   9              		.eabi_attribute 26, 1
  10              		.eabi_attribute 30, 4
  11              		.eabi_attribute 34, 0
  12              		.eabi_attribute 18, 4
  13              		.thumb
  14              		.file	"ff.c"
  15              		.text
  16              	.Ltext0:
  17              		.cfi_sections	.debug_frame
  18              		.section	.text.mem_cpy,"ax",%progbits
  19              		.align	1
  20              		.thumb
  21              		.thumb_func
  23              	mem_cpy:
  24              	.LFB0:
  25              		.file 1 "lib/ff/ff.c"
   1:lib/ff/ff.c   **** /*----------------------------------------------------------------------------/
   2:lib/ff/ff.c   **** /  FatFs - FAT file system module  R0.09b                 (C)ChaN, 2013
   3:lib/ff/ff.c   **** /-----------------------------------------------------------------------------/
   4:lib/ff/ff.c   **** / FatFs module is a generic FAT file system module for small embedded systems.
   5:lib/ff/ff.c   **** / This is a free software that opened for education, research and commercial
   6:lib/ff/ff.c   **** / developments under license policy of following terms.
   7:lib/ff/ff.c   **** /
   8:lib/ff/ff.c   **** /  Copyright (C) 2013, ChaN, all right reserved.
   9:lib/ff/ff.c   **** /
  10:lib/ff/ff.c   **** / * The FatFs module is a free software and there is NO WARRANTY.
  11:lib/ff/ff.c   **** / * No restriction on use. You can use, modify and redistribute it for
  12:lib/ff/ff.c   **** /   personal, non-profit or commercial products UNDER YOUR RESPONSIBILITY.
  13:lib/ff/ff.c   **** / * Redistributions of source code must retain the above copyright notice.
  14:lib/ff/ff.c   **** /
  15:lib/ff/ff.c   **** /-----------------------------------------------------------------------------/
  16:lib/ff/ff.c   **** / Feb 26,'06 R0.00  Prototype.
  17:lib/ff/ff.c   **** /
  18:lib/ff/ff.c   **** / Apr 29,'06 R0.01  First stable version.
  19:lib/ff/ff.c   **** /
  20:lib/ff/ff.c   **** / Jun 01,'06 R0.02  Added FAT12 support.
  21:lib/ff/ff.c   **** /                   Removed unbuffered mode.
  22:lib/ff/ff.c   **** /                   Fixed a problem on small (<32M) partition.
  23:lib/ff/ff.c   **** / Jun 10,'06 R0.02a Added a configuration option (_FS_MINIMUM).
  24:lib/ff/ff.c   **** /
  25:lib/ff/ff.c   **** / Sep 22,'06 R0.03  Added f_rename().
  26:lib/ff/ff.c   **** /                   Changed option _FS_MINIMUM to _FS_MINIMIZE.
  27:lib/ff/ff.c   **** / Dec 11,'06 R0.03a Improved cluster scan algorithm to write files fast.
  28:lib/ff/ff.c   **** /                   Fixed f_mkdir() creates incorrect directory on FAT32.
  29:lib/ff/ff.c   **** /
  30:lib/ff/ff.c   **** / Feb 04,'07 R0.04  Supported multiple drive system.
  31:lib/ff/ff.c   **** /                   Changed some interfaces for multiple drive system.
  32:lib/ff/ff.c   **** /                   Changed f_mountdrv() to f_mount().
  33:lib/ff/ff.c   **** /                   Added f_mkfs().
  34:lib/ff/ff.c   **** / Apr 01,'07 R0.04a Supported multiple partitions on a physical drive.
  35:lib/ff/ff.c   **** /                   Added a capability of extending file size to f_lseek().
  36:lib/ff/ff.c   **** /                   Added minimization level 3.
  37:lib/ff/ff.c   **** /                   Fixed an endian sensitive code in f_mkfs().
  38:lib/ff/ff.c   **** / May 05,'07 R0.04b Added a configuration option _USE_NTFLAG.
  39:lib/ff/ff.c   **** /                   Added FSInfo support.
  40:lib/ff/ff.c   **** /                   Fixed DBCS name can result FR_INVALID_NAME.
  41:lib/ff/ff.c   **** /                   Fixed short seek (<= csize) collapses the file object.
  42:lib/ff/ff.c   **** /
  43:lib/ff/ff.c   **** / Aug 25,'07 R0.05  Changed arguments of f_read(), f_write() and f_mkfs().
  44:lib/ff/ff.c   **** /                   Fixed f_mkfs() on FAT32 creates incorrect FSInfo.
  45:lib/ff/ff.c   **** /                   Fixed f_mkdir() on FAT32 creates incorrect directory.
  46:lib/ff/ff.c   **** / Feb 03,'08 R0.05a Added f_truncate() and f_utime().
  47:lib/ff/ff.c   **** /                   Fixed off by one error at FAT sub-type determination.
  48:lib/ff/ff.c   **** /                   Fixed btr in f_read() can be mistruncated.
  49:lib/ff/ff.c   **** /                   Fixed cached sector is not flushed when create and close without write.
  50:lib/ff/ff.c   **** /
  51:lib/ff/ff.c   **** / Apr 01,'08 R0.06  Added fputc(), fputs(), fprintf() and fgets().
  52:lib/ff/ff.c   **** /                   Improved performance of f_lseek() on moving to the same or following cluster.
  53:lib/ff/ff.c   **** /
  54:lib/ff/ff.c   **** / Apr 01,'09 R0.07  Merged Tiny-FatFs as a configuration option. (_FS_TINY)
  55:lib/ff/ff.c   **** /                   Added long file name feature.
  56:lib/ff/ff.c   **** /                   Added multiple code page feature.
  57:lib/ff/ff.c   **** /                   Added re-entrancy for multitask operation.
  58:lib/ff/ff.c   **** /                   Added auto cluster size selection to f_mkfs().
  59:lib/ff/ff.c   **** /                   Added rewind option to f_readdir().
  60:lib/ff/ff.c   **** /                   Changed result code of critical errors.
  61:lib/ff/ff.c   **** /                   Renamed string functions to avoid name collision.
  62:lib/ff/ff.c   **** / Apr 14,'09 R0.07a Separated out OS dependent code on reentrant cfg.
  63:lib/ff/ff.c   **** /                   Added multiple sector size feature.
  64:lib/ff/ff.c   **** / Jun 21,'09 R0.07c Fixed f_unlink() can return FR_OK on error.
  65:lib/ff/ff.c   **** /                   Fixed wrong cache control in f_lseek().
  66:lib/ff/ff.c   **** /                   Added relative path feature.
  67:lib/ff/ff.c   **** /                   Added f_chdir() and f_chdrive().
  68:lib/ff/ff.c   **** /                   Added proper case conversion to extended char.
  69:lib/ff/ff.c   **** / Nov 03,'09 R0.07e Separated out configuration options from ff.h to ffconf.h.
  70:lib/ff/ff.c   **** /                   Fixed f_unlink() fails to remove a sub-dir on _FS_RPATH.
  71:lib/ff/ff.c   **** /                   Fixed name matching error on the 13 char boundary.
  72:lib/ff/ff.c   **** /                   Added a configuration option, _LFN_UNICODE.
  73:lib/ff/ff.c   **** /                   Changed f_readdir() to return the SFN with always upper case on non-LFN cfg.
  74:lib/ff/ff.c   **** /
  75:lib/ff/ff.c   **** / May 15,'10 R0.08  Added a memory configuration option. (_USE_LFN = 3)
  76:lib/ff/ff.c   **** /                   Added file lock feature. (_FS_SHARE)
  77:lib/ff/ff.c   **** /                   Added fast seek feature. (_USE_FASTSEEK)
  78:lib/ff/ff.c   **** /                   Changed some types on the API, XCHAR->TCHAR.
  79:lib/ff/ff.c   **** /                   Changed fname member in the FILINFO structure on Unicode cfg.
  80:lib/ff/ff.c   **** /                   String functions support UTF-8 encoding files on Unicode cfg.
  81:lib/ff/ff.c   **** / Aug 16,'10 R0.08a Added f_getcwd(). (_FS_RPATH = 2)
  82:lib/ff/ff.c   **** /                   Added sector erase feature. (_USE_ERASE)
  83:lib/ff/ff.c   **** /                   Moved file lock semaphore table from fs object to the bss.
  84:lib/ff/ff.c   **** /                   Fixed a wrong directory entry is created on non-LFN cfg when the given name con
  85:lib/ff/ff.c   **** /                   Fixed f_mkfs() creates wrong FAT32 volume.
  86:lib/ff/ff.c   **** / Jan 15,'11 R0.08b Fast seek feature is also applied to f_read() and f_write().
  87:lib/ff/ff.c   **** /                   f_lseek() reports required table size on creating CLMP.
  88:lib/ff/ff.c   **** /                   Extended format syntax of f_printf function.
  89:lib/ff/ff.c   **** /                   Ignores duplicated directory separators in given path name.
  90:lib/ff/ff.c   **** /
  91:lib/ff/ff.c   **** / Sep 06,'11 R0.09  f_mkfs() supports multiple partition to finish the multiple partition feature.
  92:lib/ff/ff.c   **** /                   Added f_fdisk(). (_MULTI_PARTITION = 2)
  93:lib/ff/ff.c   **** / Aug 27,'12 R0.09a Fixed assertion failure due to OS/2 EA on FAT12/16 volume.
  94:lib/ff/ff.c   **** /                   Changed f_open() and f_opendir reject null object pointer to avoid crash.
  95:lib/ff/ff.c   **** /                   Changed option name _FS_SHARE to _FS_LOCK.
  96:lib/ff/ff.c   **** / Jan 24,'13 R0.09b Added f_setlabel() and f_getlabel(). (_USE_LABEL = 1)
  97:lib/ff/ff.c   **** /---------------------------------------------------------------------------*/
  98:lib/ff/ff.c   **** 
  99:lib/ff/ff.c   **** #include "ff.h"			/* FatFs configurations and declarations */
 100:lib/ff/ff.c   **** #include "diskio.h"		/* Declarations of low level disk I/O functions */
 101:lib/ff/ff.c   **** 
 102:lib/ff/ff.c   **** 
 103:lib/ff/ff.c   **** /*--------------------------------------------------------------------------
 104:lib/ff/ff.c   **** 
 105:lib/ff/ff.c   ****    Module Private Definitions
 106:lib/ff/ff.c   **** 
 107:lib/ff/ff.c   **** ---------------------------------------------------------------------------*/
 108:lib/ff/ff.c   **** 
 109:lib/ff/ff.c   **** #if _FATFS != 82786	/* Revision ID */
 110:lib/ff/ff.c   **** #error Wrong include file (ff.h).
 111:lib/ff/ff.c   **** #endif
 112:lib/ff/ff.c   **** 
 113:lib/ff/ff.c   **** 
 114:lib/ff/ff.c   **** /* Definitions on sector size */
 115:lib/ff/ff.c   **** #if _MAX_SS != 512 && _MAX_SS != 1024 && _MAX_SS != 2048 && _MAX_SS != 4096
 116:lib/ff/ff.c   **** #error Wrong sector size.
 117:lib/ff/ff.c   **** #endif
 118:lib/ff/ff.c   **** #if _MAX_SS != 512
 119:lib/ff/ff.c   **** #define	SS(fs)	((fs)->ssize)	/* Variable sector size */
 120:lib/ff/ff.c   **** #else
 121:lib/ff/ff.c   **** #define	SS(fs)	512U			/* Fixed sector size */
 122:lib/ff/ff.c   **** #endif
 123:lib/ff/ff.c   **** 
 124:lib/ff/ff.c   **** 
 125:lib/ff/ff.c   **** /* Reentrancy related */
 126:lib/ff/ff.c   **** #if _FS_REENTRANT
 127:lib/ff/ff.c   **** #if _USE_LFN == 1
 128:lib/ff/ff.c   **** #error Static LFN work area must not be used in re-entrant configuration.
 129:lib/ff/ff.c   **** #endif
 130:lib/ff/ff.c   **** #define	ENTER_FF(fs)		{ if (!lock_fs(fs)) return FR_TIMEOUT; }
 131:lib/ff/ff.c   **** #define	LEAVE_FF(fs, res)	{ unlock_fs(fs, res); return res; }
 132:lib/ff/ff.c   **** #else
 133:lib/ff/ff.c   **** #define	ENTER_FF(fs)
 134:lib/ff/ff.c   **** #define LEAVE_FF(fs, res)	return res
 135:lib/ff/ff.c   **** #endif
 136:lib/ff/ff.c   **** 
 137:lib/ff/ff.c   **** #define	ABORT(fs, res)		{ fp->flag |= FA__ERROR; LEAVE_FF(fs, res); }
 138:lib/ff/ff.c   **** 
 139:lib/ff/ff.c   **** 
 140:lib/ff/ff.c   **** /* File access control feature */
 141:lib/ff/ff.c   **** #if _FS_LOCK
 142:lib/ff/ff.c   **** #if _FS_READONLY
 143:lib/ff/ff.c   **** #error _FS_LOCK must be 0 on read-only cfg.
 144:lib/ff/ff.c   **** #endif
 145:lib/ff/ff.c   **** typedef struct {
 146:lib/ff/ff.c   **** 	FATFS *fs;				/* File ID 1, volume (NULL:blank entry) */
 147:lib/ff/ff.c   **** 	DWORD clu;				/* File ID 2, directory */
 148:lib/ff/ff.c   **** 	WORD idx;				/* File ID 3, directory index */
 149:lib/ff/ff.c   **** 	WORD ctr;				/* File open counter, 0:none, 0x01..0xFF:read open count, 0x100:write mode */
 150:lib/ff/ff.c   **** } FILESEM;
 151:lib/ff/ff.c   **** #endif
 152:lib/ff/ff.c   **** 
 153:lib/ff/ff.c   **** 
 154:lib/ff/ff.c   **** 
 155:lib/ff/ff.c   **** /* DBCS code ranges and SBCS extend char conversion table */
 156:lib/ff/ff.c   **** 
 157:lib/ff/ff.c   **** #if _CODE_PAGE == 932	/* Japanese Shift-JIS */
 158:lib/ff/ff.c   **** #define _DF1S	0x81	/* DBC 1st byte range 1 start */
 159:lib/ff/ff.c   **** #define _DF1E	0x9F	/* DBC 1st byte range 1 end */
 160:lib/ff/ff.c   **** #define _DF2S	0xE0	/* DBC 1st byte range 2 start */
 161:lib/ff/ff.c   **** #define _DF2E	0xFC	/* DBC 1st byte range 2 end */
 162:lib/ff/ff.c   **** #define _DS1S	0x40	/* DBC 2nd byte range 1 start */
 163:lib/ff/ff.c   **** #define _DS1E	0x7E	/* DBC 2nd byte range 1 end */
 164:lib/ff/ff.c   **** #define _DS2S	0x80	/* DBC 2nd byte range 2 start */
 165:lib/ff/ff.c   **** #define _DS2E	0xFC	/* DBC 2nd byte range 2 end */
 166:lib/ff/ff.c   **** 
 167:lib/ff/ff.c   **** #elif _CODE_PAGE == 936	/* Simplified Chinese GBK */
 168:lib/ff/ff.c   **** #define _DF1S	0x81
 169:lib/ff/ff.c   **** #define _DF1E	0xFE
 170:lib/ff/ff.c   **** #define _DS1S	0x40
 171:lib/ff/ff.c   **** #define _DS1E	0x7E
 172:lib/ff/ff.c   **** #define _DS2S	0x80
 173:lib/ff/ff.c   **** #define _DS2E	0xFE
 174:lib/ff/ff.c   **** 
 175:lib/ff/ff.c   **** #elif _CODE_PAGE == 949	/* Korean */
 176:lib/ff/ff.c   **** #define _DF1S	0x81
 177:lib/ff/ff.c   **** #define _DF1E	0xFE
 178:lib/ff/ff.c   **** #define _DS1S	0x41
 179:lib/ff/ff.c   **** #define _DS1E	0x5A
 180:lib/ff/ff.c   **** #define _DS2S	0x61
 181:lib/ff/ff.c   **** #define _DS2E	0x7A
 182:lib/ff/ff.c   **** #define _DS3S	0x81
 183:lib/ff/ff.c   **** #define _DS3E	0xFE
 184:lib/ff/ff.c   **** 
 185:lib/ff/ff.c   **** #elif _CODE_PAGE == 950	/* Traditional Chinese Big5 */
 186:lib/ff/ff.c   **** #define _DF1S	0x81
 187:lib/ff/ff.c   **** #define _DF1E	0xFE
 188:lib/ff/ff.c   **** #define _DS1S	0x40
 189:lib/ff/ff.c   **** #define _DS1E	0x7E
 190:lib/ff/ff.c   **** #define _DS2S	0xA1
 191:lib/ff/ff.c   **** #define _DS2E	0xFE
 192:lib/ff/ff.c   **** 
 193:lib/ff/ff.c   **** #elif _CODE_PAGE == 437	/* U.S. (OEM) */
 194:lib/ff/ff.c   **** #define _DF1S	0
 195:lib/ff/ff.c   **** #define _EXCVT {0x80,0x9A,0x90,0x41,0x8E,0x41,0x8F,0x80,0x45,0x45,0x45,0x49,0x49,0x49,0x8E,0x8F,0x9
 196:lib/ff/ff.c   **** 				0x41,0x49,0x4F,0x55,0xA5,0xA5,0xA6,0xA7,0xA8,0xA9,0xAA,0xAB,0xAC,0x21,0xAE,0xAF,0xB0,0xB1,0xB2,
 197:lib/ff/ff.c   **** 				0xC0,0xC1,0xC2,0xC3,0xC4,0xC5,0xC6,0xC7,0xC8,0xC9,0xCA,0xCB,0xCC,0xCD,0xCE,0xCF,0xD0,0xD1,0xD2,
 198:lib/ff/ff.c   **** 				0xE0,0xE1,0xE2,0xE3,0xE4,0xE5,0xE6,0xE7,0xE8,0xE9,0xEA,0xEB,0xEC,0xED,0xEE,0xEF,0xF0,0xF1,0xF2,
 199:lib/ff/ff.c   **** 
 200:lib/ff/ff.c   **** #elif _CODE_PAGE == 720	/* Arabic (OEM) */
 201:lib/ff/ff.c   **** #define _DF1S	0
 202:lib/ff/ff.c   **** #define _EXCVT {0x80,0x81,0x45,0x41,0x84,0x41,0x86,0x43,0x45,0x45,0x45,0x49,0x49,0x8D,0x8E,0x8F,0x9
 203:lib/ff/ff.c   **** 				0xA0,0xA1,0xA2,0xA3,0xA4,0xA5,0xA6,0xA7,0xA8,0xA9,0xAA,0xAB,0xAC,0xAD,0xAE,0xAF,0xB0,0xB1,0xB2,
 204:lib/ff/ff.c   **** 				0xC0,0xC1,0xC2,0xC3,0xC4,0xC5,0xC6,0xC7,0xC8,0xC9,0xCA,0xCB,0xCC,0xCD,0xCE,0xCF,0xD0,0xD1,0xD2,
 205:lib/ff/ff.c   **** 				0xE0,0xE1,0xE2,0xE3,0xE4,0xE5,0xE6,0xE7,0xE8,0xE9,0xEA,0xEB,0xEC,0xED,0xEE,0xEF,0xF0,0xF1,0xF2,
 206:lib/ff/ff.c   **** 
 207:lib/ff/ff.c   **** #elif _CODE_PAGE == 737	/* Greek (OEM) */
 208:lib/ff/ff.c   **** #define _DF1S	0
 209:lib/ff/ff.c   **** #define _EXCVT {0x80,0x81,0x82,0x83,0x84,0x85,0x86,0x87,0x88,0x89,0x8A,0x8B,0x8C,0x8D,0x8E,0x8F,0x9
 210:lib/ff/ff.c   **** 				0x88,0x89,0x8A,0x8B,0x8C,0x8D,0x8E,0x8F,0x90,0x91,0xAA,0x92,0x93,0x94,0x95,0x96,0xB0,0xB1,0xB2,
 211:lib/ff/ff.c   **** 				0xC0,0xC1,0xC2,0xC3,0xC4,0xC5,0xC6,0xC7,0xC8,0xC9,0xCA,0xCB,0xCC,0xCD,0xCE,0xCF,0xD0,0xD1,0xD2,
 212:lib/ff/ff.c   **** 				0x97,0xEA,0xEB,0xEC,0xE4,0xED,0xEE,0xE7,0xE8,0xF1,0xEA,0xEB,0xEC,0xED,0xEE,0xEF,0xF0,0xF1,0xF2,
 213:lib/ff/ff.c   **** 
 214:lib/ff/ff.c   **** #elif _CODE_PAGE == 775	/* Baltic (OEM) */
 215:lib/ff/ff.c   **** #define _DF1S	0
 216:lib/ff/ff.c   **** #define _EXCVT {0x80,0x9A,0x91,0xA0,0x8E,0x95,0x8F,0x80,0xAD,0xED,0x8A,0x8A,0xA1,0x8D,0x8E,0x8F,0x9
 217:lib/ff/ff.c   **** 				0xA0,0xA1,0xE0,0xA3,0xA3,0xA5,0xA6,0xA7,0xA8,0xA9,0xAA,0xAB,0xAC,0xAD,0xAE,0xAF,0xB0,0xB1,0xB2,
 218:lib/ff/ff.c   **** 				0xC0,0xC1,0xC2,0xC3,0xC4,0xC5,0xC6,0xC7,0xC8,0xC9,0xCA,0xCB,0xCC,0xCD,0xCE,0xCF,0xB5,0xB6,0xB7,
 219:lib/ff/ff.c   **** 				0xE0,0xE1,0xE2,0xE3,0xE5,0xE5,0xE6,0xE3,0xE8,0xE8,0xEA,0xEA,0xEE,0xED,0xEE,0xEF,0xF0,0xF1,0xF2,
 220:lib/ff/ff.c   **** 
 221:lib/ff/ff.c   **** #elif _CODE_PAGE == 850	/* Multilingual Latin 1 (OEM) */
 222:lib/ff/ff.c   **** #define _DF1S	0
 223:lib/ff/ff.c   **** #define _EXCVT {0x80,0x9A,0x90,0xB6,0x8E,0xB7,0x8F,0x80,0xD2,0xD3,0xD4,0xD8,0xD7,0xDE,0x8E,0x8F,0x9
 224:lib/ff/ff.c   **** 				0xB5,0xD6,0xE0,0xE9,0xA5,0xA5,0xA6,0xA7,0xA8,0xA9,0xAA,0xAB,0xAC,0x21,0xAE,0xAF,0xB0,0xB1,0xB2,
 225:lib/ff/ff.c   **** 				0xC0,0xC1,0xC2,0xC3,0xC4,0xC5,0xC7,0xC7,0xC8,0xC9,0xCA,0xCB,0xCC,0xCD,0xCE,0xCF,0xD0,0xD1,0xD2,
 226:lib/ff/ff.c   **** 				0xE0,0xE1,0xE2,0xE3,0xE5,0xE5,0xE6,0xE7,0xE7,0xE9,0xEA,0xEB,0xED,0xED,0xEE,0xEF,0xF0,0xF1,0xF2,
 227:lib/ff/ff.c   **** 
 228:lib/ff/ff.c   **** #elif _CODE_PAGE == 852	/* Latin 2 (OEM) */
 229:lib/ff/ff.c   **** #define _DF1S	0
 230:lib/ff/ff.c   **** #define _EXCVT {0x80,0x9A,0x90,0xB6,0x8E,0xDE,0x8F,0x80,0x9D,0xD3,0x8A,0x8A,0xD7,0x8D,0x8E,0x8F,0x9
 231:lib/ff/ff.c   **** 				0xB5,0xD6,0xE0,0xE9,0xA4,0xA4,0xA6,0xA6,0xA8,0xA8,0xAA,0x8D,0xAC,0xB8,0xAE,0xAF,0xB0,0xB1,0xB2,
 232:lib/ff/ff.c   **** 				0xC0,0xC1,0xC2,0xC3,0xC4,0xC5,0xC6,0xC6,0xC8,0xC9,0xCA,0xCB,0xCC,0xCD,0xCE,0xCF,0xD1,0xD1,0xD2,
 233:lib/ff/ff.c   **** 				0xE0,0xE1,0xE2,0xE3,0xE3,0xD5,0xE6,0xE6,0xE8,0xE9,0xE8,0xEB,0xED,0xED,0xDD,0xEF,0xF0,0xF1,0xF2,
 234:lib/ff/ff.c   **** 
 235:lib/ff/ff.c   **** #elif _CODE_PAGE == 855	/* Cyrillic (OEM) */
 236:lib/ff/ff.c   **** #define _DF1S	0
 237:lib/ff/ff.c   **** #define _EXCVT {0x81,0x81,0x83,0x83,0x85,0x85,0x87,0x87,0x89,0x89,0x8B,0x8B,0x8D,0x8D,0x8F,0x8F,0x9
 238:lib/ff/ff.c   **** 				0xA1,0xA1,0xA3,0xA3,0xA5,0xA5,0xA7,0xA7,0xA9,0xA9,0xAB,0xAB,0xAD,0xAD,0xAE,0xAF,0xB0,0xB1,0xB2,
 239:lib/ff/ff.c   **** 				0xC0,0xC1,0xC2,0xC3,0xC4,0xC5,0xC7,0xC7,0xC8,0xC9,0xCA,0xCB,0xCC,0xCD,0xCE,0xCF,0xD1,0xD1,0xD3,
 240:lib/ff/ff.c   **** 				0xE0,0xE2,0xE2,0xE4,0xE4,0xE6,0xE6,0xE8,0xE8,0xEA,0xEA,0xEC,0xEC,0xEE,0xEE,0xEF,0xF0,0xF2,0xF2,
 241:lib/ff/ff.c   **** 
 242:lib/ff/ff.c   **** #elif _CODE_PAGE == 857	/* Turkish (OEM) */
 243:lib/ff/ff.c   **** #define _DF1S	0
 244:lib/ff/ff.c   **** #define _EXCVT {0x80,0x9A,0x90,0xB6,0x8E,0xB7,0x8F,0x80,0xD2,0xD3,0xD4,0xD8,0xD7,0x98,0x8E,0x8F,0x9
 245:lib/ff/ff.c   **** 				0xB5,0xD6,0xE0,0xE9,0xA5,0xA5,0xA6,0xA6,0xA8,0xA9,0xAA,0xAB,0xAC,0x21,0xAE,0xAF,0xB0,0xB1,0xB2,
 246:lib/ff/ff.c   **** 				0xC0,0xC1,0xC2,0xC3,0xC4,0xC5,0xC7,0xC7,0xC8,0xC9,0xCA,0xCB,0xCC,0xCD,0xCE,0xCF,0xD0,0xD1,0xD2,
 247:lib/ff/ff.c   **** 				0xE0,0xE1,0xE2,0xE3,0xE5,0xE5,0xE6,0xE7,0xE8,0xE9,0xEA,0xEB,0xDE,0x59,0xEE,0xEF,0xF0,0xF1,0xF2,
 248:lib/ff/ff.c   **** 
 249:lib/ff/ff.c   **** #elif _CODE_PAGE == 858	/* Multilingual Latin 1 + Euro (OEM) */
 250:lib/ff/ff.c   **** #define _DF1S	0
 251:lib/ff/ff.c   **** #define _EXCVT {0x80,0x9A,0x90,0xB6,0x8E,0xB7,0x8F,0x80,0xD2,0xD3,0xD4,0xD8,0xD7,0xDE,0x8E,0x8F,0x9
 252:lib/ff/ff.c   **** 				0xB5,0xD6,0xE0,0xE9,0xA5,0xA5,0xA6,0xA7,0xA8,0xA9,0xAA,0xAB,0xAC,0x21,0xAE,0xAF,0xB0,0xB1,0xB2,
 253:lib/ff/ff.c   **** 				0xC0,0xC1,0xC2,0xC3,0xC4,0xC5,0xC7,0xC7,0xC8,0xC9,0xCA,0xCB,0xCC,0xCD,0xCE,0xCF,0xD1,0xD1,0xD2,
 254:lib/ff/ff.c   **** 				0xE0,0xE1,0xE2,0xE3,0xE5,0xE5,0xE6,0xE7,0xE7,0xE9,0xEA,0xEB,0xED,0xED,0xEE,0xEF,0xF0,0xF1,0xF2,
 255:lib/ff/ff.c   **** 
 256:lib/ff/ff.c   **** #elif _CODE_PAGE == 862	/* Hebrew (OEM) */
 257:lib/ff/ff.c   **** #define _DF1S	0
 258:lib/ff/ff.c   **** #define _EXCVT {0x80,0x81,0x82,0x83,0x84,0x85,0x86,0x87,0x88,0x89,0x8A,0x8B,0x8C,0x8D,0x8E,0x8F,0x9
 259:lib/ff/ff.c   **** 				0x41,0x49,0x4F,0x55,0xA5,0xA5,0xA6,0xA7,0xA8,0xA9,0xAA,0xAB,0xAC,0x21,0xAE,0xAF,0xB0,0xB1,0xB2,
 260:lib/ff/ff.c   **** 				0xC0,0xC1,0xC2,0xC3,0xC4,0xC5,0xC6,0xC7,0xC8,0xC9,0xCA,0xCB,0xCC,0xCD,0xCE,0xCF,0xD0,0xD1,0xD2,
 261:lib/ff/ff.c   **** 				0xE0,0xE1,0xE2,0xE3,0xE4,0xE5,0xE6,0xE7,0xE8,0xE9,0xEA,0xEB,0xEC,0xED,0xEE,0xEF,0xF0,0xF1,0xF2,
 262:lib/ff/ff.c   **** 
 263:lib/ff/ff.c   **** #elif _CODE_PAGE == 866	/* Russian (OEM) */
 264:lib/ff/ff.c   **** #define _DF1S	0
 265:lib/ff/ff.c   **** #define _EXCVT {0x80,0x81,0x82,0x83,0x84,0x85,0x86,0x87,0x88,0x89,0x8A,0x8B,0x8C,0x8D,0x8E,0x8F,0x9
 266:lib/ff/ff.c   **** 				0x80,0x81,0x82,0x83,0x84,0x85,0x86,0x87,0x88,0x89,0x8A,0x8B,0x8C,0x8D,0x8E,0x8F,0xB0,0xB1,0xB2,
 267:lib/ff/ff.c   **** 				0xC0,0xC1,0xC2,0xC3,0xC4,0xC5,0xC6,0xC7,0xC8,0xC9,0xCA,0xCB,0xCC,0xCD,0xCE,0xCF,0xD0,0xD1,0xD2,
 268:lib/ff/ff.c   **** 				0x90,0x91,0x92,0x93,0x9d,0x95,0x96,0x97,0x98,0x99,0x9A,0x9B,0x9C,0x9D,0x9E,0x9F,0xF0,0xF0,0xF2,
 269:lib/ff/ff.c   **** 
 270:lib/ff/ff.c   **** #elif _CODE_PAGE == 874	/* Thai (OEM, Windows) */
 271:lib/ff/ff.c   **** #define _DF1S	0
 272:lib/ff/ff.c   **** #define _EXCVT {0x80,0x81,0x82,0x83,0x84,0x85,0x86,0x87,0x88,0x89,0x8A,0x8B,0x8C,0x8D,0x8E,0x8F,0x9
 273:lib/ff/ff.c   **** 				0xA0,0xA1,0xA2,0xA3,0xA4,0xA5,0xA6,0xA7,0xA8,0xA9,0xAA,0xAB,0xAC,0xAD,0xAE,0xAF,0xB0,0xB1,0xB2,
 274:lib/ff/ff.c   **** 				0xC0,0xC1,0xC2,0xC3,0xC4,0xC5,0xC6,0xC7,0xC8,0xC9,0xCA,0xCB,0xCC,0xCD,0xCE,0xCF,0xD0,0xD1,0xD2,
 275:lib/ff/ff.c   **** 				0xE0,0xE1,0xE2,0xE3,0xE4,0xE5,0xE6,0xE7,0xE8,0xE9,0xEA,0xEB,0xEC,0xED,0xEE,0xEF,0xF0,0xF1,0xF2,
 276:lib/ff/ff.c   **** 
 277:lib/ff/ff.c   **** #elif _CODE_PAGE == 1250 /* Central Europe (Windows) */
 278:lib/ff/ff.c   **** #define _DF1S	0
 279:lib/ff/ff.c   **** #define _EXCVT {0x80,0x81,0x82,0x83,0x84,0x85,0x86,0x87,0x88,0x89,0x8A,0x8B,0x8C,0x8D,0x8E,0x8F,0x9
 280:lib/ff/ff.c   **** 				0xA0,0xA1,0xA2,0xA3,0xA4,0xA5,0xA6,0xA7,0xA8,0xA9,0xAA,0xAB,0xAC,0xAD,0xAE,0xAF,0xB0,0xB1,0xB2,
 281:lib/ff/ff.c   **** 				0xC0,0xC1,0xC2,0xC3,0xC4,0xC5,0xC6,0xC7,0xC8,0xC9,0xCA,0xCB,0xCC,0xCD,0xCE,0xCF,0xD0,0xD1,0xD2,
 282:lib/ff/ff.c   **** 				0xC0,0xC1,0xC2,0xC3,0xC4,0xC5,0xC6,0xC7,0xC8,0xC9,0xCA,0xCB,0xCC,0xCD,0xCE,0xCF,0xD0,0xD1,0xD2,
 283:lib/ff/ff.c   **** 
 284:lib/ff/ff.c   **** #elif _CODE_PAGE == 1251 /* Cyrillic (Windows) */
 285:lib/ff/ff.c   **** #define _DF1S	0
 286:lib/ff/ff.c   **** #define _EXCVT {0x80,0x81,0x82,0x82,0x84,0x85,0x86,0x87,0x88,0x89,0x8A,0x8B,0x8C,0x8D,0x8E,0x8F,0x8
 287:lib/ff/ff.c   **** 				0xA0,0xA2,0xA2,0xA3,0xA4,0xA5,0xA6,0xA7,0xA8,0xA9,0xAA,0xAB,0xAC,0xAD,0xAE,0xAF,0xB0,0xB1,0xB2,
 288:lib/ff/ff.c   **** 				0xC0,0xC1,0xC2,0xC3,0xC4,0xC5,0xC6,0xC7,0xC8,0xC9,0xCA,0xCB,0xCC,0xCD,0xCE,0xCF,0xD0,0xD1,0xD2,
 289:lib/ff/ff.c   **** 				0xC0,0xC1,0xC2,0xC3,0xC4,0xC5,0xC6,0xC7,0xC8,0xC9,0xCA,0xCB,0xCC,0xCD,0xCE,0xCF,0xD0,0xD1,0xD2,
 290:lib/ff/ff.c   **** 
 291:lib/ff/ff.c   **** #elif _CODE_PAGE == 1252 /* Latin 1 (Windows) */
 292:lib/ff/ff.c   **** #define _DF1S	0
 293:lib/ff/ff.c   **** #define _EXCVT {0x80,0x81,0x82,0x83,0x84,0x85,0x86,0x87,0x88,0x89,0x8A,0x8B,0x8C,0x8D,0x8E,0x8F,0x9
 294:lib/ff/ff.c   **** 				0xA0,0x21,0xA2,0xA3,0xA4,0xA5,0xA6,0xA7,0xA8,0xA9,0xAA,0xAB,0xAC,0xAD,0xAE,0xAF,0xB0,0xB1,0xB2,
 295:lib/ff/ff.c   **** 				0xC0,0xC1,0xC2,0xC3,0xC4,0xC5,0xC6,0xC7,0xC8,0xC9,0xCA,0xCB,0xCC,0xCD,0xCE,0xCF,0xD0,0xD1,0xD2,
 296:lib/ff/ff.c   **** 				0xC0,0xC1,0xC2,0xC3,0xC4,0xC5,0xC6,0xC7,0xC8,0xC9,0xCA,0xCB,0xCC,0xCD,0xCE,0xCF,0xD0,0xD1,0xD2,
 297:lib/ff/ff.c   **** 
 298:lib/ff/ff.c   **** #elif _CODE_PAGE == 1253 /* Greek (Windows) */
 299:lib/ff/ff.c   **** #define _DF1S	0
 300:lib/ff/ff.c   **** #define _EXCVT {0x80,0x81,0x82,0x83,0x84,0x85,0x86,0x87,0x88,0x89,0x8A,0x8B,0x8C,0x8D,0x8E,0x8F,0x9
 301:lib/ff/ff.c   **** 				0xA0,0xA1,0xA2,0xA3,0xA4,0xA5,0xA6,0xA7,0xA8,0xA9,0xAA,0xAB,0xAC,0xAD,0xAE,0xAF,0xB0,0xB1,0xB2,
 302:lib/ff/ff.c   **** 				0xC0,0xC1,0xC2,0xC3,0xC4,0xC5,0xC6,0xC7,0xC8,0xC9,0xCA,0xCB,0xCC,0xCD,0xCE,0xCF,0xD0,0xD1,0xD2,
 303:lib/ff/ff.c   **** 				0xE0,0xC1,0xC2,0xC3,0xC4,0xC5,0xC6,0xC7,0xC8,0xC9,0xCA,0xCB,0xCC,0xCD,0xCE,0xCF,0xD0,0xD1,0xF2,
 304:lib/ff/ff.c   **** 
 305:lib/ff/ff.c   **** #elif _CODE_PAGE == 1254 /* Turkish (Windows) */
 306:lib/ff/ff.c   **** #define _DF1S	0
 307:lib/ff/ff.c   **** #define _EXCVT {0x80,0x81,0x82,0x83,0x84,0x85,0x86,0x87,0x88,0x89,0x8A,0x8B,0x8C,0x8D,0x8E,0x8F,0x9
 308:lib/ff/ff.c   **** 				0xA0,0x21,0xA2,0xA3,0xA4,0xA5,0xA6,0xA7,0xA8,0xA9,0xAA,0xAB,0xAC,0xAD,0xAE,0xAF,0xB0,0xB1,0xB2,
 309:lib/ff/ff.c   **** 				0xC0,0xC1,0xC2,0xC3,0xC4,0xC5,0xC6,0xC7,0xC8,0xC9,0xCA,0xCB,0xCC,0xCD,0xCE,0xCF,0xD0,0xD1,0xD2,
 310:lib/ff/ff.c   **** 				0xC0,0xC1,0xC2,0xC3,0xC4,0xC5,0xC6,0xC7,0xC8,0xC9,0xCA,0xCB,0xCC,0xCD,0xCE,0xCF,0xD0,0xD1,0xD2,
 311:lib/ff/ff.c   **** 
 312:lib/ff/ff.c   **** #elif _CODE_PAGE == 1255 /* Hebrew (Windows) */
 313:lib/ff/ff.c   **** #define _DF1S	0
 314:lib/ff/ff.c   **** #define _EXCVT {0x80,0x81,0x82,0x83,0x84,0x85,0x86,0x87,0x88,0x89,0x8A,0x8B,0x8C,0x8D,0x8E,0x8F,0x9
 315:lib/ff/ff.c   **** 				0xA0,0x21,0xA2,0xA3,0xA4,0xA5,0xA6,0xA7,0xA8,0xA9,0xAA,0xAB,0xAC,0xAD,0xAE,0xAF,0xB0,0xB1,0xB2,
 316:lib/ff/ff.c   **** 				0xC0,0xC1,0xC2,0xC3,0xC4,0xC5,0xC6,0xC7,0xC8,0xC9,0xCA,0xCB,0xCC,0xCD,0xCE,0xCF,0xD0,0xD1,0xD2,
 317:lib/ff/ff.c   **** 				0xE0,0xE1,0xE2,0xE3,0xE4,0xE5,0xE6,0xE7,0xE8,0xE9,0xEA,0xEB,0xEC,0xED,0xEE,0xEF,0xF0,0xF1,0xF2,
 318:lib/ff/ff.c   **** 
 319:lib/ff/ff.c   **** #elif _CODE_PAGE == 1256 /* Arabic (Windows) */
 320:lib/ff/ff.c   **** #define _DF1S	0
 321:lib/ff/ff.c   **** #define _EXCVT {0x80,0x81,0x82,0x83,0x84,0x85,0x86,0x87,0x88,0x89,0x8A,0x8B,0x8C,0x8D,0x8E,0x8F,0x9
 322:lib/ff/ff.c   **** 				0xA0,0xA1,0xA2,0xA3,0xA4,0xA5,0xA6,0xA7,0xA8,0xA9,0xAA,0xAB,0xAC,0xAD,0xAE,0xAF,0xB0,0xB1,0xB2,
 323:lib/ff/ff.c   **** 				0xC0,0xC1,0xC2,0xC3,0xC4,0xC5,0xC6,0xC7,0xC8,0xC9,0xCA,0xCB,0xCC,0xCD,0xCE,0xCF,0xD0,0xD1,0xD2,
 324:lib/ff/ff.c   **** 				0x41,0xE1,0x41,0xE3,0xE4,0xE5,0xE6,0x43,0x45,0x45,0x45,0x45,0xEC,0xED,0x49,0x49,0xF0,0xF1,0xF2,
 325:lib/ff/ff.c   **** 
 326:lib/ff/ff.c   **** #elif _CODE_PAGE == 1257 /* Baltic (Windows) */
 327:lib/ff/ff.c   **** #define _DF1S	0
 328:lib/ff/ff.c   **** #define _EXCVT {0x80,0x81,0x82,0x83,0x84,0x85,0x86,0x87,0x88,0x89,0x8A,0x8B,0x8C,0x8D,0x8E,0x8F,0x9
 329:lib/ff/ff.c   **** 				0xA0,0xA1,0xA2,0xA3,0xA4,0xA5,0xA6,0xA7,0xA8,0xA9,0xAA,0xAB,0xAC,0xAD,0xAE,0xAF,0xB0,0xB1,0xB2,
 330:lib/ff/ff.c   **** 				0xC0,0xC1,0xC2,0xC3,0xC4,0xC5,0xC6,0xC7,0xC8,0xC9,0xCA,0xCB,0xCC,0xCD,0xCE,0xCF,0xD0,0xD1,0xD2,
 331:lib/ff/ff.c   **** 				0xC0,0xC1,0xC2,0xC3,0xC4,0xC5,0xC6,0xC7,0xC8,0xC9,0xCA,0xCB,0xCC,0xCD,0xCE,0xCF,0xD0,0xD1,0xD2,
 332:lib/ff/ff.c   **** 
 333:lib/ff/ff.c   **** #elif _CODE_PAGE == 1258 /* Vietnam (OEM, Windows) */
 334:lib/ff/ff.c   **** #define _DF1S	0
 335:lib/ff/ff.c   **** #define _EXCVT {0x80,0x81,0x82,0x83,0x84,0x85,0x86,0x87,0x88,0x89,0x8A,0x8B,0x8C,0x8D,0x8E,0x8F,0x9
 336:lib/ff/ff.c   **** 				0xA0,0x21,0xA2,0xA3,0xA4,0xA5,0xA6,0xA7,0xA8,0xA9,0xAA,0xAB,0xAC,0xAD,0xAE,0xAF,0xB0,0xB1,0xB2,
 337:lib/ff/ff.c   **** 				0xC0,0xC1,0xC2,0xC3,0xC4,0xC5,0xC6,0xC7,0xC8,0xC9,0xCA,0xCB,0xCC,0xCD,0xCE,0xCF,0xD0,0xD1,0xD2,
 338:lib/ff/ff.c   **** 				0xC0,0xC1,0xC2,0xC3,0xC4,0xC5,0xC6,0xC7,0xC8,0xC9,0xCA,0xCB,0xEC,0xCD,0xCE,0xCF,0xD0,0xD1,0xF2,
 339:lib/ff/ff.c   **** 
 340:lib/ff/ff.c   **** #elif _CODE_PAGE == 1	/* ASCII (for only non-LFN cfg) */
 341:lib/ff/ff.c   **** #if _USE_LFN
 342:lib/ff/ff.c   **** #error Cannot use LFN feature without valid code page.
 343:lib/ff/ff.c   **** #endif
 344:lib/ff/ff.c   **** #define _DF1S	0
 345:lib/ff/ff.c   **** 
 346:lib/ff/ff.c   **** #else
 347:lib/ff/ff.c   **** #error Unknown code page
 348:lib/ff/ff.c   **** 
 349:lib/ff/ff.c   **** #endif
 350:lib/ff/ff.c   **** 
 351:lib/ff/ff.c   **** 
 352:lib/ff/ff.c   **** /* Character code support macros */
 353:lib/ff/ff.c   **** #define IsUpper(c)	(((c)>='A')&&((c)<='Z'))
 354:lib/ff/ff.c   **** #define IsLower(c)	(((c)>='a')&&((c)<='z'))
 355:lib/ff/ff.c   **** #define IsDigit(c)	(((c)>='0')&&((c)<='9'))
 356:lib/ff/ff.c   **** 
 357:lib/ff/ff.c   **** #if _DF1S		/* Code page is DBCS */
 358:lib/ff/ff.c   **** 
 359:lib/ff/ff.c   **** #ifdef _DF2S	/* Two 1st byte areas */
 360:lib/ff/ff.c   **** #define IsDBCS1(c)	(((BYTE)(c) >= _DF1S && (BYTE)(c) <= _DF1E) || ((BYTE)(c) >= _DF2S && (BYTE)(c) 
 361:lib/ff/ff.c   **** #else			/* One 1st byte area */
 362:lib/ff/ff.c   **** #define IsDBCS1(c)	((BYTE)(c) >= _DF1S && (BYTE)(c) <= _DF1E)
 363:lib/ff/ff.c   **** #endif
 364:lib/ff/ff.c   **** 
 365:lib/ff/ff.c   **** #ifdef _DS3S	/* Three 2nd byte areas */
 366:lib/ff/ff.c   **** #define IsDBCS2(c)	(((BYTE)(c) >= _DS1S && (BYTE)(c) <= _DS1E) || ((BYTE)(c) >= _DS2S && (BYTE)(c) 
 367:lib/ff/ff.c   **** #else			/* Two 2nd byte areas */
 368:lib/ff/ff.c   **** #define IsDBCS2(c)	(((BYTE)(c) >= _DS1S && (BYTE)(c) <= _DS1E) || ((BYTE)(c) >= _DS2S && (BYTE)(c) 
 369:lib/ff/ff.c   **** #endif
 370:lib/ff/ff.c   **** 
 371:lib/ff/ff.c   **** #else			/* Code page is SBCS */
 372:lib/ff/ff.c   **** 
 373:lib/ff/ff.c   **** #define IsDBCS1(c)	0
 374:lib/ff/ff.c   **** #define IsDBCS2(c)	0
 375:lib/ff/ff.c   **** 
 376:lib/ff/ff.c   **** #endif /* _DF1S */
 377:lib/ff/ff.c   **** 
 378:lib/ff/ff.c   **** 
 379:lib/ff/ff.c   **** /* Name status flags */
 380:lib/ff/ff.c   **** #define NS			11		/* Index of name status byte in fn[] */
 381:lib/ff/ff.c   **** #define NS_LOSS		0x01	/* Out of 8.3 format */
 382:lib/ff/ff.c   **** #define NS_LFN		0x02	/* Force to create LFN entry */
 383:lib/ff/ff.c   **** #define NS_LAST		0x04	/* Last segment */
 384:lib/ff/ff.c   **** #define NS_BODY		0x08	/* Lower case flag (body) */
 385:lib/ff/ff.c   **** #define NS_EXT		0x10	/* Lower case flag (ext) */
 386:lib/ff/ff.c   **** #define NS_DOT		0x20	/* Dot entry */
 387:lib/ff/ff.c   **** 
 388:lib/ff/ff.c   **** 
 389:lib/ff/ff.c   **** /* FAT sub-type boundaries */
 390:lib/ff/ff.c   **** /* Note that the FAT spec by Microsoft says 4085 but Windows works with 4087! */
 391:lib/ff/ff.c   **** #define MIN_FAT16	4086	/* Minimum number of clusters for FAT16 */
 392:lib/ff/ff.c   **** #define	MIN_FAT32	65526	/* Minimum number of clusters for FAT32 */
 393:lib/ff/ff.c   **** 
 394:lib/ff/ff.c   **** 
 395:lib/ff/ff.c   **** /* FatFs refers the members in the FAT structures as byte array instead of
 396:lib/ff/ff.c   **** / structure member because the structure is not binary compatible between
 397:lib/ff/ff.c   **** / different platforms */
 398:lib/ff/ff.c   **** 
 399:lib/ff/ff.c   **** #define BS_jmpBoot			0	/* Jump instruction (3) */
 400:lib/ff/ff.c   **** #define BS_OEMName			3	/* OEM name (8) */
 401:lib/ff/ff.c   **** #define BPB_BytsPerSec		11	/* Sector size [byte] (2) */
 402:lib/ff/ff.c   **** #define BPB_SecPerClus		13	/* Cluster size [sector] (1) */
 403:lib/ff/ff.c   **** #define BPB_RsvdSecCnt		14	/* Size of reserved area [sector] (2) */
 404:lib/ff/ff.c   **** #define BPB_NumFATs			16	/* Number of FAT copies (1) */
 405:lib/ff/ff.c   **** #define BPB_RootEntCnt		17	/* Number of root dir entries for FAT12/16 (2) */
 406:lib/ff/ff.c   **** #define BPB_TotSec16		19	/* Volume size [sector] (2) */
 407:lib/ff/ff.c   **** #define BPB_Media			21	/* Media descriptor (1) */
 408:lib/ff/ff.c   **** #define BPB_FATSz16			22	/* FAT size [sector] (2) */
 409:lib/ff/ff.c   **** #define BPB_SecPerTrk		24	/* Track size [sector] (2) */
 410:lib/ff/ff.c   **** #define BPB_NumHeads		26	/* Number of heads (2) */
 411:lib/ff/ff.c   **** #define BPB_HiddSec			28	/* Number of special hidden sectors (4) */
 412:lib/ff/ff.c   **** #define BPB_TotSec32		32	/* Volume size [sector] (4) */
 413:lib/ff/ff.c   **** #define BS_DrvNum			36	/* Physical drive number (2) */
 414:lib/ff/ff.c   **** #define BS_BootSig			38	/* Extended boot signature (1) */
 415:lib/ff/ff.c   **** #define BS_VolID			39	/* Volume serial number (4) */
 416:lib/ff/ff.c   **** #define BS_VolLab			43	/* Volume label (8) */
 417:lib/ff/ff.c   **** #define BS_FilSysType		54	/* File system type (1) */
 418:lib/ff/ff.c   **** #define BPB_FATSz32			36	/* FAT size [sector] (4) */
 419:lib/ff/ff.c   **** #define BPB_ExtFlags		40	/* Extended flags (2) */
 420:lib/ff/ff.c   **** #define BPB_FSVer			42	/* File system version (2) */
 421:lib/ff/ff.c   **** #define BPB_RootClus		44	/* Root dir first cluster (4) */
 422:lib/ff/ff.c   **** #define BPB_FSInfo			48	/* Offset of FSInfo sector (2) */
 423:lib/ff/ff.c   **** #define BPB_BkBootSec		50	/* Offset of backup boot sector (2) */
 424:lib/ff/ff.c   **** #define BS_DrvNum32			64	/* Physical drive number (2) */
 425:lib/ff/ff.c   **** #define BS_BootSig32		66	/* Extended boot signature (1) */
 426:lib/ff/ff.c   **** #define BS_VolID32			67	/* Volume serial number (4) */
 427:lib/ff/ff.c   **** #define BS_VolLab32			71	/* Volume label (8) */
 428:lib/ff/ff.c   **** #define BS_FilSysType32		82	/* File system type (1) */
 429:lib/ff/ff.c   **** #define	FSI_LeadSig			0	/* FSI: Leading signature (4) */
 430:lib/ff/ff.c   **** #define	FSI_StrucSig		484	/* FSI: Structure signature (4) */
 431:lib/ff/ff.c   **** #define	FSI_Free_Count		488	/* FSI: Number of free clusters (4) */
 432:lib/ff/ff.c   **** #define	FSI_Nxt_Free		492	/* FSI: Last allocated cluster (4) */
 433:lib/ff/ff.c   **** #define MBR_Table			446	/* MBR: Partition table offset (2) */
 434:lib/ff/ff.c   **** #define	SZ_PTE				16	/* MBR: Size of a partition table entry */
 435:lib/ff/ff.c   **** #define BS_55AA				510	/* Boot sector signature (2) */
 436:lib/ff/ff.c   **** 
 437:lib/ff/ff.c   **** #define	DIR_Name			0	/* Short file name (11) */
 438:lib/ff/ff.c   **** #define	DIR_Attr			11	/* Attribute (1) */
 439:lib/ff/ff.c   **** #define	DIR_NTres			12	/* NT flag (1) */
 440:lib/ff/ff.c   **** #define DIR_CrtTimeTenth	13	/* Created time sub-second (1) */
 441:lib/ff/ff.c   **** #define	DIR_CrtTime			14	/* Created time (2) */
 442:lib/ff/ff.c   **** #define	DIR_CrtDate			16	/* Created date (2) */
 443:lib/ff/ff.c   **** #define DIR_LstAccDate		18	/* Last accessed date (2) */
 444:lib/ff/ff.c   **** #define	DIR_FstClusHI		20	/* Higher 16-bit of first cluster (2) */
 445:lib/ff/ff.c   **** #define	DIR_WrtTime			22	/* Modified time (2) */
 446:lib/ff/ff.c   **** #define	DIR_WrtDate			24	/* Modified date (2) */
 447:lib/ff/ff.c   **** #define	DIR_FstClusLO		26	/* Lower 16-bit of first cluster (2) */
 448:lib/ff/ff.c   **** #define	DIR_FileSize		28	/* File size (4) */
 449:lib/ff/ff.c   **** #define	LDIR_Ord			0	/* LFN entry order and LLE flag (1) */
 450:lib/ff/ff.c   **** #define	LDIR_Attr			11	/* LFN attribute (1) */
 451:lib/ff/ff.c   **** #define	LDIR_Type			12	/* LFN type (1) */
 452:lib/ff/ff.c   **** #define	LDIR_Chksum			13	/* Sum of corresponding SFN entry */
 453:lib/ff/ff.c   **** #define	LDIR_FstClusLO		26	/* Filled by zero (0) */
 454:lib/ff/ff.c   **** #define	SZ_DIR				32		/* Size of a directory entry */
 455:lib/ff/ff.c   **** #define	LLE					0x40	/* Last long entry flag in LDIR_Ord */
 456:lib/ff/ff.c   **** #define	DDE					0xE5	/* Deleted directory entry mark in DIR_Name[0] */
 457:lib/ff/ff.c   **** #define	NDDE				0x05	/* Replacement of the character collides with DDE */
 458:lib/ff/ff.c   **** 
 459:lib/ff/ff.c   **** 
 460:lib/ff/ff.c   **** /*------------------------------------------------------------*/
 461:lib/ff/ff.c   **** /* Module private work area                                   */
 462:lib/ff/ff.c   **** /*------------------------------------------------------------*/
 463:lib/ff/ff.c   **** /* Note that uninitialized variables with static duration are
 464:lib/ff/ff.c   **** /  zeroed/nulled at start-up. If not, the compiler or start-up
 465:lib/ff/ff.c   **** /  routine is out of ANSI-C standard.
 466:lib/ff/ff.c   **** */
 467:lib/ff/ff.c   **** 
 468:lib/ff/ff.c   **** #if _VOLUMES
 469:lib/ff/ff.c   **** static
 470:lib/ff/ff.c   **** FATFS *FatFs[_VOLUMES];	/* Pointer to the file system objects (logical drives) */
 471:lib/ff/ff.c   **** #else
 472:lib/ff/ff.c   **** #error Number of volumes must not be 0.
 473:lib/ff/ff.c   **** #endif
 474:lib/ff/ff.c   **** 
 475:lib/ff/ff.c   **** static
 476:lib/ff/ff.c   **** WORD Fsid;				/* File system mount ID */
 477:lib/ff/ff.c   **** 
 478:lib/ff/ff.c   **** #if _FS_RPATH
 479:lib/ff/ff.c   **** static
 480:lib/ff/ff.c   **** BYTE CurrVol;			/* Current drive */
 481:lib/ff/ff.c   **** #endif
 482:lib/ff/ff.c   **** 
 483:lib/ff/ff.c   **** #if _FS_LOCK
 484:lib/ff/ff.c   **** static
 485:lib/ff/ff.c   **** FILESEM	Files[_FS_LOCK];	/* File lock semaphores */
 486:lib/ff/ff.c   **** #endif
 487:lib/ff/ff.c   **** 
 488:lib/ff/ff.c   **** #if _USE_LFN == 0			/* No LFN feature */
 489:lib/ff/ff.c   **** #define	DEF_NAMEBUF			BYTE sfn[12]
 490:lib/ff/ff.c   **** #define INIT_BUF(dobj)		(dobj).fn = sfn
 491:lib/ff/ff.c   **** #define	FREE_BUF()
 492:lib/ff/ff.c   **** 
 493:lib/ff/ff.c   **** #elif _USE_LFN == 1			/* LFN feature with static working buffer */
 494:lib/ff/ff.c   **** static WCHAR LfnBuf[_MAX_LFN+1];
 495:lib/ff/ff.c   **** #define	DEF_NAMEBUF			BYTE sfn[12]
 496:lib/ff/ff.c   **** #define INIT_BUF(dobj)		{ (dobj).fn = sfn; (dobj).lfn = LfnBuf; }
 497:lib/ff/ff.c   **** #define	FREE_BUF()
 498:lib/ff/ff.c   **** 
 499:lib/ff/ff.c   **** #elif _USE_LFN == 2 		/* LFN feature with dynamic working buffer on the stack */
 500:lib/ff/ff.c   **** #define	DEF_NAMEBUF			BYTE sfn[12]; WCHAR lbuf[_MAX_LFN+1]
 501:lib/ff/ff.c   **** #define INIT_BUF(dobj)		{ (dobj).fn = sfn; (dobj).lfn = lbuf; }
 502:lib/ff/ff.c   **** #define	FREE_BUF()
 503:lib/ff/ff.c   **** 
 504:lib/ff/ff.c   **** #elif _USE_LFN == 3 		/* LFN feature with dynamic working buffer on the heap */
 505:lib/ff/ff.c   **** #define	DEF_NAMEBUF			BYTE sfn[12]; WCHAR *lfn
 506:lib/ff/ff.c   **** #define INIT_BUF(dobj)		{ lfn = ff_memalloc((_MAX_LFN + 1) * 2); \
 507:lib/ff/ff.c   **** 							  if (!lfn) LEAVE_FF((dobj).fs, FR_NOT_ENOUGH_CORE); \
 508:lib/ff/ff.c   **** 							  (dobj).lfn = lfn;	(dobj).fn = sfn; }
 509:lib/ff/ff.c   **** #define	FREE_BUF()			ff_memfree(lfn)
 510:lib/ff/ff.c   **** 
 511:lib/ff/ff.c   **** #else
 512:lib/ff/ff.c   **** #error Wrong LFN configuration.
 513:lib/ff/ff.c   **** #endif
 514:lib/ff/ff.c   **** 
 515:lib/ff/ff.c   **** 
 516:lib/ff/ff.c   **** #ifdef _EXCVT
 517:lib/ff/ff.c   **** static
 518:lib/ff/ff.c   **** const BYTE ExCvt[] = _EXCVT;	/* Upper conversion table for extended chars */
 519:lib/ff/ff.c   **** #endif
 520:lib/ff/ff.c   **** 
 521:lib/ff/ff.c   **** 
 522:lib/ff/ff.c   **** 
 523:lib/ff/ff.c   **** 
 524:lib/ff/ff.c   **** 
 525:lib/ff/ff.c   **** 
 526:lib/ff/ff.c   **** /*--------------------------------------------------------------------------
 527:lib/ff/ff.c   **** 
 528:lib/ff/ff.c   ****    Module Private Functions
 529:lib/ff/ff.c   **** 
 530:lib/ff/ff.c   **** ---------------------------------------------------------------------------*/
 531:lib/ff/ff.c   **** 
 532:lib/ff/ff.c   **** 
 533:lib/ff/ff.c   **** /*-----------------------------------------------------------------------*/
 534:lib/ff/ff.c   **** /* String functions                                                      */
 535:lib/ff/ff.c   **** /*-----------------------------------------------------------------------*/
 536:lib/ff/ff.c   **** 
 537:lib/ff/ff.c   **** /* Copy memory to memory */
 538:lib/ff/ff.c   **** static
 539:lib/ff/ff.c   **** void mem_cpy (void* dst, const void* src, UINT cnt) {
  26              		.loc 1 539 0
  27              		.cfi_startproc
  28              		@ args = 0, pretend = 0, frame = 0
  29              		@ frame_needed = 0, uses_anonymous_args = 0
  30              	.LVL0:
  31 0000 10B5     		push	{r4, lr}
  32              	.LCFI0:
  33              		.cfi_def_cfa_offset 8
  34              		.cfi_offset 4, -8
  35              		.cfi_offset 14, -4
  36              	.LVL1:
 540:lib/ff/ff.c   **** 	BYTE *d = (BYTE*)dst;
 541:lib/ff/ff.c   **** 	const BYTE *s = (const BYTE*)src;
 542:lib/ff/ff.c   **** 
 543:lib/ff/ff.c   **** #if _WORD_ACCESS == 1
 544:lib/ff/ff.c   **** 	while (cnt >= sizeof (int)) {
  37              		.loc 1 544 0
  38 0002 0023     		movs	r3, #0
  39              	.LVL2:
  40              	.L2:
  41              		.loc 1 544 0 is_stmt 0 discriminator 1
  42 0004 D41A     		subs	r4, r2, r3
  43 0006 032C     		cmp	r4, #3
  44 0008 03D9     		bls	.L7
  45              	.L3:
 545:lib/ff/ff.c   **** 		*(int*)d = *(int*)s;
  46              		.loc 1 545 0 is_stmt 1
  47 000a CC58     		ldr	r4, [r1, r3]
  48 000c C450     		str	r4, [r0, r3]
  49 000e 0433     		adds	r3, r3, #4
  50 0010 F8E7     		b	.L2
  51              	.L7:
  52 0012 02F00304 		and	r4, r2, #3
 539:lib/ff/ff.c   **** 	BYTE *d = (BYTE*)dst;
  53              		.loc 1 539 0
  54 0016 22F00302 		bic	r2, r2, #3
  55 001a 8018     		adds	r0, r0, r2
  56              	.LVL3:
  57 001c 8A18     		adds	r2, r1, r2
  58 001e 0023     		movs	r3, #0
  59              	.LVL4:
  60              	.L4:
 546:lib/ff/ff.c   **** 		d += sizeof (int); s += sizeof (int);
 547:lib/ff/ff.c   **** 		cnt -= sizeof (int);
 548:lib/ff/ff.c   **** 	}
 549:lib/ff/ff.c   **** #endif
 550:lib/ff/ff.c   **** 	while (cnt--)
  61              		.loc 1 550 0 discriminator 1
  62 0020 A342     		cmp	r3, r4
  63 0022 03D0     		beq	.L8
  64              	.L5:
 551:lib/ff/ff.c   **** 		*d++ = *s++;
  65              		.loc 1 551 0
  66 0024 D15C     		ldrb	r1, [r2, r3]	@ zero_extendqisi2
  67 0026 C154     		strb	r1, [r0, r3]
  68 0028 0133     		adds	r3, r3, #1
  69 002a F9E7     		b	.L4
  70              	.L8:
 552:lib/ff/ff.c   **** }
  71              		.loc 1 552 0
  72 002c 10BD     		pop	{r4, pc}
  73              		.cfi_endproc
  74              	.LFE0:
  76              		.section	.text.mem_set,"ax",%progbits
  77              		.align	1
  78              		.thumb
  79              		.thumb_func
  81              	mem_set:
  82              	.LFB1:
 553:lib/ff/ff.c   **** 
 554:lib/ff/ff.c   **** /* Fill memory */
 555:lib/ff/ff.c   **** static
 556:lib/ff/ff.c   **** void mem_set (void* dst, int val, UINT cnt) {
  83              		.loc 1 556 0
  84              		.cfi_startproc
  85              		@ args = 0, pretend = 0, frame = 0
  86              		@ frame_needed = 0, uses_anonymous_args = 0
  87              		@ link register save eliminated.
  88              	.LVL5:
  89              	.LVL6:
  90              		.loc 1 556 0
  91 0000 8218     		adds	r2, r0, r2
  92              	.LVL7:
  93              	.L10:
 557:lib/ff/ff.c   **** 	BYTE *d = (BYTE*)dst;
 558:lib/ff/ff.c   **** 
 559:lib/ff/ff.c   **** 	while (cnt--)
  94              		.loc 1 559 0 discriminator 1
  95 0002 9042     		cmp	r0, r2
  96 0004 02D0     		beq	.L12
  97              	.L11:
 560:lib/ff/ff.c   **** 		*d++ = (BYTE)val;
  98              		.loc 1 560 0
  99 0006 00F8011B 		strb	r1, [r0], #1
 100              	.LVL8:
 101 000a FAE7     		b	.L10
 102              	.L12:
 561:lib/ff/ff.c   **** }
 103              		.loc 1 561 0
 104 000c 7047     		bx	lr
 105              		.cfi_endproc
 106              	.LFE1:
 108              		.section	.text.clmt_clust,"ax",%progbits
 109              		.align	1
 110              		.thumb
 111              		.thumb_func
 113              	clmt_clust:
 114              	.LFB12:
 562:lib/ff/ff.c   **** 
 563:lib/ff/ff.c   **** /* Compare memory to memory */
 564:lib/ff/ff.c   **** static
 565:lib/ff/ff.c   **** int mem_cmp (const void* dst, const void* src, UINT cnt) {
 566:lib/ff/ff.c   **** 	const BYTE *d = (const BYTE *)dst, *s = (const BYTE *)src;
 567:lib/ff/ff.c   **** 	int r = 0;
 568:lib/ff/ff.c   **** 
 569:lib/ff/ff.c   **** 	while (cnt-- && (r = *d++ - *s++) == 0) ;
 570:lib/ff/ff.c   **** 	return r;
 571:lib/ff/ff.c   **** }
 572:lib/ff/ff.c   **** 
 573:lib/ff/ff.c   **** /* Check if chr is contained in the string */
 574:lib/ff/ff.c   **** static
 575:lib/ff/ff.c   **** int chk_chr (const char* str, int chr) {
 576:lib/ff/ff.c   **** 	while (*str && *str != chr) str++;
 577:lib/ff/ff.c   **** 	return *str;
 578:lib/ff/ff.c   **** }
 579:lib/ff/ff.c   **** 
 580:lib/ff/ff.c   **** 
 581:lib/ff/ff.c   **** 
 582:lib/ff/ff.c   **** /*-----------------------------------------------------------------------*/
 583:lib/ff/ff.c   **** /* Request/Release grant to access the volume                            */
 584:lib/ff/ff.c   **** /*-----------------------------------------------------------------------*/
 585:lib/ff/ff.c   **** #if _FS_REENTRANT
 586:lib/ff/ff.c   **** 
 587:lib/ff/ff.c   **** static
 588:lib/ff/ff.c   **** int lock_fs (
 589:lib/ff/ff.c   **** 	FATFS *fs		/* File system object */
 590:lib/ff/ff.c   **** )
 591:lib/ff/ff.c   **** {
 592:lib/ff/ff.c   **** 	return ff_req_grant(fs->sobj);
 593:lib/ff/ff.c   **** }
 594:lib/ff/ff.c   **** 
 595:lib/ff/ff.c   **** 
 596:lib/ff/ff.c   **** static
 597:lib/ff/ff.c   **** void unlock_fs (
 598:lib/ff/ff.c   **** 	FATFS *fs,		/* File system object */
 599:lib/ff/ff.c   **** 	FRESULT res		/* Result code to be returned */
 600:lib/ff/ff.c   **** )
 601:lib/ff/ff.c   **** {
 602:lib/ff/ff.c   **** 	if (fs &&
 603:lib/ff/ff.c   **** 		res != FR_NOT_ENABLED &&
 604:lib/ff/ff.c   **** 		res != FR_INVALID_DRIVE &&
 605:lib/ff/ff.c   **** 		res != FR_INVALID_OBJECT &&
 606:lib/ff/ff.c   **** 		res != FR_TIMEOUT) {
 607:lib/ff/ff.c   **** 		ff_rel_grant(fs->sobj);
 608:lib/ff/ff.c   **** 	}
 609:lib/ff/ff.c   **** }
 610:lib/ff/ff.c   **** #endif
 611:lib/ff/ff.c   **** 
 612:lib/ff/ff.c   **** 
 613:lib/ff/ff.c   **** 
 614:lib/ff/ff.c   **** /*-----------------------------------------------------------------------*/
 615:lib/ff/ff.c   **** /* File lock control functions                                           */
 616:lib/ff/ff.c   **** /*-----------------------------------------------------------------------*/
 617:lib/ff/ff.c   **** #if _FS_LOCK
 618:lib/ff/ff.c   **** 
 619:lib/ff/ff.c   **** static
 620:lib/ff/ff.c   **** FRESULT chk_lock (	/* Check if the file can be accessed */
 621:lib/ff/ff.c   **** 	DIR* dj,		/* Directory object pointing the file to be checked */
 622:lib/ff/ff.c   **** 	int acc			/* Desired access (0:Read, 1:Write, 2:Delete/Rename) */
 623:lib/ff/ff.c   **** )
 624:lib/ff/ff.c   **** {
 625:lib/ff/ff.c   **** 	UINT i, be;
 626:lib/ff/ff.c   **** 
 627:lib/ff/ff.c   **** 	/* Search file semaphore table */
 628:lib/ff/ff.c   **** 	for (i = be = 0; i < _FS_LOCK; i++) {
 629:lib/ff/ff.c   **** 		if (Files[i].fs) {	/* Existing entry */
 630:lib/ff/ff.c   **** 			if (Files[i].fs == dj->fs &&	 	/* Check if the file matched with an open file */
 631:lib/ff/ff.c   **** 				Files[i].clu == dj->sclust &&
 632:lib/ff/ff.c   **** 				Files[i].idx == dj->index) break;
 633:lib/ff/ff.c   **** 		} else {			/* Blank entry */
 634:lib/ff/ff.c   **** 			be++;
 635:lib/ff/ff.c   **** 		}
 636:lib/ff/ff.c   **** 	}
 637:lib/ff/ff.c   **** 	if (i == _FS_LOCK)	/* The file is not opened */
 638:lib/ff/ff.c   **** 		return (be || acc == 2) ? FR_OK : FR_TOO_MANY_OPEN_FILES;	/* Is there a blank entry for new file?
 639:lib/ff/ff.c   **** 
 640:lib/ff/ff.c   **** 	/* The file has been opened. Reject any open against writing file and all write mode open */
 641:lib/ff/ff.c   **** 	return (acc || Files[i].ctr == 0x100) ? FR_LOCKED : FR_OK;
 642:lib/ff/ff.c   **** }
 643:lib/ff/ff.c   **** 
 644:lib/ff/ff.c   **** 
 645:lib/ff/ff.c   **** static
 646:lib/ff/ff.c   **** int enq_lock (void)	/* Check if an entry is available for a new file */
 647:lib/ff/ff.c   **** {
 648:lib/ff/ff.c   **** 	UINT i;
 649:lib/ff/ff.c   **** 
 650:lib/ff/ff.c   **** 	for (i = 0; i < _FS_LOCK && Files[i].fs; i++) ;
 651:lib/ff/ff.c   **** 	return (i == _FS_LOCK) ? 0 : 1;
 652:lib/ff/ff.c   **** }
 653:lib/ff/ff.c   **** 
 654:lib/ff/ff.c   **** 
 655:lib/ff/ff.c   **** static
 656:lib/ff/ff.c   **** UINT inc_lock (	/* Increment file open counter and returns its index (0:int error) */
 657:lib/ff/ff.c   **** 	DIR* dj,	/* Directory object pointing the file to register or increment */
 658:lib/ff/ff.c   **** 	int acc		/* Desired access mode (0:Read, !0:Write) */
 659:lib/ff/ff.c   **** )
 660:lib/ff/ff.c   **** {
 661:lib/ff/ff.c   **** 	UINT i;
 662:lib/ff/ff.c   **** 
 663:lib/ff/ff.c   **** 
 664:lib/ff/ff.c   **** 	for (i = 0; i < _FS_LOCK; i++) {	/* Find the file */
 665:lib/ff/ff.c   **** 		if (Files[i].fs == dj->fs &&
 666:lib/ff/ff.c   **** 			Files[i].clu == dj->sclust &&
 667:lib/ff/ff.c   **** 			Files[i].idx == dj->index) break;
 668:lib/ff/ff.c   **** 	}
 669:lib/ff/ff.c   **** 
 670:lib/ff/ff.c   **** 	if (i == _FS_LOCK) {				/* Not opened. Register it as new. */
 671:lib/ff/ff.c   **** 		for (i = 0; i < _FS_LOCK && Files[i].fs; i++) ;
 672:lib/ff/ff.c   **** 		if (i == _FS_LOCK) return 0;	/* No space to register (int err) */
 673:lib/ff/ff.c   **** 		Files[i].fs = dj->fs;
 674:lib/ff/ff.c   **** 		Files[i].clu = dj->sclust;
 675:lib/ff/ff.c   **** 		Files[i].idx = dj->index;
 676:lib/ff/ff.c   **** 		Files[i].ctr = 0;
 677:lib/ff/ff.c   **** 	}
 678:lib/ff/ff.c   **** 
 679:lib/ff/ff.c   **** 	if (acc && Files[i].ctr) return 0;	/* Access violation (int err) */
 680:lib/ff/ff.c   **** 
 681:lib/ff/ff.c   **** 	Files[i].ctr = acc ? 0x100 : Files[i].ctr + 1;	/* Set semaphore value */
 682:lib/ff/ff.c   **** 
 683:lib/ff/ff.c   **** 	return i + 1;
 684:lib/ff/ff.c   **** }
 685:lib/ff/ff.c   **** 
 686:lib/ff/ff.c   **** 
 687:lib/ff/ff.c   **** static
 688:lib/ff/ff.c   **** FRESULT dec_lock (	/* Decrement file open counter */
 689:lib/ff/ff.c   **** 	UINT i			/* Semaphore index */
 690:lib/ff/ff.c   **** )
 691:lib/ff/ff.c   **** {
 692:lib/ff/ff.c   **** 	WORD n;
 693:lib/ff/ff.c   **** 	FRESULT res;
 694:lib/ff/ff.c   **** 
 695:lib/ff/ff.c   **** 
 696:lib/ff/ff.c   **** 	if (--i < _FS_LOCK) {
 697:lib/ff/ff.c   **** 		n = Files[i].ctr;
 698:lib/ff/ff.c   **** 		if (n == 0x100) n = 0;
 699:lib/ff/ff.c   **** 		if (n) n--;
 700:lib/ff/ff.c   **** 		Files[i].ctr = n;
 701:lib/ff/ff.c   **** 		if (!n) Files[i].fs = 0;
 702:lib/ff/ff.c   **** 		res = FR_OK;
 703:lib/ff/ff.c   **** 	} else {
 704:lib/ff/ff.c   **** 		res = FR_INT_ERR;
 705:lib/ff/ff.c   **** 	}
 706:lib/ff/ff.c   **** 	return res;
 707:lib/ff/ff.c   **** }
 708:lib/ff/ff.c   **** 
 709:lib/ff/ff.c   **** 
 710:lib/ff/ff.c   **** static
 711:lib/ff/ff.c   **** void clear_lock (	/* Clear lock entries of the volume */
 712:lib/ff/ff.c   **** 	FATFS *fs
 713:lib/ff/ff.c   **** )
 714:lib/ff/ff.c   **** {
 715:lib/ff/ff.c   **** 	UINT i;
 716:lib/ff/ff.c   **** 
 717:lib/ff/ff.c   **** 	for (i = 0; i < _FS_LOCK; i++) {
 718:lib/ff/ff.c   **** 		if (Files[i].fs == fs) Files[i].fs = 0;
 719:lib/ff/ff.c   **** 	}
 720:lib/ff/ff.c   **** }
 721:lib/ff/ff.c   **** #endif
 722:lib/ff/ff.c   **** 
 723:lib/ff/ff.c   **** 
 724:lib/ff/ff.c   **** 
 725:lib/ff/ff.c   **** /*-----------------------------------------------------------------------*/
 726:lib/ff/ff.c   **** /* Move/Flush disk access window                                         */
 727:lib/ff/ff.c   **** /*-----------------------------------------------------------------------*/
 728:lib/ff/ff.c   **** 
 729:lib/ff/ff.c   **** 
 730:lib/ff/ff.c   **** #if !_FS_READONLY
 731:lib/ff/ff.c   **** static
 732:lib/ff/ff.c   **** FRESULT sync_window (
 733:lib/ff/ff.c   **** 	FATFS *fs		/* File system object */
 734:lib/ff/ff.c   **** )
 735:lib/ff/ff.c   **** {
 736:lib/ff/ff.c   **** 	DWORD wsect;
 737:lib/ff/ff.c   **** 	UINT nf;
 738:lib/ff/ff.c   **** 
 739:lib/ff/ff.c   **** 	
 740:lib/ff/ff.c   **** 	if (fs->wflag) {	/* Write back the sector if it is dirty */
 741:lib/ff/ff.c   **** 		wsect = fs->winsect;	/* Current sector number */
 742:lib/ff/ff.c   **** 		if (disk_write(fs->drv, fs->win, wsect, 1) != RES_OK)
 743:lib/ff/ff.c   **** 			return FR_DISK_ERR;
 744:lib/ff/ff.c   **** 		fs->wflag = 0;
 745:lib/ff/ff.c   **** 		if (wsect >= fs->fatbase && wsect < (fs->fatbase + fs->fsize)) {	/* In FAT area? */
 746:lib/ff/ff.c   **** 			for (nf = fs->n_fats; nf >= 2; nf--) {	/* Reflect the change to all FAT copies */
 747:lib/ff/ff.c   **** 				wsect += fs->fsize;
 748:lib/ff/ff.c   **** 				disk_write(fs->drv, fs->win, wsect, 1);
 749:lib/ff/ff.c   **** 			}
 750:lib/ff/ff.c   **** 		}
 751:lib/ff/ff.c   **** 	}
 752:lib/ff/ff.c   **** 	return FR_OK;
 753:lib/ff/ff.c   **** }
 754:lib/ff/ff.c   **** #endif
 755:lib/ff/ff.c   **** 
 756:lib/ff/ff.c   **** 
 757:lib/ff/ff.c   **** static
 758:lib/ff/ff.c   **** FRESULT move_window (
 759:lib/ff/ff.c   **** 	FATFS *fs,		/* File system object */
 760:lib/ff/ff.c   **** 	DWORD sector	/* Sector number to make appearance in the fs->win[] */
 761:lib/ff/ff.c   **** )
 762:lib/ff/ff.c   **** {
 763:lib/ff/ff.c   **** 	if (sector != fs->winsect) {	/* Changed current window */
 764:lib/ff/ff.c   **** #if !_FS_READONLY
 765:lib/ff/ff.c   **** 		if (sync_window(fs) != FR_OK)
 766:lib/ff/ff.c   **** 			return FR_DISK_ERR;
 767:lib/ff/ff.c   **** #endif
 768:lib/ff/ff.c   **** 		if (disk_read(fs->drv, fs->win, sector, 1) != RES_OK)
 769:lib/ff/ff.c   **** 			return FR_DISK_ERR;
 770:lib/ff/ff.c   **** 		fs->winsect = sector;
 771:lib/ff/ff.c   **** 	}
 772:lib/ff/ff.c   **** 
 773:lib/ff/ff.c   **** 	return FR_OK;
 774:lib/ff/ff.c   **** }
 775:lib/ff/ff.c   **** 
 776:lib/ff/ff.c   **** 
 777:lib/ff/ff.c   **** 
 778:lib/ff/ff.c   **** 
 779:lib/ff/ff.c   **** /*-----------------------------------------------------------------------*/
 780:lib/ff/ff.c   **** /* Synchronize file system and strage device                             */
 781:lib/ff/ff.c   **** /*-----------------------------------------------------------------------*/
 782:lib/ff/ff.c   **** #if !_FS_READONLY
 783:lib/ff/ff.c   **** static
 784:lib/ff/ff.c   **** FRESULT sync_fs (	/* FR_OK: successful, FR_DISK_ERR: failed */
 785:lib/ff/ff.c   **** 	FATFS *fs		/* File system object */
 786:lib/ff/ff.c   **** )
 787:lib/ff/ff.c   **** {
 788:lib/ff/ff.c   **** 	FRESULT res;
 789:lib/ff/ff.c   **** 
 790:lib/ff/ff.c   **** 
 791:lib/ff/ff.c   **** 	res = sync_window(fs);
 792:lib/ff/ff.c   **** 	if (res == FR_OK) {
 793:lib/ff/ff.c   **** 		/* Update FSInfo sector if needed */
 794:lib/ff/ff.c   **** 		if (fs->fs_type == FS_FAT32 && fs->fsi_flag) {
 795:lib/ff/ff.c   **** 			fs->winsect = 0;
 796:lib/ff/ff.c   **** 			/* Create FSInfo structure */
 797:lib/ff/ff.c   **** 			mem_set(fs->win, 0, 512);
 798:lib/ff/ff.c   **** 			ST_WORD(fs->win+BS_55AA, 0xAA55);
 799:lib/ff/ff.c   **** 			ST_DWORD(fs->win+FSI_LeadSig, 0x41615252);
 800:lib/ff/ff.c   **** 			ST_DWORD(fs->win+FSI_StrucSig, 0x61417272);
 801:lib/ff/ff.c   **** 			ST_DWORD(fs->win+FSI_Free_Count, fs->free_clust);
 802:lib/ff/ff.c   **** 			ST_DWORD(fs->win+FSI_Nxt_Free, fs->last_clust);
 803:lib/ff/ff.c   **** 			/* Write it into the FSInfo sector */
 804:lib/ff/ff.c   **** 			disk_write(fs->drv, fs->win, fs->fsi_sector, 1);
 805:lib/ff/ff.c   **** 			fs->fsi_flag = 0;
 806:lib/ff/ff.c   **** 		}
 807:lib/ff/ff.c   **** 		/* Make sure that no pending write process in the physical drive */
 808:lib/ff/ff.c   **** 		if (disk_ioctl(fs->drv, CTRL_SYNC, 0) != RES_OK)
 809:lib/ff/ff.c   **** 			res = FR_DISK_ERR;
 810:lib/ff/ff.c   **** 	}
 811:lib/ff/ff.c   **** 
 812:lib/ff/ff.c   **** 	return res;
 813:lib/ff/ff.c   **** }
 814:lib/ff/ff.c   **** #endif
 815:lib/ff/ff.c   **** 
 816:lib/ff/ff.c   **** 
 817:lib/ff/ff.c   **** 
 818:lib/ff/ff.c   **** 
 819:lib/ff/ff.c   **** /*-----------------------------------------------------------------------*/
 820:lib/ff/ff.c   **** /* Get sector# from cluster#                                             */
 821:lib/ff/ff.c   **** /*-----------------------------------------------------------------------*/
 822:lib/ff/ff.c   **** 
 823:lib/ff/ff.c   **** 
 824:lib/ff/ff.c   **** DWORD clust2sect (	/* !=0: Sector number, 0: Failed - invalid cluster# */
 825:lib/ff/ff.c   **** 	FATFS *fs,		/* File system object */
 826:lib/ff/ff.c   **** 	DWORD clst		/* Cluster# to be converted */
 827:lib/ff/ff.c   **** )
 828:lib/ff/ff.c   **** {
 829:lib/ff/ff.c   **** 	clst -= 2;
 830:lib/ff/ff.c   **** 	if (clst >= (fs->n_fatent - 2)) return 0;		/* Invalid cluster# */
 831:lib/ff/ff.c   **** 	return clst * fs->csize + fs->database;
 832:lib/ff/ff.c   **** }
 833:lib/ff/ff.c   **** 
 834:lib/ff/ff.c   **** 
 835:lib/ff/ff.c   **** 
 836:lib/ff/ff.c   **** 
 837:lib/ff/ff.c   **** /*-----------------------------------------------------------------------*/
 838:lib/ff/ff.c   **** /* FAT access - Read value of a FAT entry                                */
 839:lib/ff/ff.c   **** /*-----------------------------------------------------------------------*/
 840:lib/ff/ff.c   **** 
 841:lib/ff/ff.c   **** 
 842:lib/ff/ff.c   **** DWORD get_fat (	/* 0xFFFFFFFF:Disk error, 1:Internal error, Else:Cluster status */
 843:lib/ff/ff.c   **** 	FATFS *fs,	/* File system object */
 844:lib/ff/ff.c   **** 	DWORD clst	/* Cluster# to get the link information */
 845:lib/ff/ff.c   **** )
 846:lib/ff/ff.c   **** {
 847:lib/ff/ff.c   **** 	UINT wc, bc;
 848:lib/ff/ff.c   **** 	BYTE *p;
 849:lib/ff/ff.c   **** 
 850:lib/ff/ff.c   **** 
 851:lib/ff/ff.c   **** 	if (clst < 2 || clst >= fs->n_fatent)	/* Check range */
 852:lib/ff/ff.c   **** 		return 1;
 853:lib/ff/ff.c   **** 
 854:lib/ff/ff.c   **** 	switch (fs->fs_type) {
 855:lib/ff/ff.c   **** 	case FS_FAT12 :
 856:lib/ff/ff.c   **** 		bc = (UINT)clst; bc += bc / 2;
 857:lib/ff/ff.c   **** 		if (move_window(fs, fs->fatbase + (bc / SS(fs)))) break;
 858:lib/ff/ff.c   **** 		wc = fs->win[bc % SS(fs)]; bc++;
 859:lib/ff/ff.c   **** 		if (move_window(fs, fs->fatbase + (bc / SS(fs)))) break;
 860:lib/ff/ff.c   **** 		wc |= fs->win[bc % SS(fs)] << 8;
 861:lib/ff/ff.c   **** 		return (clst & 1) ? (wc >> 4) : (wc & 0xFFF);
 862:lib/ff/ff.c   **** 
 863:lib/ff/ff.c   **** 	case FS_FAT16 :
 864:lib/ff/ff.c   **** 		if (move_window(fs, fs->fatbase + (clst / (SS(fs) / 2)))) break;
 865:lib/ff/ff.c   **** 		p = &fs->win[clst * 2 % SS(fs)];
 866:lib/ff/ff.c   **** 		return LD_WORD(p);
 867:lib/ff/ff.c   **** 
 868:lib/ff/ff.c   **** 	case FS_FAT32 :
 869:lib/ff/ff.c   **** 		if (move_window(fs, fs->fatbase + (clst / (SS(fs) / 4)))) break;
 870:lib/ff/ff.c   **** 		p = &fs->win[clst * 4 % SS(fs)];
 871:lib/ff/ff.c   **** 		return LD_DWORD(p) & 0x0FFFFFFF;
 872:lib/ff/ff.c   **** 	}
 873:lib/ff/ff.c   **** 
 874:lib/ff/ff.c   **** 	return 0xFFFFFFFF;	/* An error occurred at the disk I/O layer */
 875:lib/ff/ff.c   **** }
 876:lib/ff/ff.c   **** 
 877:lib/ff/ff.c   **** 
 878:lib/ff/ff.c   **** 
 879:lib/ff/ff.c   **** 
 880:lib/ff/ff.c   **** /*-----------------------------------------------------------------------*/
 881:lib/ff/ff.c   **** /* FAT access - Change value of a FAT entry                              */
 882:lib/ff/ff.c   **** /*-----------------------------------------------------------------------*/
 883:lib/ff/ff.c   **** #if !_FS_READONLY
 884:lib/ff/ff.c   **** 
 885:lib/ff/ff.c   **** FRESULT put_fat (
 886:lib/ff/ff.c   **** 	FATFS *fs,	/* File system object */
 887:lib/ff/ff.c   **** 	DWORD clst,	/* Cluster# to be changed in range of 2 to fs->n_fatent - 1 */
 888:lib/ff/ff.c   **** 	DWORD val	/* New value to mark the cluster */
 889:lib/ff/ff.c   **** )
 890:lib/ff/ff.c   **** {
 891:lib/ff/ff.c   **** 	UINT bc;
 892:lib/ff/ff.c   **** 	BYTE *p;
 893:lib/ff/ff.c   **** 	FRESULT res;
 894:lib/ff/ff.c   **** 
 895:lib/ff/ff.c   **** 
 896:lib/ff/ff.c   **** 	if (clst < 2 || clst >= fs->n_fatent) {	/* Check range */
 897:lib/ff/ff.c   **** 		res = FR_INT_ERR;
 898:lib/ff/ff.c   **** 
 899:lib/ff/ff.c   **** 	} else {
 900:lib/ff/ff.c   **** 		switch (fs->fs_type) {
 901:lib/ff/ff.c   **** 		case FS_FAT12 :
 902:lib/ff/ff.c   **** 			bc = (UINT)clst; bc += bc / 2;
 903:lib/ff/ff.c   **** 			res = move_window(fs, fs->fatbase + (bc / SS(fs)));
 904:lib/ff/ff.c   **** 			if (res != FR_OK) break;
 905:lib/ff/ff.c   **** 			p = &fs->win[bc % SS(fs)];
 906:lib/ff/ff.c   **** 			*p = (clst & 1) ? ((*p & 0x0F) | ((BYTE)val << 4)) : (BYTE)val;
 907:lib/ff/ff.c   **** 			bc++;
 908:lib/ff/ff.c   **** 			fs->wflag = 1;
 909:lib/ff/ff.c   **** 			res = move_window(fs, fs->fatbase + (bc / SS(fs)));
 910:lib/ff/ff.c   **** 			if (res != FR_OK) break;
 911:lib/ff/ff.c   **** 			p = &fs->win[bc % SS(fs)];
 912:lib/ff/ff.c   **** 			*p = (clst & 1) ? (BYTE)(val >> 4) : ((*p & 0xF0) | ((BYTE)(val >> 8) & 0x0F));
 913:lib/ff/ff.c   **** 			break;
 914:lib/ff/ff.c   **** 
 915:lib/ff/ff.c   **** 		case FS_FAT16 :
 916:lib/ff/ff.c   **** 			res = move_window(fs, fs->fatbase + (clst / (SS(fs) / 2)));
 917:lib/ff/ff.c   **** 			if (res != FR_OK) break;
 918:lib/ff/ff.c   **** 			p = &fs->win[clst * 2 % SS(fs)];
 919:lib/ff/ff.c   **** 			ST_WORD(p, (WORD)val);
 920:lib/ff/ff.c   **** 			break;
 921:lib/ff/ff.c   **** 
 922:lib/ff/ff.c   **** 		case FS_FAT32 :
 923:lib/ff/ff.c   **** 			res = move_window(fs, fs->fatbase + (clst / (SS(fs) / 4)));
 924:lib/ff/ff.c   **** 			if (res != FR_OK) break;
 925:lib/ff/ff.c   **** 			p = &fs->win[clst * 4 % SS(fs)];
 926:lib/ff/ff.c   **** 			val |= LD_DWORD(p) & 0xF0000000;
 927:lib/ff/ff.c   **** 			ST_DWORD(p, val);
 928:lib/ff/ff.c   **** 			break;
 929:lib/ff/ff.c   **** 
 930:lib/ff/ff.c   **** 		default :
 931:lib/ff/ff.c   **** 			res = FR_INT_ERR;
 932:lib/ff/ff.c   **** 		}
 933:lib/ff/ff.c   **** 		fs->wflag = 1;
 934:lib/ff/ff.c   **** 	}
 935:lib/ff/ff.c   **** 
 936:lib/ff/ff.c   **** 	return res;
 937:lib/ff/ff.c   **** }
 938:lib/ff/ff.c   **** #endif /* !_FS_READONLY */
 939:lib/ff/ff.c   **** 
 940:lib/ff/ff.c   **** 
 941:lib/ff/ff.c   **** 
 942:lib/ff/ff.c   **** 
 943:lib/ff/ff.c   **** /*-----------------------------------------------------------------------*/
 944:lib/ff/ff.c   **** /* FAT handling - Remove a cluster chain                                 */
 945:lib/ff/ff.c   **** /*-----------------------------------------------------------------------*/
 946:lib/ff/ff.c   **** #if !_FS_READONLY
 947:lib/ff/ff.c   **** static
 948:lib/ff/ff.c   **** FRESULT remove_chain (
 949:lib/ff/ff.c   **** 	FATFS *fs,			/* File system object */
 950:lib/ff/ff.c   **** 	DWORD clst			/* Cluster# to remove a chain from */
 951:lib/ff/ff.c   **** )
 952:lib/ff/ff.c   **** {
 953:lib/ff/ff.c   **** 	FRESULT res;
 954:lib/ff/ff.c   **** 	DWORD nxt;
 955:lib/ff/ff.c   **** #if _USE_ERASE
 956:lib/ff/ff.c   **** 	DWORD scl = clst, ecl = clst, rt[2];
 957:lib/ff/ff.c   **** #endif
 958:lib/ff/ff.c   **** 
 959:lib/ff/ff.c   **** 	if (clst < 2 || clst >= fs->n_fatent) {	/* Check range */
 960:lib/ff/ff.c   **** 		res = FR_INT_ERR;
 961:lib/ff/ff.c   **** 
 962:lib/ff/ff.c   **** 	} else {
 963:lib/ff/ff.c   **** 		res = FR_OK;
 964:lib/ff/ff.c   **** 		while (clst < fs->n_fatent) {			/* Not a last link? */
 965:lib/ff/ff.c   **** 			nxt = get_fat(fs, clst);			/* Get cluster status */
 966:lib/ff/ff.c   **** 			if (nxt == 0) break;				/* Empty cluster? */
 967:lib/ff/ff.c   **** 			if (nxt == 1) { res = FR_INT_ERR; break; }	/* Internal error? */
 968:lib/ff/ff.c   **** 			if (nxt == 0xFFFFFFFF) { res = FR_DISK_ERR; break; }	/* Disk error? */
 969:lib/ff/ff.c   **** 			res = put_fat(fs, clst, 0);			/* Mark the cluster "empty" */
 970:lib/ff/ff.c   **** 			if (res != FR_OK) break;
 971:lib/ff/ff.c   **** 			if (fs->free_clust != 0xFFFFFFFF) {	/* Update FSInfo */
 972:lib/ff/ff.c   **** 				fs->free_clust++;
 973:lib/ff/ff.c   **** 				fs->fsi_flag = 1;
 974:lib/ff/ff.c   **** 			}
 975:lib/ff/ff.c   **** #if _USE_ERASE
 976:lib/ff/ff.c   **** 			if (ecl + 1 == nxt) {	/* Is next cluster contiguous? */
 977:lib/ff/ff.c   **** 				ecl = nxt;
 978:lib/ff/ff.c   **** 			} else {				/* End of contiguous clusters */ 
 979:lib/ff/ff.c   **** 				rt[0] = clust2sect(fs, scl);					/* Start sector */
 980:lib/ff/ff.c   **** 				rt[1] = clust2sect(fs, ecl) + fs->csize - 1;	/* End sector */
 981:lib/ff/ff.c   **** 				disk_ioctl(fs->drv, CTRL_ERASE_SECTOR, rt);		/* Erase the block */
 982:lib/ff/ff.c   **** 				scl = ecl = nxt;
 983:lib/ff/ff.c   **** 			}
 984:lib/ff/ff.c   **** #endif
 985:lib/ff/ff.c   **** 			clst = nxt;	/* Next cluster */
 986:lib/ff/ff.c   **** 		}
 987:lib/ff/ff.c   **** 	}
 988:lib/ff/ff.c   **** 
 989:lib/ff/ff.c   **** 	return res;
 990:lib/ff/ff.c   **** }
 991:lib/ff/ff.c   **** #endif
 992:lib/ff/ff.c   **** 
 993:lib/ff/ff.c   **** 
 994:lib/ff/ff.c   **** 
 995:lib/ff/ff.c   **** 
 996:lib/ff/ff.c   **** /*-----------------------------------------------------------------------*/
 997:lib/ff/ff.c   **** /* FAT handling - Stretch or Create a cluster chain                      */
 998:lib/ff/ff.c   **** /*-----------------------------------------------------------------------*/
 999:lib/ff/ff.c   **** #if !_FS_READONLY
1000:lib/ff/ff.c   **** static
1001:lib/ff/ff.c   **** DWORD create_chain (	/* 0:No free cluster, 1:Internal error, 0xFFFFFFFF:Disk error, >=2:New cluster
1002:lib/ff/ff.c   **** 	FATFS *fs,			/* File system object */
1003:lib/ff/ff.c   **** 	DWORD clst			/* Cluster# to stretch. 0 means create a new chain. */
1004:lib/ff/ff.c   **** )
1005:lib/ff/ff.c   **** {
1006:lib/ff/ff.c   **** 	DWORD cs, ncl, scl;
1007:lib/ff/ff.c   **** 	FRESULT res;
1008:lib/ff/ff.c   **** 
1009:lib/ff/ff.c   **** 
1010:lib/ff/ff.c   **** 	if (clst == 0) {		/* Create a new chain */
1011:lib/ff/ff.c   **** 		scl = fs->last_clust;			/* Get suggested start point */
1012:lib/ff/ff.c   **** 		if (!scl || scl >= fs->n_fatent) scl = 1;
1013:lib/ff/ff.c   **** 	}
1014:lib/ff/ff.c   **** 	else {					/* Stretch the current chain */
1015:lib/ff/ff.c   **** 		cs = get_fat(fs, clst);			/* Check the cluster status */
1016:lib/ff/ff.c   **** 		if (cs < 2) return 1;			/* It is an invalid cluster */
1017:lib/ff/ff.c   **** 		if (cs < fs->n_fatent) return cs;	/* It is already followed by next cluster */
1018:lib/ff/ff.c   **** 		scl = clst;
1019:lib/ff/ff.c   **** 	}
1020:lib/ff/ff.c   **** 
1021:lib/ff/ff.c   **** 	ncl = scl;				/* Start cluster */
1022:lib/ff/ff.c   **** 	for (;;) {
1023:lib/ff/ff.c   **** 		ncl++;							/* Next cluster */
1024:lib/ff/ff.c   **** 		if (ncl >= fs->n_fatent) {		/* Wrap around */
1025:lib/ff/ff.c   **** 			ncl = 2;
1026:lib/ff/ff.c   **** 			if (ncl > scl) return 0;	/* No free cluster */
1027:lib/ff/ff.c   **** 		}
1028:lib/ff/ff.c   **** 		cs = get_fat(fs, ncl);			/* Get the cluster status */
1029:lib/ff/ff.c   **** 		if (cs == 0) break;				/* Found a free cluster */
1030:lib/ff/ff.c   **** 		if (cs == 0xFFFFFFFF || cs == 1)/* An error occurred */
1031:lib/ff/ff.c   **** 			return cs;
1032:lib/ff/ff.c   **** 		if (ncl == scl) return 0;		/* No free cluster */
1033:lib/ff/ff.c   **** 	}
1034:lib/ff/ff.c   **** 
1035:lib/ff/ff.c   **** 	res = put_fat(fs, ncl, 0x0FFFFFFF);	/* Mark the new cluster "last link" */
1036:lib/ff/ff.c   **** 	if (res == FR_OK && clst != 0) {
1037:lib/ff/ff.c   **** 		res = put_fat(fs, clst, ncl);	/* Link it to the previous one if needed */
1038:lib/ff/ff.c   **** 	}
1039:lib/ff/ff.c   **** 	if (res == FR_OK) {
1040:lib/ff/ff.c   **** 		fs->last_clust = ncl;			/* Update FSINFO */
1041:lib/ff/ff.c   **** 		if (fs->free_clust != 0xFFFFFFFF) {
1042:lib/ff/ff.c   **** 			fs->free_clust--;
1043:lib/ff/ff.c   **** 			fs->fsi_flag = 1;
1044:lib/ff/ff.c   **** 		}
1045:lib/ff/ff.c   **** 	} else {
1046:lib/ff/ff.c   **** 		ncl = (res == FR_DISK_ERR) ? 0xFFFFFFFF : 1;
1047:lib/ff/ff.c   **** 	}
1048:lib/ff/ff.c   **** 
1049:lib/ff/ff.c   **** 	return ncl;		/* Return new cluster number or error code */
1050:lib/ff/ff.c   **** }
1051:lib/ff/ff.c   **** #endif /* !_FS_READONLY */
1052:lib/ff/ff.c   **** 
1053:lib/ff/ff.c   **** 
1054:lib/ff/ff.c   **** 
1055:lib/ff/ff.c   **** /*-----------------------------------------------------------------------*/
1056:lib/ff/ff.c   **** /* FAT handling - Convert offset into cluster with link map table        */
1057:lib/ff/ff.c   **** /*-----------------------------------------------------------------------*/
1058:lib/ff/ff.c   **** 
1059:lib/ff/ff.c   **** #if _USE_FASTSEEK
1060:lib/ff/ff.c   **** static
1061:lib/ff/ff.c   **** DWORD clmt_clust (	/* <2:Error, >=2:Cluster number */
1062:lib/ff/ff.c   **** 	FIL* fp,		/* Pointer to the file object */
1063:lib/ff/ff.c   **** 	DWORD ofs		/* File offset to be converted to cluster# */
1064:lib/ff/ff.c   **** )
1065:lib/ff/ff.c   **** {
 115              		.loc 1 1065 0
 116              		.cfi_startproc
 117              		@ args = 0, pretend = 0, frame = 0
 118              		@ frame_needed = 0, uses_anonymous_args = 0
 119              		@ link register save eliminated.
 120              	.LVL9:
1066:lib/ff/ff.c   **** 	DWORD cl, ncl, *tbl;
1067:lib/ff/ff.c   **** 
1068:lib/ff/ff.c   **** 
1069:lib/ff/ff.c   **** 	tbl = fp->cltbl + 1;	/* Top of CLMT */
 121              		.loc 1 1069 0
 122 0000 436A     		ldr	r3, [r0, #36]
 123 0002 0433     		adds	r3, r3, #4
 124              	.LVL10:
1070:lib/ff/ff.c   **** 	cl = ofs / SS(fp->fs) / fp->fs->csize;	/* Cluster order from top of the file */
 125              		.loc 1 1070 0
 126 0004 490A     		lsrs	r1, r1, #9
 127              	.LVL11:
 128 0006 0268     		ldr	r2, [r0, #0]
 129 0008 9078     		ldrb	r0, [r2, #2]	@ zero_extendqisi2
 130              	.LVL12:
 131 000a B1FBF0F1 		udiv	r1, r1, r0
 132              	.LVL13:
 133              	.L16:
1071:lib/ff/ff.c   **** 	for (;;) {
1072:lib/ff/ff.c   **** 		ncl = *tbl++;			/* Number of cluters in the fragment */
 134              		.loc 1 1072 0
 135 000e 1868     		ldr	r0, [r3, #0]
 136              	.LVL14:
1073:lib/ff/ff.c   **** 		if (!ncl) return 0;		/* End of table? (error) */
 137              		.loc 1 1073 0
 138 0010 30B1     		cbz	r0, .L14
1074:lib/ff/ff.c   **** 		if (cl < ncl) break;	/* In this fragment? */
 139              		.loc 1 1074 0
 140 0012 8142     		cmp	r1, r0
 141 0014 02D3     		bcc	.L15
1075:lib/ff/ff.c   **** 		cl -= ncl; tbl++;		/* Next fragment */
 142              		.loc 1 1075 0
 143 0016 091A     		subs	r1, r1, r0
 144              	.LVL15:
1061:lib/ff/ff.c   **** 	FIL* fp,		/* Pointer to the file object */
 145              		.loc 1 1061 0
 146 0018 0833     		adds	r3, r3, #8
 147              	.LVL16:
1076:lib/ff/ff.c   **** 	}
 148              		.loc 1 1076 0
 149 001a F8E7     		b	.L16
 150              	.LVL17:
 151              	.L15:
1077:lib/ff/ff.c   **** 	return cl + *tbl;	/* Return the cluster number */
 152              		.loc 1 1077 0
 153 001c 5B68     		ldr	r3, [r3, #4]
 154              	.LVL18:
 155 001e C818     		adds	r0, r1, r3
 156              	.LVL19:
 157              	.L14:
1078:lib/ff/ff.c   **** }
 158              		.loc 1 1078 0
 159 0020 7047     		bx	lr
 160              		.cfi_endproc
 161              	.LFE12:
 163              		.section	.text.get_fileinfo,"ax",%progbits
 164              		.align	1
 165              		.thumb
 166              		.thumb_func
 168              	get_fileinfo:
 169              	.LFB23:
1079:lib/ff/ff.c   **** #endif	/* _USE_FASTSEEK */
1080:lib/ff/ff.c   **** 
1081:lib/ff/ff.c   **** 
1082:lib/ff/ff.c   **** 
1083:lib/ff/ff.c   **** /*-----------------------------------------------------------------------*/
1084:lib/ff/ff.c   **** /* Directory handling - Set directory index                              */
1085:lib/ff/ff.c   **** /*-----------------------------------------------------------------------*/
1086:lib/ff/ff.c   **** 
1087:lib/ff/ff.c   **** static
1088:lib/ff/ff.c   **** FRESULT dir_sdi (
1089:lib/ff/ff.c   **** 	DIR *dj,		/* Pointer to directory object */
1090:lib/ff/ff.c   **** 	WORD idx		/* Index of directory table */
1091:lib/ff/ff.c   **** )
1092:lib/ff/ff.c   **** {
1093:lib/ff/ff.c   **** 	DWORD clst;
1094:lib/ff/ff.c   **** 	WORD ic;
1095:lib/ff/ff.c   **** 
1096:lib/ff/ff.c   **** 
1097:lib/ff/ff.c   **** 	dj->index = idx;
1098:lib/ff/ff.c   **** 	clst = dj->sclust;
1099:lib/ff/ff.c   **** 	if (clst == 1 || clst >= dj->fs->n_fatent)	/* Check start cluster range */
1100:lib/ff/ff.c   **** 		return FR_INT_ERR;
1101:lib/ff/ff.c   **** 	if (!clst && dj->fs->fs_type == FS_FAT32)	/* Replace cluster# 0 with root cluster# if in FAT32 */
1102:lib/ff/ff.c   **** 		clst = dj->fs->dirbase;
1103:lib/ff/ff.c   **** 
1104:lib/ff/ff.c   **** 	if (clst == 0) {	/* Static table (root-dir in FAT12/16) */
1105:lib/ff/ff.c   **** 		dj->clust = clst;
1106:lib/ff/ff.c   **** 		if (idx >= dj->fs->n_rootdir)		/* Index is out of range */
1107:lib/ff/ff.c   **** 			return FR_INT_ERR;
1108:lib/ff/ff.c   **** 		dj->sect = dj->fs->dirbase + idx / (SS(dj->fs) / SZ_DIR);	/* Sector# */
1109:lib/ff/ff.c   **** 	}
1110:lib/ff/ff.c   **** 	else {				/* Dynamic table (sub-dirs or root-dir in FAT32) */
1111:lib/ff/ff.c   **** 		ic = SS(dj->fs) / SZ_DIR * dj->fs->csize;	/* Entries per cluster */
1112:lib/ff/ff.c   **** 		while (idx >= ic) {	/* Follow cluster chain */
1113:lib/ff/ff.c   **** 			clst = get_fat(dj->fs, clst);				/* Get next cluster */
1114:lib/ff/ff.c   **** 			if (clst == 0xFFFFFFFF) return FR_DISK_ERR;	/* Disk error */
1115:lib/ff/ff.c   **** 			if (clst < 2 || clst >= dj->fs->n_fatent)	/* Reached to end of table or int error */
1116:lib/ff/ff.c   **** 				return FR_INT_ERR;
1117:lib/ff/ff.c   **** 			idx -= ic;
1118:lib/ff/ff.c   **** 		}
1119:lib/ff/ff.c   **** 		dj->clust = clst;
1120:lib/ff/ff.c   **** 		dj->sect = clust2sect(dj->fs, clst) + idx / (SS(dj->fs) / SZ_DIR);	/* Sector# */
1121:lib/ff/ff.c   **** 	}
1122:lib/ff/ff.c   **** 
1123:lib/ff/ff.c   **** 	dj->dir = dj->fs->win + (idx % (SS(dj->fs) / SZ_DIR)) * SZ_DIR;	/* Ptr to the entry in the sector 
1124:lib/ff/ff.c   **** 
1125:lib/ff/ff.c   **** 	return FR_OK;	/* Seek succeeded */
1126:lib/ff/ff.c   **** }
1127:lib/ff/ff.c   **** 
1128:lib/ff/ff.c   **** 
1129:lib/ff/ff.c   **** 
1130:lib/ff/ff.c   **** 
1131:lib/ff/ff.c   **** /*-----------------------------------------------------------------------*/
1132:lib/ff/ff.c   **** /* Directory handling - Move directory table index next                  */
1133:lib/ff/ff.c   **** /*-----------------------------------------------------------------------*/
1134:lib/ff/ff.c   **** 
1135:lib/ff/ff.c   **** static
1136:lib/ff/ff.c   **** FRESULT dir_next (	/* FR_OK:Succeeded, FR_NO_FILE:End of table, FR_DENIED:Could not stretch */
1137:lib/ff/ff.c   **** 	DIR *dj,		/* Pointer to the directory object */
1138:lib/ff/ff.c   **** 	int stretch		/* 0: Do not stretch table, 1: Stretch table if needed */
1139:lib/ff/ff.c   **** )
1140:lib/ff/ff.c   **** {
1141:lib/ff/ff.c   **** 	DWORD clst;
1142:lib/ff/ff.c   **** 	WORD i;
1143:lib/ff/ff.c   **** 
1144:lib/ff/ff.c   **** 
1145:lib/ff/ff.c   **** 	stretch = stretch;		/* To suppress warning on read-only cfg. */
1146:lib/ff/ff.c   **** 	i = dj->index + 1;
1147:lib/ff/ff.c   **** 	if (!i || !dj->sect)	/* Report EOT when index has reached 65535 */
1148:lib/ff/ff.c   **** 		return FR_NO_FILE;
1149:lib/ff/ff.c   **** 
1150:lib/ff/ff.c   **** 	if (!(i % (SS(dj->fs) / SZ_DIR))) {	/* Sector changed? */
1151:lib/ff/ff.c   **** 		dj->sect++;					/* Next sector */
1152:lib/ff/ff.c   **** 
1153:lib/ff/ff.c   **** 		if (dj->clust == 0) {	/* Static table */
1154:lib/ff/ff.c   **** 			if (i >= dj->fs->n_rootdir)	/* Report EOT when end of table */
1155:lib/ff/ff.c   **** 				return FR_NO_FILE;
1156:lib/ff/ff.c   **** 		}
1157:lib/ff/ff.c   **** 		else {					/* Dynamic table */
1158:lib/ff/ff.c   **** 			if (((i / (SS(dj->fs) / SZ_DIR)) & (dj->fs->csize - 1)) == 0) {	/* Cluster changed? */
1159:lib/ff/ff.c   **** 				clst = get_fat(dj->fs, dj->clust);				/* Get next cluster */
1160:lib/ff/ff.c   **** 				if (clst <= 1) return FR_INT_ERR;
1161:lib/ff/ff.c   **** 				if (clst == 0xFFFFFFFF) return FR_DISK_ERR;
1162:lib/ff/ff.c   **** 				if (clst >= dj->fs->n_fatent) {					/* When it reached end of dynamic table */
1163:lib/ff/ff.c   **** #if !_FS_READONLY
1164:lib/ff/ff.c   **** 					BYTE c;
1165:lib/ff/ff.c   **** 					if (!stretch) return FR_NO_FILE;			/* When do not stretch, report EOT */
1166:lib/ff/ff.c   **** 					clst = create_chain(dj->fs, dj->clust);		/* Stretch cluster chain */
1167:lib/ff/ff.c   **** 					if (clst == 0) return FR_DENIED;			/* No free cluster */
1168:lib/ff/ff.c   **** 					if (clst == 1) return FR_INT_ERR;
1169:lib/ff/ff.c   **** 					if (clst == 0xFFFFFFFF) return FR_DISK_ERR;
1170:lib/ff/ff.c   **** 					/* Clean-up stretched table */
1171:lib/ff/ff.c   **** 					if (sync_window(dj->fs)) return FR_DISK_ERR;	/* Flush active window */
1172:lib/ff/ff.c   **** 					mem_set(dj->fs->win, 0, SS(dj->fs));			/* Clear window buffer */
1173:lib/ff/ff.c   **** 					dj->fs->winsect = clust2sect(dj->fs, clst);	/* Cluster start sector */
1174:lib/ff/ff.c   **** 					for (c = 0; c < dj->fs->csize; c++) {		/* Fill the new cluster with 0 */
1175:lib/ff/ff.c   **** 						dj->fs->wflag = 1;
1176:lib/ff/ff.c   **** 						if (sync_window(dj->fs)) return FR_DISK_ERR;
1177:lib/ff/ff.c   **** 						dj->fs->winsect++;
1178:lib/ff/ff.c   **** 					}
1179:lib/ff/ff.c   **** 					dj->fs->winsect -= c;						/* Rewind window address */
1180:lib/ff/ff.c   **** #else
1181:lib/ff/ff.c   **** 					return FR_NO_FILE;			/* Report EOT */
1182:lib/ff/ff.c   **** #endif
1183:lib/ff/ff.c   **** 				}
1184:lib/ff/ff.c   **** 				dj->clust = clst;				/* Initialize data for new cluster */
1185:lib/ff/ff.c   **** 				dj->sect = clust2sect(dj->fs, clst);
1186:lib/ff/ff.c   **** 			}
1187:lib/ff/ff.c   **** 		}
1188:lib/ff/ff.c   **** 	}
1189:lib/ff/ff.c   **** 
1190:lib/ff/ff.c   **** 	dj->index = i;
1191:lib/ff/ff.c   **** 	dj->dir = dj->fs->win + (i % (SS(dj->fs) / SZ_DIR)) * SZ_DIR;
1192:lib/ff/ff.c   **** 
1193:lib/ff/ff.c   **** 	return FR_OK;
1194:lib/ff/ff.c   **** }
1195:lib/ff/ff.c   **** 
1196:lib/ff/ff.c   **** 
1197:lib/ff/ff.c   **** 
1198:lib/ff/ff.c   **** 
1199:lib/ff/ff.c   **** /*-----------------------------------------------------------------------*/
1200:lib/ff/ff.c   **** /* Directory handling - Reserve directory entry                          */
1201:lib/ff/ff.c   **** /*-----------------------------------------------------------------------*/
1202:lib/ff/ff.c   **** 
1203:lib/ff/ff.c   **** #if !_FS_READONLY
1204:lib/ff/ff.c   **** static
1205:lib/ff/ff.c   **** FRESULT dir_alloc (
1206:lib/ff/ff.c   **** 	DIR* dj,	/* Pointer to the directory object */
1207:lib/ff/ff.c   **** 	UINT nent	/* Number of contiguous entries to allocate (1-21) */
1208:lib/ff/ff.c   **** )
1209:lib/ff/ff.c   **** {
1210:lib/ff/ff.c   **** 	FRESULT res;
1211:lib/ff/ff.c   **** 	UINT n;
1212:lib/ff/ff.c   **** 
1213:lib/ff/ff.c   **** 
1214:lib/ff/ff.c   **** 	res = dir_sdi(dj, 0);
1215:lib/ff/ff.c   **** 	if (res == FR_OK) {
1216:lib/ff/ff.c   **** 		n = 0;
1217:lib/ff/ff.c   **** 		do {
1218:lib/ff/ff.c   **** 			res = move_window(dj->fs, dj->sect);
1219:lib/ff/ff.c   **** 			if (res != FR_OK) break;
1220:lib/ff/ff.c   **** 			if (dj->dir[0] == DDE || dj->dir[0] == 0) {	/* Is it a blank entry? */
1221:lib/ff/ff.c   **** 				if (++n == nent) break;	/* A block of contiguous entry is found */
1222:lib/ff/ff.c   **** 			} else {
1223:lib/ff/ff.c   **** 				n = 0;					/* Not a blank entry. Restart to search */
1224:lib/ff/ff.c   **** 			}
1225:lib/ff/ff.c   **** 			res = dir_next(dj, 1);		/* Next entry with table stretch enabled */
1226:lib/ff/ff.c   **** 		} while (res == FR_OK);
1227:lib/ff/ff.c   **** 	}
1228:lib/ff/ff.c   ****     if (res == FR_NO_FILE) res = FR_DENIED;
1229:lib/ff/ff.c   ****     return res;
1230:lib/ff/ff.c   **** }
1231:lib/ff/ff.c   **** #endif
1232:lib/ff/ff.c   **** 
1233:lib/ff/ff.c   **** 
1234:lib/ff/ff.c   **** 
1235:lib/ff/ff.c   **** /*-----------------------------------------------------------------------*/
1236:lib/ff/ff.c   **** /* Directory handling - Load/Store start cluster number                  */
1237:lib/ff/ff.c   **** /*-----------------------------------------------------------------------*/
1238:lib/ff/ff.c   **** 
1239:lib/ff/ff.c   **** static
1240:lib/ff/ff.c   **** DWORD ld_clust (
1241:lib/ff/ff.c   **** 	FATFS *fs,	/* Pointer to the fs object */
1242:lib/ff/ff.c   **** 	BYTE *dir	/* Pointer to the directory entry */
1243:lib/ff/ff.c   **** )
1244:lib/ff/ff.c   **** {
1245:lib/ff/ff.c   **** 	DWORD cl;
1246:lib/ff/ff.c   **** 
1247:lib/ff/ff.c   **** 	cl = LD_WORD(dir+DIR_FstClusLO);
1248:lib/ff/ff.c   **** 	if (fs->fs_type == FS_FAT32)
1249:lib/ff/ff.c   **** 		cl |= (DWORD)LD_WORD(dir+DIR_FstClusHI) << 16;
1250:lib/ff/ff.c   **** 
1251:lib/ff/ff.c   **** 	return cl;
1252:lib/ff/ff.c   **** }
1253:lib/ff/ff.c   **** 
1254:lib/ff/ff.c   **** 
1255:lib/ff/ff.c   **** #if !_FS_READONLY
1256:lib/ff/ff.c   **** static
1257:lib/ff/ff.c   **** void st_clust (
1258:lib/ff/ff.c   **** 	BYTE *dir,	/* Pointer to the directory entry */
1259:lib/ff/ff.c   **** 	DWORD cl	/* Value to be set */
1260:lib/ff/ff.c   **** )
1261:lib/ff/ff.c   **** {
1262:lib/ff/ff.c   **** 	ST_WORD(dir+DIR_FstClusLO, cl);
1263:lib/ff/ff.c   **** 	ST_WORD(dir+DIR_FstClusHI, cl >> 16);
1264:lib/ff/ff.c   **** }
1265:lib/ff/ff.c   **** #endif
1266:lib/ff/ff.c   **** 
1267:lib/ff/ff.c   **** 
1268:lib/ff/ff.c   **** 
1269:lib/ff/ff.c   **** /*-----------------------------------------------------------------------*/
1270:lib/ff/ff.c   **** /* LFN handling - Test/Pick/Fit an LFN segment from/to directory entry   */
1271:lib/ff/ff.c   **** /*-----------------------------------------------------------------------*/
1272:lib/ff/ff.c   **** #if _USE_LFN
1273:lib/ff/ff.c   **** static
1274:lib/ff/ff.c   **** const BYTE LfnOfs[] = {1,3,5,7,9,14,16,18,20,22,24,28,30};	/* Offset of LFN chars in the directory 
1275:lib/ff/ff.c   **** 
1276:lib/ff/ff.c   **** 
1277:lib/ff/ff.c   **** static
1278:lib/ff/ff.c   **** int cmp_lfn (			/* 1:Matched, 0:Not matched */
1279:lib/ff/ff.c   **** 	WCHAR *lfnbuf,		/* Pointer to the LFN to be compared */
1280:lib/ff/ff.c   **** 	BYTE *dir			/* Pointer to the directory entry containing a part of LFN */
1281:lib/ff/ff.c   **** )
1282:lib/ff/ff.c   **** {
1283:lib/ff/ff.c   **** 	UINT i, s;
1284:lib/ff/ff.c   **** 	WCHAR wc, uc;
1285:lib/ff/ff.c   **** 
1286:lib/ff/ff.c   **** 
1287:lib/ff/ff.c   **** 	i = ((dir[LDIR_Ord] & ~LLE) - 1) * 13;	/* Get offset in the LFN buffer */
1288:lib/ff/ff.c   **** 	s = 0; wc = 1;
1289:lib/ff/ff.c   **** 	do {
1290:lib/ff/ff.c   **** 		uc = LD_WORD(dir+LfnOfs[s]);	/* Pick an LFN character from the entry */
1291:lib/ff/ff.c   **** 		if (wc) {	/* Last char has not been processed */
1292:lib/ff/ff.c   **** 			wc = ff_wtoupper(uc);		/* Convert it to upper case */
1293:lib/ff/ff.c   **** 			if (i >= _MAX_LFN || wc != ff_wtoupper(lfnbuf[i++]))	/* Compare it */
1294:lib/ff/ff.c   **** 				return 0;				/* Not matched */
1295:lib/ff/ff.c   **** 		} else {
1296:lib/ff/ff.c   **** 			if (uc != 0xFFFF) return 0;	/* Check filler */
1297:lib/ff/ff.c   **** 		}
1298:lib/ff/ff.c   **** 	} while (++s < 13);				/* Repeat until all chars in the entry are checked */
1299:lib/ff/ff.c   **** 
1300:lib/ff/ff.c   **** 	if ((dir[LDIR_Ord] & LLE) && wc && lfnbuf[i])	/* Last segment matched but different length */
1301:lib/ff/ff.c   **** 		return 0;
1302:lib/ff/ff.c   **** 
1303:lib/ff/ff.c   **** 	return 1;						/* The part of LFN matched */
1304:lib/ff/ff.c   **** }
1305:lib/ff/ff.c   **** 
1306:lib/ff/ff.c   **** 
1307:lib/ff/ff.c   **** 
1308:lib/ff/ff.c   **** static
1309:lib/ff/ff.c   **** int pick_lfn (			/* 1:Succeeded, 0:Buffer overflow */
1310:lib/ff/ff.c   **** 	WCHAR *lfnbuf,		/* Pointer to the Unicode-LFN buffer */
1311:lib/ff/ff.c   **** 	BYTE *dir			/* Pointer to the directory entry */
1312:lib/ff/ff.c   **** )
1313:lib/ff/ff.c   **** {
1314:lib/ff/ff.c   **** 	UINT i, s;
1315:lib/ff/ff.c   **** 	WCHAR wc, uc;
1316:lib/ff/ff.c   **** 
1317:lib/ff/ff.c   **** 
1318:lib/ff/ff.c   **** 	i = ((dir[LDIR_Ord] & 0x3F) - 1) * 13;	/* Offset in the LFN buffer */
1319:lib/ff/ff.c   **** 
1320:lib/ff/ff.c   **** 	s = 0; wc = 1;
1321:lib/ff/ff.c   **** 	do {
1322:lib/ff/ff.c   **** 		uc = LD_WORD(dir+LfnOfs[s]);		/* Pick an LFN character from the entry */
1323:lib/ff/ff.c   **** 		if (wc) {	/* Last char has not been processed */
1324:lib/ff/ff.c   **** 			if (i >= _MAX_LFN) return 0;	/* Buffer overflow? */
1325:lib/ff/ff.c   **** 			lfnbuf[i++] = wc = uc;			/* Store it */
1326:lib/ff/ff.c   **** 		} else {
1327:lib/ff/ff.c   **** 			if (uc != 0xFFFF) return 0;		/* Check filler */
1328:lib/ff/ff.c   **** 		}
1329:lib/ff/ff.c   **** 	} while (++s < 13);						/* Read all character in the entry */
1330:lib/ff/ff.c   **** 
1331:lib/ff/ff.c   **** 	if (dir[LDIR_Ord] & LLE) {				/* Put terminator if it is the last LFN part */
1332:lib/ff/ff.c   **** 		if (i >= _MAX_LFN) return 0;		/* Buffer overflow? */
1333:lib/ff/ff.c   **** 		lfnbuf[i] = 0;
1334:lib/ff/ff.c   **** 	}
1335:lib/ff/ff.c   **** 
1336:lib/ff/ff.c   **** 	return 1;
1337:lib/ff/ff.c   **** }
1338:lib/ff/ff.c   **** 
1339:lib/ff/ff.c   **** 
1340:lib/ff/ff.c   **** #if !_FS_READONLY
1341:lib/ff/ff.c   **** static
1342:lib/ff/ff.c   **** void fit_lfn (
1343:lib/ff/ff.c   **** 	const WCHAR *lfnbuf,	/* Pointer to the LFN buffer */
1344:lib/ff/ff.c   **** 	BYTE *dir,				/* Pointer to the directory entry */
1345:lib/ff/ff.c   **** 	BYTE ord,				/* LFN order (1-20) */
1346:lib/ff/ff.c   **** 	BYTE sum				/* SFN sum */
1347:lib/ff/ff.c   **** )
1348:lib/ff/ff.c   **** {
1349:lib/ff/ff.c   **** 	UINT i, s;
1350:lib/ff/ff.c   **** 	WCHAR wc;
1351:lib/ff/ff.c   **** 
1352:lib/ff/ff.c   **** 
1353:lib/ff/ff.c   **** 	dir[LDIR_Chksum] = sum;			/* Set check sum */
1354:lib/ff/ff.c   **** 	dir[LDIR_Attr] = AM_LFN;		/* Set attribute. LFN entry */
1355:lib/ff/ff.c   **** 	dir[LDIR_Type] = 0;
1356:lib/ff/ff.c   **** 	ST_WORD(dir+LDIR_FstClusLO, 0);
1357:lib/ff/ff.c   **** 
1358:lib/ff/ff.c   **** 	i = (ord - 1) * 13;				/* Get offset in the LFN buffer */
1359:lib/ff/ff.c   **** 	s = wc = 0;
1360:lib/ff/ff.c   **** 	do {
1361:lib/ff/ff.c   **** 		if (wc != 0xFFFF) wc = lfnbuf[i++];	/* Get an effective char */
1362:lib/ff/ff.c   **** 		ST_WORD(dir+LfnOfs[s], wc);	/* Put it */
1363:lib/ff/ff.c   **** 		if (!wc) wc = 0xFFFF;		/* Padding chars following last char */
1364:lib/ff/ff.c   **** 	} while (++s < 13);
1365:lib/ff/ff.c   **** 	if (wc == 0xFFFF || !lfnbuf[i]) ord |= LLE;	/* Bottom LFN part is the start of LFN sequence */
1366:lib/ff/ff.c   **** 	dir[LDIR_Ord] = ord;			/* Set the LFN order */
1367:lib/ff/ff.c   **** }
1368:lib/ff/ff.c   **** 
1369:lib/ff/ff.c   **** #endif
1370:lib/ff/ff.c   **** #endif
1371:lib/ff/ff.c   **** 
1372:lib/ff/ff.c   **** 
1373:lib/ff/ff.c   **** 
1374:lib/ff/ff.c   **** /*-----------------------------------------------------------------------*/
1375:lib/ff/ff.c   **** /* Create numbered name                                                  */
1376:lib/ff/ff.c   **** /*-----------------------------------------------------------------------*/
1377:lib/ff/ff.c   **** #if _USE_LFN
1378:lib/ff/ff.c   **** void gen_numname (
1379:lib/ff/ff.c   **** 	BYTE *dst,			/* Pointer to generated SFN */
1380:lib/ff/ff.c   **** 	const BYTE *src,	/* Pointer to source SFN to be modified */
1381:lib/ff/ff.c   **** 	const WCHAR *lfn,	/* Pointer to LFN */
1382:lib/ff/ff.c   **** 	WORD seq			/* Sequence number */
1383:lib/ff/ff.c   **** )
1384:lib/ff/ff.c   **** {
1385:lib/ff/ff.c   **** 	BYTE ns[8], c;
1386:lib/ff/ff.c   **** 	UINT i, j;
1387:lib/ff/ff.c   **** 
1388:lib/ff/ff.c   **** 
1389:lib/ff/ff.c   **** 	mem_cpy(dst, src, 11);
1390:lib/ff/ff.c   **** 
1391:lib/ff/ff.c   **** 	if (seq > 5) {	/* On many collisions, generate a hash number instead of sequential number */
1392:lib/ff/ff.c   **** 		do seq = (seq >> 1) + (seq << 15) + (WORD)*lfn++; while (*lfn);
1393:lib/ff/ff.c   **** 	}
1394:lib/ff/ff.c   **** 
1395:lib/ff/ff.c   **** 	/* itoa (hexdecimal) */
1396:lib/ff/ff.c   **** 	i = 7;
1397:lib/ff/ff.c   **** 	do {
1398:lib/ff/ff.c   **** 		c = (seq % 16) + '0';
1399:lib/ff/ff.c   **** 		if (c > '9') c += 7;
1400:lib/ff/ff.c   **** 		ns[i--] = c;
1401:lib/ff/ff.c   **** 		seq /= 16;
1402:lib/ff/ff.c   **** 	} while (seq);
1403:lib/ff/ff.c   **** 	ns[i] = '~';
1404:lib/ff/ff.c   **** 
1405:lib/ff/ff.c   **** 	/* Append the number */
1406:lib/ff/ff.c   **** 	for (j = 0; j < i && dst[j] != ' '; j++) {
1407:lib/ff/ff.c   **** 		if (IsDBCS1(dst[j])) {
1408:lib/ff/ff.c   **** 			if (j == i - 1) break;
1409:lib/ff/ff.c   **** 			j++;
1410:lib/ff/ff.c   **** 		}
1411:lib/ff/ff.c   **** 	}
1412:lib/ff/ff.c   **** 	do {
1413:lib/ff/ff.c   **** 		dst[j++] = (i < 8) ? ns[i++] : ' ';
1414:lib/ff/ff.c   **** 	} while (j < 8);
1415:lib/ff/ff.c   **** }
1416:lib/ff/ff.c   **** #endif
1417:lib/ff/ff.c   **** 
1418:lib/ff/ff.c   **** 
1419:lib/ff/ff.c   **** 
1420:lib/ff/ff.c   **** 
1421:lib/ff/ff.c   **** /*-----------------------------------------------------------------------*/
1422:lib/ff/ff.c   **** /* Calculate sum of an SFN                                               */
1423:lib/ff/ff.c   **** /*-----------------------------------------------------------------------*/
1424:lib/ff/ff.c   **** #if _USE_LFN
1425:lib/ff/ff.c   **** static
1426:lib/ff/ff.c   **** BYTE sum_sfn (
1427:lib/ff/ff.c   **** 	const BYTE *dir		/* Ptr to directory entry */
1428:lib/ff/ff.c   **** )
1429:lib/ff/ff.c   **** {
1430:lib/ff/ff.c   **** 	BYTE sum = 0;
1431:lib/ff/ff.c   **** 	UINT n = 11;
1432:lib/ff/ff.c   **** 
1433:lib/ff/ff.c   **** 	do sum = (sum >> 1) + (sum << 7) + *dir++; while (--n);
1434:lib/ff/ff.c   **** 	return sum;
1435:lib/ff/ff.c   **** }
1436:lib/ff/ff.c   **** #endif
1437:lib/ff/ff.c   **** 
1438:lib/ff/ff.c   **** 
1439:lib/ff/ff.c   **** 
1440:lib/ff/ff.c   **** 
1441:lib/ff/ff.c   **** /*-----------------------------------------------------------------------*/
1442:lib/ff/ff.c   **** /* Directory handling - Find an object in the directory                  */
1443:lib/ff/ff.c   **** /*-----------------------------------------------------------------------*/
1444:lib/ff/ff.c   **** 
1445:lib/ff/ff.c   **** static
1446:lib/ff/ff.c   **** FRESULT dir_find (
1447:lib/ff/ff.c   **** 	DIR *dj			/* Pointer to the directory object linked to the file name */
1448:lib/ff/ff.c   **** )
1449:lib/ff/ff.c   **** {
1450:lib/ff/ff.c   **** 	FRESULT res;
1451:lib/ff/ff.c   **** 	BYTE c, *dir;
1452:lib/ff/ff.c   **** #if _USE_LFN
1453:lib/ff/ff.c   **** 	BYTE a, ord, sum;
1454:lib/ff/ff.c   **** #endif
1455:lib/ff/ff.c   **** 
1456:lib/ff/ff.c   **** 	res = dir_sdi(dj, 0);			/* Rewind directory object */
1457:lib/ff/ff.c   **** 	if (res != FR_OK) return res;
1458:lib/ff/ff.c   **** 
1459:lib/ff/ff.c   **** #if _USE_LFN
1460:lib/ff/ff.c   **** 	ord = sum = 0xFF;
1461:lib/ff/ff.c   **** #endif
1462:lib/ff/ff.c   **** 	do {
1463:lib/ff/ff.c   **** 		res = move_window(dj->fs, dj->sect);
1464:lib/ff/ff.c   **** 		if (res != FR_OK) break;
1465:lib/ff/ff.c   **** 		dir = dj->dir;					/* Ptr to the directory entry of current index */
1466:lib/ff/ff.c   **** 		c = dir[DIR_Name];
1467:lib/ff/ff.c   **** 		if (c == 0) { res = FR_NO_FILE; break; }	/* Reached to end of table */
1468:lib/ff/ff.c   **** #if _USE_LFN	/* LFN configuration */
1469:lib/ff/ff.c   **** 		a = dir[DIR_Attr] & AM_MASK;
1470:lib/ff/ff.c   **** 		if (c == DDE || ((a & AM_VOL) && a != AM_LFN)) {	/* An entry without valid data */
1471:lib/ff/ff.c   **** 			ord = 0xFF;
1472:lib/ff/ff.c   **** 		} else {
1473:lib/ff/ff.c   **** 			if (a == AM_LFN) {			/* An LFN entry is found */
1474:lib/ff/ff.c   **** 				if (dj->lfn) {
1475:lib/ff/ff.c   **** 					if (c & LLE) {		/* Is it start of LFN sequence? */
1476:lib/ff/ff.c   **** 						sum = dir[LDIR_Chksum];
1477:lib/ff/ff.c   **** 						c &= ~LLE; ord = c;	/* LFN start order */
1478:lib/ff/ff.c   **** 						dj->lfn_idx = dj->index;
1479:lib/ff/ff.c   **** 					}
1480:lib/ff/ff.c   **** 					/* Check validity of the LFN entry and compare it with given name */
1481:lib/ff/ff.c   **** 					ord = (c == ord && sum == dir[LDIR_Chksum] && cmp_lfn(dj->lfn, dir)) ? ord - 1 : 0xFF;
1482:lib/ff/ff.c   **** 				}
1483:lib/ff/ff.c   **** 			} else {					/* An SFN entry is found */
1484:lib/ff/ff.c   **** 				if (!ord && sum == sum_sfn(dir)) break;	/* LFN matched? */
1485:lib/ff/ff.c   **** 				ord = 0xFF; dj->lfn_idx = 0xFFFF;	/* Reset LFN sequence */
1486:lib/ff/ff.c   **** 				if (!(dj->fn[NS] & NS_LOSS) && !mem_cmp(dir, dj->fn, 11)) break;	/* SFN matched? */
1487:lib/ff/ff.c   **** 			}
1488:lib/ff/ff.c   **** 		}
1489:lib/ff/ff.c   **** #else		/* Non LFN configuration */
1490:lib/ff/ff.c   **** 		if (!(dir[DIR_Attr] & AM_VOL) && !mem_cmp(dir, dj->fn, 11)) /* Is it a valid entry? */
1491:lib/ff/ff.c   **** 			break;
1492:lib/ff/ff.c   **** #endif
1493:lib/ff/ff.c   **** 		res = dir_next(dj, 0);		/* Next entry */
1494:lib/ff/ff.c   **** 	} while (res == FR_OK);
1495:lib/ff/ff.c   **** 
1496:lib/ff/ff.c   **** 	return res;
1497:lib/ff/ff.c   **** }
1498:lib/ff/ff.c   **** 
1499:lib/ff/ff.c   **** 
1500:lib/ff/ff.c   **** 
1501:lib/ff/ff.c   **** 
1502:lib/ff/ff.c   **** /*-----------------------------------------------------------------------*/
1503:lib/ff/ff.c   **** /* Read an object from the directory                                     */
1504:lib/ff/ff.c   **** /*-----------------------------------------------------------------------*/
1505:lib/ff/ff.c   **** #if _FS_MINIMIZE <= 1 || _USE_LABEL || _FS_RPATH >= 2
1506:lib/ff/ff.c   **** static
1507:lib/ff/ff.c   **** FRESULT dir_read (
1508:lib/ff/ff.c   **** 	DIR *dj,		/* Pointer to the directory object */
1509:lib/ff/ff.c   **** 	int vol			/* Filtered by 0:file/dir or 1:volume label */
1510:lib/ff/ff.c   **** )
1511:lib/ff/ff.c   **** {
1512:lib/ff/ff.c   **** 	FRESULT res;
1513:lib/ff/ff.c   **** 	BYTE a, c, *dir;
1514:lib/ff/ff.c   **** #if _USE_LFN
1515:lib/ff/ff.c   **** 	BYTE ord = 0xFF, sum = 0xFF;
1516:lib/ff/ff.c   **** #endif
1517:lib/ff/ff.c   **** 
1518:lib/ff/ff.c   **** 	res = FR_NO_FILE;
1519:lib/ff/ff.c   **** 	while (dj->sect) {
1520:lib/ff/ff.c   **** 		res = move_window(dj->fs, dj->sect);
1521:lib/ff/ff.c   **** 		if (res != FR_OK) break;
1522:lib/ff/ff.c   **** 		dir = dj->dir;					/* Ptr to the directory entry of current index */
1523:lib/ff/ff.c   **** 		c = dir[DIR_Name];
1524:lib/ff/ff.c   **** 		if (c == 0) { res = FR_NO_FILE; break; }	/* Reached to end of table */
1525:lib/ff/ff.c   **** 		a = dir[DIR_Attr] & AM_MASK;
1526:lib/ff/ff.c   **** #if _USE_LFN	/* LFN configuration */
1527:lib/ff/ff.c   **** 		if (c == DDE || (!_FS_RPATH && c == '.') || (a == AM_VOL) != vol) {	/* An entry without valid dat
1528:lib/ff/ff.c   **** 			ord = 0xFF;
1529:lib/ff/ff.c   **** 		} else {
1530:lib/ff/ff.c   **** 			if (a == AM_LFN) {			/* An LFN entry is found */
1531:lib/ff/ff.c   **** 				if (c & LLE) {			/* Is it start of LFN sequence? */
1532:lib/ff/ff.c   **** 					sum = dir[LDIR_Chksum];
1533:lib/ff/ff.c   **** 					c &= ~LLE; ord = c;
1534:lib/ff/ff.c   **** 					dj->lfn_idx = dj->index;
1535:lib/ff/ff.c   **** 				}
1536:lib/ff/ff.c   **** 				/* Check LFN validity and capture it */
1537:lib/ff/ff.c   **** 				ord = (c == ord && sum == dir[LDIR_Chksum] && pick_lfn(dj->lfn, dir)) ? ord - 1 : 0xFF;
1538:lib/ff/ff.c   **** 			} else {					/* An SFN entry is found */
1539:lib/ff/ff.c   **** 				if (ord || sum != sum_sfn(dir))	/* Is there a valid LFN? */
1540:lib/ff/ff.c   **** 					dj->lfn_idx = 0xFFFF;		/* It has no LFN. */
1541:lib/ff/ff.c   **** 				break;
1542:lib/ff/ff.c   **** 			}
1543:lib/ff/ff.c   **** 		}
1544:lib/ff/ff.c   **** #else		/* Non LFN configuration */
1545:lib/ff/ff.c   **** 		if (c != DDE && (_FS_RPATH || c != '.') && a != AM_LFN && (a == AM_VOL) == vol)	/* Is it a valid 
1546:lib/ff/ff.c   **** 			break;
1547:lib/ff/ff.c   **** #endif
1548:lib/ff/ff.c   **** 		res = dir_next(dj, 0);				/* Next entry */
1549:lib/ff/ff.c   **** 		if (res != FR_OK) break;
1550:lib/ff/ff.c   **** 	}
1551:lib/ff/ff.c   **** 
1552:lib/ff/ff.c   **** 	if (res != FR_OK) dj->sect = 0;
1553:lib/ff/ff.c   **** 
1554:lib/ff/ff.c   **** 	return res;
1555:lib/ff/ff.c   **** }
1556:lib/ff/ff.c   **** #endif	/* _FS_MINIMIZE <= 1 || _USE_LABEL || _FS_RPATH >= 2 */
1557:lib/ff/ff.c   **** 
1558:lib/ff/ff.c   **** 
1559:lib/ff/ff.c   **** 
1560:lib/ff/ff.c   **** /*-----------------------------------------------------------------------*/
1561:lib/ff/ff.c   **** /* Register an object to the directory                                   */
1562:lib/ff/ff.c   **** /*-----------------------------------------------------------------------*/
1563:lib/ff/ff.c   **** #if !_FS_READONLY
1564:lib/ff/ff.c   **** static
1565:lib/ff/ff.c   **** FRESULT dir_register (	/* FR_OK:Successful, FR_DENIED:No free entry or too many SFN collision, FR_D
1566:lib/ff/ff.c   **** 	DIR *dj				/* Target directory with object name to be created */
1567:lib/ff/ff.c   **** )
1568:lib/ff/ff.c   **** {
1569:lib/ff/ff.c   **** 	FRESULT res;
1570:lib/ff/ff.c   **** #if _USE_LFN	/* LFN configuration */
1571:lib/ff/ff.c   **** 	WORD n, ne;
1572:lib/ff/ff.c   **** 	BYTE sn[12], *fn, sum;
1573:lib/ff/ff.c   **** 	WCHAR *lfn;
1574:lib/ff/ff.c   **** 
1575:lib/ff/ff.c   **** 
1576:lib/ff/ff.c   **** 	fn = dj->fn; lfn = dj->lfn;
1577:lib/ff/ff.c   **** 	mem_cpy(sn, fn, 12);
1578:lib/ff/ff.c   **** 
1579:lib/ff/ff.c   **** 	if (_FS_RPATH && (sn[NS] & NS_DOT))		/* Cannot create dot entry */
1580:lib/ff/ff.c   **** 		return FR_INVALID_NAME;
1581:lib/ff/ff.c   **** 
1582:lib/ff/ff.c   **** 	if (sn[NS] & NS_LOSS) {			/* When LFN is out of 8.3 format, generate a numbered name */
1583:lib/ff/ff.c   **** 		fn[NS] = 0; dj->lfn = 0;			/* Find only SFN */
1584:lib/ff/ff.c   **** 		for (n = 1; n < 100; n++) {
1585:lib/ff/ff.c   **** 			gen_numname(fn, sn, lfn, n);	/* Generate a numbered name */
1586:lib/ff/ff.c   **** 			res = dir_find(dj);				/* Check if the name collides with existing SFN */
1587:lib/ff/ff.c   **** 			if (res != FR_OK) break;
1588:lib/ff/ff.c   **** 		}
1589:lib/ff/ff.c   **** 		if (n == 100) return FR_DENIED;		/* Abort if too many collisions */
1590:lib/ff/ff.c   **** 		if (res != FR_NO_FILE) return res;	/* Abort if the result is other than 'not collided' */
1591:lib/ff/ff.c   **** 		fn[NS] = sn[NS]; dj->lfn = lfn;
1592:lib/ff/ff.c   **** 	}
1593:lib/ff/ff.c   **** 
1594:lib/ff/ff.c   **** 	if (sn[NS] & NS_LFN) {			/* When LFN is to be created, allocate entries for an SFN + LFNs. */
1595:lib/ff/ff.c   **** 		for (n = 0; lfn[n]; n++) ;
1596:lib/ff/ff.c   **** 		ne = (n + 25) / 13;
1597:lib/ff/ff.c   **** 	} else {						/* Otherwise allocate an entry for an SFN  */
1598:lib/ff/ff.c   **** 		ne = 1;
1599:lib/ff/ff.c   **** 	}
1600:lib/ff/ff.c   **** 	res = dir_alloc(dj, ne);		/* Allocate entries */
1601:lib/ff/ff.c   **** 
1602:lib/ff/ff.c   **** 	if (res == FR_OK && --ne) {		/* Set LFN entry if needed */
1603:lib/ff/ff.c   **** 		res = dir_sdi(dj, (WORD)(dj->index - ne));
1604:lib/ff/ff.c   **** 		if (res == FR_OK) {
1605:lib/ff/ff.c   **** 			sum = sum_sfn(dj->fn);	/* Sum value of the SFN tied to the LFN */
1606:lib/ff/ff.c   **** 			do {					/* Store LFN entries in bottom first */
1607:lib/ff/ff.c   **** 				res = move_window(dj->fs, dj->sect);
1608:lib/ff/ff.c   **** 				if (res != FR_OK) break;
1609:lib/ff/ff.c   **** 				fit_lfn(dj->lfn, dj->dir, (BYTE)ne, sum);
1610:lib/ff/ff.c   **** 				dj->fs->wflag = 1;
1611:lib/ff/ff.c   **** 				res = dir_next(dj, 0);	/* Next entry */
1612:lib/ff/ff.c   **** 			} while (res == FR_OK && --ne);
1613:lib/ff/ff.c   **** 		}
1614:lib/ff/ff.c   **** 	}
1615:lib/ff/ff.c   **** #else	/* Non LFN configuration */
1616:lib/ff/ff.c   **** 	res = dir_alloc(dj, 1);		/* Allocate an entry for SFN */
1617:lib/ff/ff.c   **** #endif
1618:lib/ff/ff.c   **** 
1619:lib/ff/ff.c   **** 	if (res == FR_OK) {				/* Set SFN entry */
1620:lib/ff/ff.c   **** 		res = move_window(dj->fs, dj->sect);
1621:lib/ff/ff.c   **** 		if (res == FR_OK) {
1622:lib/ff/ff.c   **** 			mem_set(dj->dir, 0, SZ_DIR);	/* Clean the entry */
1623:lib/ff/ff.c   **** 			mem_cpy(dj->dir, dj->fn, 11);	/* Put SFN */
1624:lib/ff/ff.c   **** #if _USE_LFN
1625:lib/ff/ff.c   **** 			dj->dir[DIR_NTres] = *(dj->fn+NS) & (NS_BODY | NS_EXT);	/* Put NT flag */
1626:lib/ff/ff.c   **** #endif
1627:lib/ff/ff.c   **** 			dj->fs->wflag = 1;
1628:lib/ff/ff.c   **** 		}
1629:lib/ff/ff.c   **** 	}
1630:lib/ff/ff.c   **** 
1631:lib/ff/ff.c   **** 	return res;
1632:lib/ff/ff.c   **** }
1633:lib/ff/ff.c   **** #endif /* !_FS_READONLY */
1634:lib/ff/ff.c   **** 
1635:lib/ff/ff.c   **** 
1636:lib/ff/ff.c   **** 
1637:lib/ff/ff.c   **** 
1638:lib/ff/ff.c   **** /*-----------------------------------------------------------------------*/
1639:lib/ff/ff.c   **** /* Remove an object from the directory                                   */
1640:lib/ff/ff.c   **** /*-----------------------------------------------------------------------*/
1641:lib/ff/ff.c   **** #if !_FS_READONLY && !_FS_MINIMIZE
1642:lib/ff/ff.c   **** static
1643:lib/ff/ff.c   **** FRESULT dir_remove (	/* FR_OK: Successful, FR_DISK_ERR: A disk error */
1644:lib/ff/ff.c   **** 	DIR *dj				/* Directory object pointing the entry to be removed */
1645:lib/ff/ff.c   **** )
1646:lib/ff/ff.c   **** {
1647:lib/ff/ff.c   **** 	FRESULT res;
1648:lib/ff/ff.c   **** #if _USE_LFN	/* LFN configuration */
1649:lib/ff/ff.c   **** 	WORD i;
1650:lib/ff/ff.c   **** 
1651:lib/ff/ff.c   **** 	i = dj->index;	/* SFN index */
1652:lib/ff/ff.c   **** 	res = dir_sdi(dj, (WORD)((dj->lfn_idx == 0xFFFF) ? i : dj->lfn_idx));	/* Goto the SFN or top of th
1653:lib/ff/ff.c   **** 	if (res == FR_OK) {
1654:lib/ff/ff.c   **** 		do {
1655:lib/ff/ff.c   **** 			res = move_window(dj->fs, dj->sect);
1656:lib/ff/ff.c   **** 			if (res != FR_OK) break;
1657:lib/ff/ff.c   **** 			*dj->dir = DDE;			/* Mark the entry "deleted" */
1658:lib/ff/ff.c   **** 			dj->fs->wflag = 1;
1659:lib/ff/ff.c   **** 			if (dj->index >= i) break;	/* When reached SFN, all entries of the object has been deleted. */
1660:lib/ff/ff.c   **** 			res = dir_next(dj, 0);		/* Next entry */
1661:lib/ff/ff.c   **** 		} while (res == FR_OK);
1662:lib/ff/ff.c   **** 		if (res == FR_NO_FILE) res = FR_INT_ERR;
1663:lib/ff/ff.c   **** 	}
1664:lib/ff/ff.c   **** 
1665:lib/ff/ff.c   **** #else			/* Non LFN configuration */
1666:lib/ff/ff.c   **** 	res = dir_sdi(dj, dj->index);
1667:lib/ff/ff.c   **** 	if (res == FR_OK) {
1668:lib/ff/ff.c   **** 		res = move_window(dj->fs, dj->sect);
1669:lib/ff/ff.c   **** 		if (res == FR_OK) {
1670:lib/ff/ff.c   **** 			*dj->dir = DDE;			/* Mark the entry "deleted" */
1671:lib/ff/ff.c   **** 			dj->fs->wflag = 1;
1672:lib/ff/ff.c   **** 		}
1673:lib/ff/ff.c   **** 	}
1674:lib/ff/ff.c   **** #endif
1675:lib/ff/ff.c   **** 
1676:lib/ff/ff.c   **** 	return res;
1677:lib/ff/ff.c   **** }
1678:lib/ff/ff.c   **** #endif /* !_FS_READONLY */
1679:lib/ff/ff.c   **** 
1680:lib/ff/ff.c   **** 
1681:lib/ff/ff.c   **** 
1682:lib/ff/ff.c   **** 
1683:lib/ff/ff.c   **** /*-----------------------------------------------------------------------*/
1684:lib/ff/ff.c   **** /* Pick a segment and create the object name in directory form           */
1685:lib/ff/ff.c   **** /*-----------------------------------------------------------------------*/
1686:lib/ff/ff.c   **** 
1687:lib/ff/ff.c   **** static
1688:lib/ff/ff.c   **** FRESULT create_name (
1689:lib/ff/ff.c   **** 	DIR *dj,			/* Pointer to the directory object */
1690:lib/ff/ff.c   **** 	const TCHAR **path	/* Pointer to pointer to the segment in the path string */
1691:lib/ff/ff.c   **** )
1692:lib/ff/ff.c   **** {
1693:lib/ff/ff.c   **** #if _USE_LFN	/* LFN configuration */
1694:lib/ff/ff.c   **** 	BYTE b, cf;
1695:lib/ff/ff.c   **** 	WCHAR w, *lfn;
1696:lib/ff/ff.c   **** 	UINT i, ni, si, di;
1697:lib/ff/ff.c   **** 	const TCHAR *p;
1698:lib/ff/ff.c   **** 
1699:lib/ff/ff.c   **** 	/* Create LFN in Unicode */
1700:lib/ff/ff.c   **** 	for (p = *path; *p == '/' || *p == '\\'; p++) ;	/* Strip duplicated separator */
1701:lib/ff/ff.c   **** 	lfn = dj->lfn;
1702:lib/ff/ff.c   **** 	si = di = 0;
1703:lib/ff/ff.c   **** 	for (;;) {
1704:lib/ff/ff.c   **** 		w = p[si++];					/* Get a character */
1705:lib/ff/ff.c   **** 		if (w < ' ' || w == '/' || w == '\\') break;	/* Break on end of segment */
1706:lib/ff/ff.c   **** 		if (di >= _MAX_LFN)				/* Reject too long name */
1707:lib/ff/ff.c   **** 			return FR_INVALID_NAME;
1708:lib/ff/ff.c   **** #if !_LFN_UNICODE
1709:lib/ff/ff.c   **** 		w &= 0xFF;
1710:lib/ff/ff.c   **** 		if (IsDBCS1(w)) {				/* Check if it is a DBC 1st byte (always false on SBCS cfg) */
1711:lib/ff/ff.c   **** 			b = (BYTE)p[si++];			/* Get 2nd byte */
1712:lib/ff/ff.c   **** 			if (!IsDBCS2(b))
1713:lib/ff/ff.c   **** 				return FR_INVALID_NAME;	/* Reject invalid sequence */
1714:lib/ff/ff.c   **** 			w = (w << 8) + b;			/* Create a DBC */
1715:lib/ff/ff.c   **** 		}
1716:lib/ff/ff.c   **** 		w = ff_convert(w, 1);			/* Convert ANSI/OEM to Unicode */
1717:lib/ff/ff.c   **** 		if (!w) return FR_INVALID_NAME;	/* Reject invalid code */
1718:lib/ff/ff.c   **** #endif
1719:lib/ff/ff.c   **** 		if (w < 0x80 && chk_chr("\"*:<>\?|\x7F", w)) /* Reject illegal chars for LFN */
1720:lib/ff/ff.c   **** 			return FR_INVALID_NAME;
1721:lib/ff/ff.c   **** 		lfn[di++] = w;					/* Store the Unicode char */
1722:lib/ff/ff.c   **** 	}
1723:lib/ff/ff.c   **** 	*path = &p[si];						/* Return pointer to the next segment */
1724:lib/ff/ff.c   **** 	cf = (w < ' ') ? NS_LAST : 0;		/* Set last segment flag if end of path */
1725:lib/ff/ff.c   **** #if _FS_RPATH
1726:lib/ff/ff.c   **** 	if ((di == 1 && lfn[di-1] == '.') || /* Is this a dot entry? */
1727:lib/ff/ff.c   **** 		(di == 2 && lfn[di-1] == '.' && lfn[di-2] == '.')) {
1728:lib/ff/ff.c   **** 		lfn[di] = 0;
1729:lib/ff/ff.c   **** 		for (i = 0; i < 11; i++)
1730:lib/ff/ff.c   **** 			dj->fn[i] = (i < di) ? '.' : ' ';
1731:lib/ff/ff.c   **** 		dj->fn[i] = cf | NS_DOT;		/* This is a dot entry */
1732:lib/ff/ff.c   **** 		return FR_OK;
1733:lib/ff/ff.c   **** 	}
1734:lib/ff/ff.c   **** #endif
1735:lib/ff/ff.c   **** 	while (di) {						/* Strip trailing spaces and dots */
1736:lib/ff/ff.c   **** 		w = lfn[di-1];
1737:lib/ff/ff.c   **** 		if (w != ' ' && w != '.') break;
1738:lib/ff/ff.c   **** 		di--;
1739:lib/ff/ff.c   **** 	}
1740:lib/ff/ff.c   **** 	if (!di) return FR_INVALID_NAME;	/* Reject nul string */
1741:lib/ff/ff.c   **** 
1742:lib/ff/ff.c   **** 	lfn[di] = 0;						/* LFN is created */
1743:lib/ff/ff.c   **** 
1744:lib/ff/ff.c   **** 	/* Create SFN in directory form */
1745:lib/ff/ff.c   **** 	mem_set(dj->fn, ' ', 11);
1746:lib/ff/ff.c   **** 	for (si = 0; lfn[si] == ' ' || lfn[si] == '.'; si++) ;	/* Strip leading spaces and dots */
1747:lib/ff/ff.c   **** 	if (si) cf |= NS_LOSS | NS_LFN;
1748:lib/ff/ff.c   **** 	while (di && lfn[di - 1] != '.') di--;	/* Find extension (di<=si: no extension) */
1749:lib/ff/ff.c   **** 
1750:lib/ff/ff.c   **** 	b = i = 0; ni = 8;
1751:lib/ff/ff.c   **** 	for (;;) {
1752:lib/ff/ff.c   **** 		w = lfn[si++];					/* Get an LFN char */
1753:lib/ff/ff.c   **** 		if (!w) break;					/* Break on end of the LFN */
1754:lib/ff/ff.c   **** 		if (w == ' ' || (w == '.' && si != di)) {	/* Remove spaces and dots */
1755:lib/ff/ff.c   **** 			cf |= NS_LOSS | NS_LFN; continue;
1756:lib/ff/ff.c   **** 		}
1757:lib/ff/ff.c   **** 
1758:lib/ff/ff.c   **** 		if (i >= ni || si == di) {		/* Extension or end of SFN */
1759:lib/ff/ff.c   **** 			if (ni == 11) {				/* Long extension */
1760:lib/ff/ff.c   **** 				cf |= NS_LOSS | NS_LFN; break;
1761:lib/ff/ff.c   **** 			}
1762:lib/ff/ff.c   **** 			if (si != di) cf |= NS_LOSS | NS_LFN;	/* Out of 8.3 format */
1763:lib/ff/ff.c   **** 			if (si > di) break;			/* No extension */
1764:lib/ff/ff.c   **** 			si = di; i = 8; ni = 11;	/* Enter extension section */
1765:lib/ff/ff.c   **** 			b <<= 2; continue;
1766:lib/ff/ff.c   **** 		}
1767:lib/ff/ff.c   **** 
1768:lib/ff/ff.c   **** 		if (w >= 0x80) {				/* Non ASCII char */
1769:lib/ff/ff.c   **** #ifdef _EXCVT
1770:lib/ff/ff.c   **** 			w = ff_convert(w, 0);		/* Unicode -> OEM code */
1771:lib/ff/ff.c   **** 			if (w) w = ExCvt[w - 0x80];	/* Convert extended char to upper (SBCS) */
1772:lib/ff/ff.c   **** #else
1773:lib/ff/ff.c   **** 			w = ff_convert(ff_wtoupper(w), 0);	/* Upper converted Unicode -> OEM code */
1774:lib/ff/ff.c   **** #endif
1775:lib/ff/ff.c   **** 			cf |= NS_LFN;				/* Force create LFN entry */
1776:lib/ff/ff.c   **** 		}
1777:lib/ff/ff.c   **** 
1778:lib/ff/ff.c   **** 		if (_DF1S && w >= 0x100) {		/* Double byte char (always false on SBCS cfg) */
1779:lib/ff/ff.c   **** 			if (i >= ni - 1) {
1780:lib/ff/ff.c   **** 				cf |= NS_LOSS | NS_LFN; i = ni; continue;
1781:lib/ff/ff.c   **** 			}
1782:lib/ff/ff.c   **** 			dj->fn[i++] = (BYTE)(w >> 8);
1783:lib/ff/ff.c   **** 		} else {						/* Single byte char */
1784:lib/ff/ff.c   **** 			if (!w || chk_chr("+,;=[]", w)) {	/* Replace illegal chars for SFN */
1785:lib/ff/ff.c   **** 				w = '_'; cf |= NS_LOSS | NS_LFN;/* Lossy conversion */
1786:lib/ff/ff.c   **** 			} else {
1787:lib/ff/ff.c   **** 				if (IsUpper(w)) {		/* ASCII large capital */
1788:lib/ff/ff.c   **** 					b |= 2;
1789:lib/ff/ff.c   **** 				} else {
1790:lib/ff/ff.c   **** 					if (IsLower(w)) {	/* ASCII small capital */
1791:lib/ff/ff.c   **** 						b |= 1; w -= 0x20;
1792:lib/ff/ff.c   **** 					}
1793:lib/ff/ff.c   **** 				}
1794:lib/ff/ff.c   **** 			}
1795:lib/ff/ff.c   **** 		}
1796:lib/ff/ff.c   **** 		dj->fn[i++] = (BYTE)w;
1797:lib/ff/ff.c   **** 	}
1798:lib/ff/ff.c   **** 
1799:lib/ff/ff.c   **** 	if (dj->fn[0] == DDE) dj->fn[0] = NDDE;	/* If the first char collides with deleted mark, replace i
1800:lib/ff/ff.c   **** 
1801:lib/ff/ff.c   **** 	if (ni == 8) b <<= 2;
1802:lib/ff/ff.c   **** 	if ((b & 0x0C) == 0x0C || (b & 0x03) == 0x03)	/* Create LFN entry when there are composite capital
1803:lib/ff/ff.c   **** 		cf |= NS_LFN;
1804:lib/ff/ff.c   **** 	if (!(cf & NS_LFN)) {						/* When LFN is in 8.3 format without extended char, NT flags are create
1805:lib/ff/ff.c   **** 		if ((b & 0x03) == 0x01) cf |= NS_EXT;	/* NT flag (Extension has only small capital) */
1806:lib/ff/ff.c   **** 		if ((b & 0x0C) == 0x04) cf |= NS_BODY;	/* NT flag (Filename has only small capital) */
1807:lib/ff/ff.c   **** 	}
1808:lib/ff/ff.c   **** 
1809:lib/ff/ff.c   **** 	dj->fn[NS] = cf;	/* SFN is created */
1810:lib/ff/ff.c   **** 
1811:lib/ff/ff.c   **** 	return FR_OK;
1812:lib/ff/ff.c   **** 
1813:lib/ff/ff.c   **** 
1814:lib/ff/ff.c   **** #else	/* Non-LFN configuration */
1815:lib/ff/ff.c   **** 	BYTE b, c, d, *sfn;
1816:lib/ff/ff.c   **** 	UINT ni, si, i;
1817:lib/ff/ff.c   **** 	const char *p;
1818:lib/ff/ff.c   **** 
1819:lib/ff/ff.c   **** 	/* Create file name in directory form */
1820:lib/ff/ff.c   **** 	for (p = *path; *p == '/' || *p == '\\'; p++) ;	/* Strip duplicated separator */
1821:lib/ff/ff.c   **** 	sfn = dj->fn;
1822:lib/ff/ff.c   **** 	mem_set(sfn, ' ', 11);
1823:lib/ff/ff.c   **** 	si = i = b = 0; ni = 8;
1824:lib/ff/ff.c   **** #if _FS_RPATH
1825:lib/ff/ff.c   **** 	if (p[si] == '.') { /* Is this a dot entry? */
1826:lib/ff/ff.c   **** 		for (;;) {
1827:lib/ff/ff.c   **** 			c = (BYTE)p[si++];
1828:lib/ff/ff.c   **** 			if (c != '.' || si >= 3) break;
1829:lib/ff/ff.c   **** 			sfn[i++] = c;
1830:lib/ff/ff.c   **** 		}
1831:lib/ff/ff.c   **** 		if (c != '/' && c != '\\' && c > ' ') return FR_INVALID_NAME;
1832:lib/ff/ff.c   **** 		*path = &p[si];									/* Return pointer to the next segment */
1833:lib/ff/ff.c   **** 		sfn[NS] = (c <= ' ') ? NS_LAST | NS_DOT : NS_DOT;	/* Set last segment flag if end of path */
1834:lib/ff/ff.c   **** 		return FR_OK;
1835:lib/ff/ff.c   **** 	}
1836:lib/ff/ff.c   **** #endif
1837:lib/ff/ff.c   **** 	for (;;) {
1838:lib/ff/ff.c   **** 		c = (BYTE)p[si++];
1839:lib/ff/ff.c   **** 		if (c <= ' ' || c == '/' || c == '\\') break;	/* Break on end of segment */
1840:lib/ff/ff.c   **** 		if (c == '.' || i >= ni) {
1841:lib/ff/ff.c   **** 			if (ni != 8 || c != '.') return FR_INVALID_NAME;
1842:lib/ff/ff.c   **** 			i = 8; ni = 11;
1843:lib/ff/ff.c   **** 			b <<= 2; continue;
1844:lib/ff/ff.c   **** 		}
1845:lib/ff/ff.c   **** 		if (c >= 0x80) {				/* Extended char? */
1846:lib/ff/ff.c   **** 			b |= 3;						/* Eliminate NT flag */
1847:lib/ff/ff.c   **** #ifdef _EXCVT
1848:lib/ff/ff.c   **** 			c = ExCvt[c - 0x80];		/* To upper extended chars (SBCS cfg) */
1849:lib/ff/ff.c   **** #else
1850:lib/ff/ff.c   **** #if !_DF1S
1851:lib/ff/ff.c   **** 			return FR_INVALID_NAME;		/* Reject extended chars (ASCII cfg) */
1852:lib/ff/ff.c   **** #endif
1853:lib/ff/ff.c   **** #endif
1854:lib/ff/ff.c   **** 		}
1855:lib/ff/ff.c   **** 		if (IsDBCS1(c)) {				/* Check if it is a DBC 1st byte (always false on SBCS cfg) */
1856:lib/ff/ff.c   **** 			d = (BYTE)p[si++];			/* Get 2nd byte */
1857:lib/ff/ff.c   **** 			if (!IsDBCS2(d) || i >= ni - 1)	/* Reject invalid DBC */
1858:lib/ff/ff.c   **** 				return FR_INVALID_NAME;
1859:lib/ff/ff.c   **** 			sfn[i++] = c;
1860:lib/ff/ff.c   **** 			sfn[i++] = d;
1861:lib/ff/ff.c   **** 		} else {						/* Single byte code */
1862:lib/ff/ff.c   **** 			if (chk_chr("\"*+,:;<=>\?[]|\x7F", c))	/* Reject illegal chrs for SFN */
1863:lib/ff/ff.c   **** 				return FR_INVALID_NAME;
1864:lib/ff/ff.c   **** 			if (IsUpper(c)) {			/* ASCII large capital? */
1865:lib/ff/ff.c   **** 				b |= 2;
1866:lib/ff/ff.c   **** 			} else {
1867:lib/ff/ff.c   **** 				if (IsLower(c)) {		/* ASCII small capital? */
1868:lib/ff/ff.c   **** 					b |= 1; c -= 0x20;
1869:lib/ff/ff.c   **** 				}
1870:lib/ff/ff.c   **** 			}
1871:lib/ff/ff.c   **** 			sfn[i++] = c;
1872:lib/ff/ff.c   **** 		}
1873:lib/ff/ff.c   **** 	}
1874:lib/ff/ff.c   **** 	*path = &p[si];						/* Return pointer to the next segment */
1875:lib/ff/ff.c   **** 	c = (c <= ' ') ? NS_LAST : 0;		/* Set last segment flag if end of path */
1876:lib/ff/ff.c   **** 
1877:lib/ff/ff.c   **** 	if (!i) return FR_INVALID_NAME;		/* Reject nul string */
1878:lib/ff/ff.c   **** 	if (sfn[0] == DDE) sfn[0] = NDDE;	/* When first char collides with DDE, replace it with 0x05 */
1879:lib/ff/ff.c   **** 
1880:lib/ff/ff.c   **** 	if (ni == 8) b <<= 2;
1881:lib/ff/ff.c   **** 	if ((b & 0x03) == 0x01) c |= NS_EXT;	/* NT flag (Name extension has only small capital) */
1882:lib/ff/ff.c   **** 	if ((b & 0x0C) == 0x04) c |= NS_BODY;	/* NT flag (Name body has only small capital) */
1883:lib/ff/ff.c   **** 
1884:lib/ff/ff.c   **** 	sfn[NS] = c;		/* Store NT flag, File name is created */
1885:lib/ff/ff.c   **** 
1886:lib/ff/ff.c   **** 	return FR_OK;
1887:lib/ff/ff.c   **** #endif
1888:lib/ff/ff.c   **** }
1889:lib/ff/ff.c   **** 
1890:lib/ff/ff.c   **** 
1891:lib/ff/ff.c   **** 
1892:lib/ff/ff.c   **** 
1893:lib/ff/ff.c   **** /*-----------------------------------------------------------------------*/
1894:lib/ff/ff.c   **** /* Get file information from directory entry                             */
1895:lib/ff/ff.c   **** /*-----------------------------------------------------------------------*/
1896:lib/ff/ff.c   **** #if _FS_MINIMIZE <= 1 || _FS_RPATH >= 2
1897:lib/ff/ff.c   **** static
1898:lib/ff/ff.c   **** void get_fileinfo (		/* No return code */
1899:lib/ff/ff.c   **** 	DIR *dj,			/* Pointer to the directory object */
1900:lib/ff/ff.c   **** 	FILINFO *fno	 	/* Pointer to the file information to be filled */
1901:lib/ff/ff.c   **** )
1902:lib/ff/ff.c   **** {
 170              		.loc 1 1902 0
 171              		.cfi_startproc
 172              		@ args = 0, pretend = 0, frame = 0
 173              		@ frame_needed = 0, uses_anonymous_args = 0
 174              	.LVL20:
 175 0000 70B5     		push	{r4, r5, r6, lr}
 176              	.LCFI1:
 177              		.cfi_def_cfa_offset 16
 178              		.cfi_offset 4, -16
 179              		.cfi_offset 5, -12
 180              		.cfi_offset 6, -8
 181              		.cfi_offset 14, -4
1903:lib/ff/ff.c   **** 	UINT i;
1904:lib/ff/ff.c   **** 	BYTE nt, *dir;
1905:lib/ff/ff.c   **** 	TCHAR *p, c;
1906:lib/ff/ff.c   **** 
1907:lib/ff/ff.c   **** 
1908:lib/ff/ff.c   **** 	p = fno->fname;
 182              		.loc 1 1908 0
 183 0002 01F10902 		add	r2, r1, #9
 184              	.LVL21:
1909:lib/ff/ff.c   **** 	if (dj->sect) {
 185              		.loc 1 1909 0
 186 0006 0369     		ldr	r3, [r0, #16]
 187 0008 4BB3     		cbz	r3, .L19
1910:lib/ff/ff.c   **** 		dir = dj->dir;
 188              		.loc 1 1910 0
 189 000a 4369     		ldr	r3, [r0, #20]
 190              	.LVL22:
 191 000c 1046     		mov	r0, r2
 192              	.LVL23:
1911:lib/ff/ff.c   **** 		nt = dir[DIR_NTres];		/* NT flag */
1912:lib/ff/ff.c   **** 		for (i = 0; i < 8; i++) {	/* Copy name body */
 193              		.loc 1 1912 0
 194 000e 0024     		movs	r4, #0
 195              	.LVL24:
 196              	.L22:
 197 0010 0246     		mov	r2, r0
1913:lib/ff/ff.c   **** 			c = dir[i];
 198              		.loc 1 1913 0
 199 0012 1D5D     		ldrb	r5, [r3, r4]	@ zero_extendqisi2
 200              	.LVL25:
1914:lib/ff/ff.c   **** 			if (c == ' ') break;
 201              		.loc 1 1914 0
 202 0014 6EB2     		sxtb	r6, r5
 203 0016 202E     		cmp	r6, #32
 204 0018 08D0     		beq	.L20
1915:lib/ff/ff.c   **** 			if (c == NDDE) c = (TCHAR)DDE;
 205              		.loc 1 1915 0
 206 001a 052E     		cmp	r6, #5
 207 001c 08BF     		it	eq
 208 001e E525     		moveq	r5, #229
1916:lib/ff/ff.c   **** 			if (_USE_LFN && (nt & NS_BODY) && IsUpper(c)) c += 0x20;
1917:lib/ff/ff.c   **** #if _LFN_UNICODE
1918:lib/ff/ff.c   **** 			if (IsDBCS1(c) && i < 7 && IsDBCS2(dir[i+1]))
1919:lib/ff/ff.c   **** 				c = (c << 8) | dir[++i];
1920:lib/ff/ff.c   **** 			c = ff_convert(c, 1);
1921:lib/ff/ff.c   **** 			if (!c) c = '?';
1922:lib/ff/ff.c   **** #endif
1923:lib/ff/ff.c   **** 			*p++ = c;
 209              		.loc 1 1923 0
 210 0020 00F8015B 		strb	r5, [r0], #1
 211              	.LVL26:
 212 0024 0246     		mov	r2, r0
 213              	.LVL27:
1912:lib/ff/ff.c   **** 			c = dir[i];
 214              		.loc 1 1912 0
 215 0026 0134     		adds	r4, r4, #1
 216              	.LVL28:
 217 0028 082C     		cmp	r4, #8
 218 002a F1D1     		bne	.L22
 219              	.LVL29:
 220              	.L20:
1924:lib/ff/ff.c   **** 		}
1925:lib/ff/ff.c   **** 		if (dir[8] != ' ') {		/* Copy name extension */
 221              		.loc 1 1925 0
 222 002c 1C7A     		ldrb	r4, [r3, #8]	@ zero_extendqisi2
 223 002e 202C     		cmp	r4, #32
 224 0030 0DD0     		beq	.L23
1926:lib/ff/ff.c   **** 			*p++ = '.';
 225              		.loc 1 1926 0
 226 0032 2E22     		movs	r2, #46
 227 0034 00F8012B 		strb	r2, [r0], #1
 228              	.LVL30:
1927:lib/ff/ff.c   **** 			for (i = 8; i < 11; i++) {
 229              		.loc 1 1927 0
 230 0038 0824     		movs	r4, #8
 231              	.LVL31:
 232              	.L24:
 233 003a 0246     		mov	r2, r0
1928:lib/ff/ff.c   **** 				c = dir[i];
 234              		.loc 1 1928 0
 235 003c 1D5D     		ldrb	r5, [r3, r4]	@ zero_extendqisi2
 236              	.LVL32:
1929:lib/ff/ff.c   **** 				if (c == ' ') break;
 237              		.loc 1 1929 0
 238 003e 202D     		cmp	r5, #32
 239 0040 05D0     		beq	.L23
1930:lib/ff/ff.c   **** 				if (_USE_LFN && (nt & NS_EXT) && IsUpper(c)) c += 0x20;
1931:lib/ff/ff.c   **** #if _LFN_UNICODE
1932:lib/ff/ff.c   **** 				if (IsDBCS1(c) && i < 10 && IsDBCS2(dir[i+1]))
1933:lib/ff/ff.c   **** 					c = (c << 8) | dir[++i];
1934:lib/ff/ff.c   **** 				c = ff_convert(c, 1);
1935:lib/ff/ff.c   **** 				if (!c) c = '?';
1936:lib/ff/ff.c   **** #endif
1937:lib/ff/ff.c   **** 				*p++ = c;
 240              		.loc 1 1937 0
 241 0042 00F8015B 		strb	r5, [r0], #1
 242 0046 0246     		mov	r2, r0
 243              	.LVL33:
1927:lib/ff/ff.c   **** 				c = dir[i];
 244              		.loc 1 1927 0
 245 0048 0134     		adds	r4, r4, #1
 246              	.LVL34:
 247 004a 0B2C     		cmp	r4, #11
 248 004c F5D1     		bne	.L24
 249              	.LVL35:
 250              	.L23:
1938:lib/ff/ff.c   **** 			}
1939:lib/ff/ff.c   **** 		}
1940:lib/ff/ff.c   **** 		fno->fattrib = dir[DIR_Attr];				/* Attribute */
 251              		.loc 1 1940 0
 252 004e D87A     		ldrb	r0, [r3, #11]	@ zero_extendqisi2
 253 0050 0872     		strb	r0, [r1, #8]
1941:lib/ff/ff.c   **** 		fno->fsize = LD_DWORD(dir+DIR_FileSize);	/* Size */
 254              		.loc 1 1941 0
 255 0052 D869     		ldr	r0, [r3, #28]
 256 0054 0860     		str	r0, [r1, #0]
1942:lib/ff/ff.c   **** 		fno->fdate = LD_WORD(dir+DIR_WrtDate);		/* Date */
 257              		.loc 1 1942 0
 258 0056 188B     		ldrh	r0, [r3, #24]
 259 0058 8880     		strh	r0, [r1, #4]	@ movhi
1943:lib/ff/ff.c   **** 		fno->ftime = LD_WORD(dir+DIR_WrtTime);		/* Time */
 260              		.loc 1 1943 0
 261 005a DB8A     		ldrh	r3, [r3, #22]
 262              	.LVL36:
 263 005c CB80     		strh	r3, [r1, #6]	@ movhi
 264              	.LVL37:
 265              	.L19:
1944:lib/ff/ff.c   **** 	}
1945:lib/ff/ff.c   **** 	*p = 0;		/* Terminate SFN str by a \0 */
 266              		.loc 1 1945 0
 267 005e 0021     		movs	r1, #0
 268              	.LVL38:
 269 0060 1170     		strb	r1, [r2, #0]
 270 0062 70BD     		pop	{r4, r5, r6, pc}
 271              		.cfi_endproc
 272              	.LFE23:
 274              		.section	.text.validate,"ax",%progbits
 275              		.align	1
 276              		.thumb
 277              		.thumb_func
 279              	validate:
 280              	.LFB27:
1946:lib/ff/ff.c   **** 
1947:lib/ff/ff.c   **** #if _USE_LFN
1948:lib/ff/ff.c   **** 	if (fno->lfname && fno->lfsize) {
1949:lib/ff/ff.c   **** 		TCHAR *tp = fno->lfname;
1950:lib/ff/ff.c   **** 		WCHAR w, *lfn;
1951:lib/ff/ff.c   **** 
1952:lib/ff/ff.c   **** 		i = 0;
1953:lib/ff/ff.c   **** 		if (dj->sect && dj->lfn_idx != 0xFFFF) {/* Get LFN if available */
1954:lib/ff/ff.c   **** 			lfn = dj->lfn;
1955:lib/ff/ff.c   **** 			while ((w = *lfn++) != 0) {			/* Get an LFN char */
1956:lib/ff/ff.c   **** #if !_LFN_UNICODE
1957:lib/ff/ff.c   **** 				w = ff_convert(w, 0);			/* Unicode -> OEM conversion */
1958:lib/ff/ff.c   **** 				if (!w) { i = 0; break; }		/* Could not convert, no LFN */
1959:lib/ff/ff.c   **** 				if (_DF1S && w >= 0x100)		/* Put 1st byte if it is a DBC (always false on SBCS cfg) */
1960:lib/ff/ff.c   **** 					tp[i++] = (TCHAR)(w >> 8);
1961:lib/ff/ff.c   **** #endif
1962:lib/ff/ff.c   **** 				if (i >= fno->lfsize - 1) { i = 0; break; }	/* Buffer overflow, no LFN */
1963:lib/ff/ff.c   **** 				tp[i++] = (TCHAR)w;
1964:lib/ff/ff.c   **** 			}
1965:lib/ff/ff.c   **** 		}
1966:lib/ff/ff.c   **** 		tp[i] = 0;	/* Terminate the LFN str by a \0 */
1967:lib/ff/ff.c   **** 	}
1968:lib/ff/ff.c   **** #endif
1969:lib/ff/ff.c   **** }
1970:lib/ff/ff.c   **** #endif /* _FS_MINIMIZE <= 1 || _FS_RPATH >= 2*/
1971:lib/ff/ff.c   **** 
1972:lib/ff/ff.c   **** 
1973:lib/ff/ff.c   **** 
1974:lib/ff/ff.c   **** 
1975:lib/ff/ff.c   **** /*-----------------------------------------------------------------------*/
1976:lib/ff/ff.c   **** /* Follow a file path                                                    */
1977:lib/ff/ff.c   **** /*-----------------------------------------------------------------------*/
1978:lib/ff/ff.c   **** 
1979:lib/ff/ff.c   **** static
1980:lib/ff/ff.c   **** FRESULT follow_path (	/* FR_OK(0): successful, !=0: error code */
1981:lib/ff/ff.c   **** 	DIR *dj,			/* Directory object to return last directory and found object */
1982:lib/ff/ff.c   **** 	const TCHAR *path	/* Full-path string to find a file or directory */
1983:lib/ff/ff.c   **** )
1984:lib/ff/ff.c   **** {
1985:lib/ff/ff.c   **** 	FRESULT res;
1986:lib/ff/ff.c   **** 	BYTE *dir, ns;
1987:lib/ff/ff.c   **** 
1988:lib/ff/ff.c   **** 
1989:lib/ff/ff.c   **** #if _FS_RPATH
1990:lib/ff/ff.c   **** 	if (*path == '/' || *path == '\\') { /* There is a heading separator */
1991:lib/ff/ff.c   **** 		path++;	dj->sclust = 0;		/* Strip it and start from the root dir */
1992:lib/ff/ff.c   **** 	} else {							/* No heading separator */
1993:lib/ff/ff.c   **** 		dj->sclust = dj->fs->cdir;	/* Start from the current dir */
1994:lib/ff/ff.c   **** 	}
1995:lib/ff/ff.c   **** #else
1996:lib/ff/ff.c   **** 	if (*path == '/' || *path == '\\')	/* Strip heading separator if exist */
1997:lib/ff/ff.c   **** 		path++;
1998:lib/ff/ff.c   **** 	dj->sclust = 0;						/* Start from the root dir */
1999:lib/ff/ff.c   **** #endif
2000:lib/ff/ff.c   **** 
2001:lib/ff/ff.c   **** 	if ((UINT)*path < ' ') {			/* Nul path means the start directory itself */
2002:lib/ff/ff.c   **** 		res = dir_sdi(dj, 0);
2003:lib/ff/ff.c   **** 		dj->dir = 0;
2004:lib/ff/ff.c   **** 	} else {							/* Follow path */
2005:lib/ff/ff.c   **** 		for (;;) {
2006:lib/ff/ff.c   **** 			res = create_name(dj, &path);	/* Get a segment */
2007:lib/ff/ff.c   **** 			if (res != FR_OK) break;
2008:lib/ff/ff.c   **** 			res = dir_find(dj);				/* Find it */
2009:lib/ff/ff.c   **** 			ns = *(dj->fn+NS);
2010:lib/ff/ff.c   **** 			if (res != FR_OK) {				/* Failed to find the object */
2011:lib/ff/ff.c   **** 				if (res != FR_NO_FILE) break;	/* Abort if any hard error occurred */
2012:lib/ff/ff.c   **** 				/* Object not found */
2013:lib/ff/ff.c   **** 				if (_FS_RPATH && (ns & NS_DOT)) {	/* If dot entry is not exit */
2014:lib/ff/ff.c   **** 					dj->sclust = 0; dj->dir = 0;	/* It is the root dir */
2015:lib/ff/ff.c   **** 					res = FR_OK;
2016:lib/ff/ff.c   **** 					if (!(ns & NS_LAST)) continue;
2017:lib/ff/ff.c   **** 				} else {							/* Could not find the object */
2018:lib/ff/ff.c   **** 					if (!(ns & NS_LAST)) res = FR_NO_PATH;
2019:lib/ff/ff.c   **** 				}
2020:lib/ff/ff.c   **** 				break;
2021:lib/ff/ff.c   **** 			}
2022:lib/ff/ff.c   **** 			if (ns & NS_LAST) break;			/* Last segment match. Function completed. */
2023:lib/ff/ff.c   **** 			dir = dj->dir;						/* There is next segment. Follow the sub directory */
2024:lib/ff/ff.c   **** 			if (!(dir[DIR_Attr] & AM_DIR)) {	/* Cannot follow because it is a file */
2025:lib/ff/ff.c   **** 				res = FR_NO_PATH; break;
2026:lib/ff/ff.c   **** 			}
2027:lib/ff/ff.c   **** 			dj->sclust = ld_clust(dj->fs, dir);
2028:lib/ff/ff.c   **** 		}
2029:lib/ff/ff.c   **** 	}
2030:lib/ff/ff.c   **** 
2031:lib/ff/ff.c   **** 	return res;
2032:lib/ff/ff.c   **** }
2033:lib/ff/ff.c   **** 
2034:lib/ff/ff.c   **** 
2035:lib/ff/ff.c   **** 
2036:lib/ff/ff.c   **** 
2037:lib/ff/ff.c   **** /*-----------------------------------------------------------------------*/
2038:lib/ff/ff.c   **** /* Load a sector and check if it is an FAT Volume Boot Record            */
2039:lib/ff/ff.c   **** /*-----------------------------------------------------------------------*/
2040:lib/ff/ff.c   **** 
2041:lib/ff/ff.c   **** static
2042:lib/ff/ff.c   **** BYTE check_fs (	/* 0:FAT-VBR, 1:Any BR but not FAT, 2:Not a BR, 3:Disk error */
2043:lib/ff/ff.c   **** 	FATFS *fs,	/* File system object */
2044:lib/ff/ff.c   **** 	DWORD sect	/* Sector# (lba) to check if it is an FAT boot record or not */
2045:lib/ff/ff.c   **** )
2046:lib/ff/ff.c   **** {
2047:lib/ff/ff.c   **** 	if (disk_read(fs->drv, fs->win, sect, 1) != RES_OK)	/* Load boot record */
2048:lib/ff/ff.c   **** 		return 3;
2049:lib/ff/ff.c   **** 	if (LD_WORD(&fs->win[BS_55AA]) != 0xAA55)		/* Check record signature (always placed at offset 510 
2050:lib/ff/ff.c   **** 		return 2;
2051:lib/ff/ff.c   **** 
2052:lib/ff/ff.c   **** 	if ((LD_DWORD(&fs->win[BS_FilSysType]) & 0xFFFFFF) == 0x544146)	/* Check "FAT" string */
2053:lib/ff/ff.c   **** 		return 0;
2054:lib/ff/ff.c   **** 	if ((LD_DWORD(&fs->win[BS_FilSysType32]) & 0xFFFFFF) == 0x544146)
2055:lib/ff/ff.c   **** 		return 0;
2056:lib/ff/ff.c   **** 
2057:lib/ff/ff.c   **** 	return 1;
2058:lib/ff/ff.c   **** }
2059:lib/ff/ff.c   **** 
2060:lib/ff/ff.c   **** 
2061:lib/ff/ff.c   **** 
2062:lib/ff/ff.c   **** 
2063:lib/ff/ff.c   **** /*-----------------------------------------------------------------------*/
2064:lib/ff/ff.c   **** /* Check if the file system object is valid or not                       */
2065:lib/ff/ff.c   **** /*-----------------------------------------------------------------------*/
2066:lib/ff/ff.c   **** 
2067:lib/ff/ff.c   **** static
2068:lib/ff/ff.c   **** FRESULT chk_mounted (	/* FR_OK(0): successful, !=0: any error occurred */
2069:lib/ff/ff.c   **** 	const TCHAR **path,	/* Pointer to pointer to the path name (drive number) */
2070:lib/ff/ff.c   **** 	FATFS **rfs,		/* Pointer to pointer to the found file system object */
2071:lib/ff/ff.c   **** 	BYTE wmode			/* !=0: Check write protection for write access */
2072:lib/ff/ff.c   **** )
2073:lib/ff/ff.c   **** {
2074:lib/ff/ff.c   **** 	BYTE fmt, b, pi, *tbl;
2075:lib/ff/ff.c   **** 	UINT vol;
2076:lib/ff/ff.c   **** 	DSTATUS stat;
2077:lib/ff/ff.c   **** 	DWORD bsect, fasize, tsect, sysect, nclst, szbfat;
2078:lib/ff/ff.c   **** 	WORD nrsv;
2079:lib/ff/ff.c   **** 	const TCHAR *p = *path;
2080:lib/ff/ff.c   **** 	FATFS *fs;
2081:lib/ff/ff.c   **** 
2082:lib/ff/ff.c   **** 
2083:lib/ff/ff.c   **** 	/* Get logical drive number from the path name */
2084:lib/ff/ff.c   **** 	vol = p[0] - '0';					/* Is there a drive number? */
2085:lib/ff/ff.c   **** 	if (vol <= 9 && p[1] == ':') {		/* Found a drive number, get and strip it */
2086:lib/ff/ff.c   **** 		p += 2; *path = p;				/* Return pointer to the path name */
2087:lib/ff/ff.c   **** 	} else {							/* No drive number, use default drive */
2088:lib/ff/ff.c   **** #if _FS_RPATH
2089:lib/ff/ff.c   **** 		vol = CurrVol;					/* Use current drive */
2090:lib/ff/ff.c   **** #else
2091:lib/ff/ff.c   **** 		vol = 0;						/* Use drive 0 */
2092:lib/ff/ff.c   **** #endif
2093:lib/ff/ff.c   **** 	}
2094:lib/ff/ff.c   **** 
2095:lib/ff/ff.c   **** 	/* Check if the file system object is valid or not */
2096:lib/ff/ff.c   **** 	*rfs = 0;
2097:lib/ff/ff.c   **** 	if (vol >= _VOLUMES) 				/* Is the drive number valid? */
2098:lib/ff/ff.c   **** 		return FR_INVALID_DRIVE;
2099:lib/ff/ff.c   **** 	fs = FatFs[vol];					/* Get corresponding file system object */
2100:lib/ff/ff.c   **** 	if (!fs) return FR_NOT_ENABLED;		/* Is the file system object available? */
2101:lib/ff/ff.c   **** 
2102:lib/ff/ff.c   **** 	ENTER_FF(fs);						/* Lock volume */
2103:lib/ff/ff.c   **** 
2104:lib/ff/ff.c   **** 	*rfs = fs;							/* Return pointer to the corresponding file system object */
2105:lib/ff/ff.c   **** 	if (fs->fs_type) {					/* If the volume has been mounted */
2106:lib/ff/ff.c   **** 		stat = disk_status(fs->drv);
2107:lib/ff/ff.c   **** 		if (!(stat & STA_NOINIT)) {		/* and the physical drive is kept initialized (has not been changed)
2108:lib/ff/ff.c   **** 			if (!_FS_READONLY && wmode && (stat & STA_PROTECT))	/* Check write protection if needed */
2109:lib/ff/ff.c   **** 				return FR_WRITE_PROTECTED;
2110:lib/ff/ff.c   **** 			return FR_OK;				/* The file system object is valid */
2111:lib/ff/ff.c   **** 		}
2112:lib/ff/ff.c   **** 	}
2113:lib/ff/ff.c   **** 
2114:lib/ff/ff.c   **** 	/* The file system object is not valid. */
2115:lib/ff/ff.c   **** 	/* Following code attempts to mount the volume. (analyze BPB and initialize the fs object) */
2116:lib/ff/ff.c   **** 
2117:lib/ff/ff.c   **** 	fs->fs_type = 0;					/* Clear the file system object */
2118:lib/ff/ff.c   **** 	fs->drv = LD2PD(vol);				/* Bind the logical drive and a physical drive */
2119:lib/ff/ff.c   **** 	stat = disk_initialize(fs->drv);	/* Initialize the physical drive */
2120:lib/ff/ff.c   **** 	if (stat & STA_NOINIT)				/* Check if the initialization succeeded */
2121:lib/ff/ff.c   **** 		return FR_NOT_READY;			/* Failed to initialize due to no medium or hard error */
2122:lib/ff/ff.c   **** 	if (!_FS_READONLY && wmode && (stat & STA_PROTECT))	/* Check disk write protection if needed */
2123:lib/ff/ff.c   **** 		return FR_WRITE_PROTECTED;
2124:lib/ff/ff.c   **** #if _MAX_SS != 512						/* Get disk sector size (variable sector size cfg only) */
2125:lib/ff/ff.c   **** 	if (disk_ioctl(fs->drv, GET_SECTOR_SIZE, &fs->ssize) != RES_OK)
2126:lib/ff/ff.c   **** 		return FR_DISK_ERR;
2127:lib/ff/ff.c   **** #endif
2128:lib/ff/ff.c   **** 	/* Search FAT partition on the drive. Supports only generic partitions, FDISK and SFD. */
2129:lib/ff/ff.c   **** 	fmt = check_fs(fs, bsect = 0);		/* Load sector 0 and check if it is an FAT-VBR (in SFD) */
2130:lib/ff/ff.c   **** 	if (LD2PT(vol) && !fmt) fmt = 1;	/* Force non-SFD if the volume is forced partition */
2131:lib/ff/ff.c   **** 	if (fmt == 1) {						/* Not an FAT-VBR, the physical drive can be partitioned */
2132:lib/ff/ff.c   **** 		/* Check the partition listed in the partition table */
2133:lib/ff/ff.c   **** 		pi = LD2PT(vol);
2134:lib/ff/ff.c   **** 		if (pi) pi--;
2135:lib/ff/ff.c   **** 		tbl = &fs->win[MBR_Table + pi * SZ_PTE];/* Partition table */
2136:lib/ff/ff.c   **** 		if (tbl[4]) {						/* Is the partition existing? */
2137:lib/ff/ff.c   **** 			bsect = LD_DWORD(&tbl[8]);		/* Partition offset in LBA */
2138:lib/ff/ff.c   **** 			fmt = check_fs(fs, bsect);		/* Check the partition */
2139:lib/ff/ff.c   **** 		}
2140:lib/ff/ff.c   **** 	}
2141:lib/ff/ff.c   **** 	if (fmt == 3) return FR_DISK_ERR;
2142:lib/ff/ff.c   **** 	if (fmt) return FR_NO_FILESYSTEM;		/* No FAT volume is found */
2143:lib/ff/ff.c   **** 
2144:lib/ff/ff.c   **** 	/* An FAT volume is found. Following code initializes the file system object */
2145:lib/ff/ff.c   **** 
2146:lib/ff/ff.c   **** 	if (LD_WORD(fs->win+BPB_BytsPerSec) != SS(fs))		/* (BPB_BytsPerSec must be equal to the physical s
2147:lib/ff/ff.c   **** 		return FR_NO_FILESYSTEM;
2148:lib/ff/ff.c   **** 
2149:lib/ff/ff.c   **** 	fasize = LD_WORD(fs->win+BPB_FATSz16);				/* Number of sectors per FAT */
2150:lib/ff/ff.c   **** 	if (!fasize) fasize = LD_DWORD(fs->win+BPB_FATSz32);
2151:lib/ff/ff.c   **** 	fs->fsize = fasize;
2152:lib/ff/ff.c   **** 
2153:lib/ff/ff.c   **** 	fs->n_fats = b = fs->win[BPB_NumFATs];				/* Number of FAT copies */
2154:lib/ff/ff.c   **** 	if (b != 1 && b != 2) return FR_NO_FILESYSTEM;		/* (Must be 1 or 2) */
2155:lib/ff/ff.c   **** 	fasize *= b;										/* Number of sectors for FAT area */
2156:lib/ff/ff.c   **** 
2157:lib/ff/ff.c   **** 	fs->csize = b = fs->win[BPB_SecPerClus];			/* Number of sectors per cluster */
2158:lib/ff/ff.c   **** 	if (!b || (b & (b - 1))) return FR_NO_FILESYSTEM;	/* (Must be power of 2) */
2159:lib/ff/ff.c   **** 
2160:lib/ff/ff.c   **** 	fs->n_rootdir = LD_WORD(fs->win+BPB_RootEntCnt);	/* Number of root directory entries */
2161:lib/ff/ff.c   **** 	if (fs->n_rootdir % (SS(fs) / SZ_DIR)) return FR_NO_FILESYSTEM;	/* (BPB_RootEntCnt must be sector 
2162:lib/ff/ff.c   **** 
2163:lib/ff/ff.c   **** 	tsect = LD_WORD(fs->win+BPB_TotSec16);				/* Number of sectors on the volume */
2164:lib/ff/ff.c   **** 	if (!tsect) tsect = LD_DWORD(fs->win+BPB_TotSec32);
2165:lib/ff/ff.c   **** 
2166:lib/ff/ff.c   **** 	nrsv = LD_WORD(fs->win+BPB_RsvdSecCnt);				/* Number of reserved sectors */
2167:lib/ff/ff.c   **** 	if (!nrsv) return FR_NO_FILESYSTEM;					/* (BPB_RsvdSecCnt must not be 0) */
2168:lib/ff/ff.c   **** 
2169:lib/ff/ff.c   **** 	/* Determine the FAT sub type */
2170:lib/ff/ff.c   **** 	sysect = nrsv + fasize + fs->n_rootdir / (SS(fs) / SZ_DIR);	/* RSV+FAT+DIR */
2171:lib/ff/ff.c   **** 	if (tsect < sysect) return FR_NO_FILESYSTEM;		/* (Invalid volume size) */
2172:lib/ff/ff.c   **** 	nclst = (tsect - sysect) / fs->csize;				/* Number of clusters */
2173:lib/ff/ff.c   **** 	if (!nclst) return FR_NO_FILESYSTEM;				/* (Invalid volume size) */
2174:lib/ff/ff.c   **** 	fmt = FS_FAT12;
2175:lib/ff/ff.c   **** 	if (nclst >= MIN_FAT16) fmt = FS_FAT16;
2176:lib/ff/ff.c   **** 	if (nclst >= MIN_FAT32) fmt = FS_FAT32;
2177:lib/ff/ff.c   **** 
2178:lib/ff/ff.c   **** 	/* Boundaries and Limits */
2179:lib/ff/ff.c   **** 	fs->n_fatent = nclst + 2;							/* Number of FAT entries */
2180:lib/ff/ff.c   **** 	fs->volbase = bsect;								/* Volume start sector */
2181:lib/ff/ff.c   **** 	fs->fatbase = bsect + nrsv; 						/* FAT start sector */
2182:lib/ff/ff.c   **** 	fs->database = bsect + sysect;						/* Data start sector */
2183:lib/ff/ff.c   **** 	if (fmt == FS_FAT32) {
2184:lib/ff/ff.c   **** 		if (fs->n_rootdir) return FR_NO_FILESYSTEM;		/* (BPB_RootEntCnt must be 0) */
2185:lib/ff/ff.c   **** 		fs->dirbase = LD_DWORD(fs->win+BPB_RootClus);	/* Root directory start cluster */
2186:lib/ff/ff.c   **** 		szbfat = fs->n_fatent * 4;						/* (Required FAT size) */
2187:lib/ff/ff.c   **** 	} else {
2188:lib/ff/ff.c   **** 		if (!fs->n_rootdir)	return FR_NO_FILESYSTEM;	/* (BPB_RootEntCnt must not be 0) */
2189:lib/ff/ff.c   **** 		fs->dirbase = fs->fatbase + fasize;				/* Root directory start sector */
2190:lib/ff/ff.c   **** 		szbfat = (fmt == FS_FAT16) ?					/* (Required FAT size) */
2191:lib/ff/ff.c   **** 			fs->n_fatent * 2 : fs->n_fatent * 3 / 2 + (fs->n_fatent & 1);
2192:lib/ff/ff.c   **** 	}
2193:lib/ff/ff.c   **** 	if (fs->fsize < (szbfat + (SS(fs) - 1)) / SS(fs))	/* (BPB_FATSz must not be less than required) */
2194:lib/ff/ff.c   **** 		return FR_NO_FILESYSTEM;
2195:lib/ff/ff.c   **** 
2196:lib/ff/ff.c   **** #if !_FS_READONLY
2197:lib/ff/ff.c   **** 	/* Initialize cluster allocation information */
2198:lib/ff/ff.c   **** 	fs->free_clust = 0xFFFFFFFF;
2199:lib/ff/ff.c   **** 	fs->last_clust = 0;
2200:lib/ff/ff.c   **** 
2201:lib/ff/ff.c   **** 	/* Get fsinfo if available */
2202:lib/ff/ff.c   **** 	if (fmt == FS_FAT32) {
2203:lib/ff/ff.c   **** 	 	fs->fsi_flag = 0;
2204:lib/ff/ff.c   **** 		fs->fsi_sector = bsect + LD_WORD(fs->win+BPB_FSInfo);
2205:lib/ff/ff.c   **** 		if (disk_read(fs->drv, fs->win, fs->fsi_sector, 1) == RES_OK &&
2206:lib/ff/ff.c   **** 			LD_WORD(fs->win+BS_55AA) == 0xAA55 &&
2207:lib/ff/ff.c   **** 			LD_DWORD(fs->win+FSI_LeadSig) == 0x41615252 &&
2208:lib/ff/ff.c   **** 			LD_DWORD(fs->win+FSI_StrucSig) == 0x61417272) {
2209:lib/ff/ff.c   **** 				fs->last_clust = LD_DWORD(fs->win+FSI_Nxt_Free);
2210:lib/ff/ff.c   **** 				fs->free_clust = LD_DWORD(fs->win+FSI_Free_Count);
2211:lib/ff/ff.c   **** 		}
2212:lib/ff/ff.c   **** 	}
2213:lib/ff/ff.c   **** #endif
2214:lib/ff/ff.c   **** 	fs->fs_type = fmt;		/* FAT sub-type */
2215:lib/ff/ff.c   **** 	fs->id = ++Fsid;		/* File system mount ID */
2216:lib/ff/ff.c   **** 	fs->winsect = 0;		/* Invalidate sector cache */
2217:lib/ff/ff.c   **** 	fs->wflag = 0;
2218:lib/ff/ff.c   **** #if _FS_RPATH
2219:lib/ff/ff.c   **** 	fs->cdir = 0;			/* Current directory (root dir) */
2220:lib/ff/ff.c   **** #endif
2221:lib/ff/ff.c   **** #if _FS_LOCK				/* Clear file lock semaphores */
2222:lib/ff/ff.c   **** 	clear_lock(fs);
2223:lib/ff/ff.c   **** #endif
2224:lib/ff/ff.c   **** 
2225:lib/ff/ff.c   **** 	return FR_OK;
2226:lib/ff/ff.c   **** }
2227:lib/ff/ff.c   **** 
2228:lib/ff/ff.c   **** 
2229:lib/ff/ff.c   **** 
2230:lib/ff/ff.c   **** 
2231:lib/ff/ff.c   **** /*-----------------------------------------------------------------------*/
2232:lib/ff/ff.c   **** /* Check if the file/dir object is valid or not                          */
2233:lib/ff/ff.c   **** /*-----------------------------------------------------------------------*/
2234:lib/ff/ff.c   **** 
2235:lib/ff/ff.c   **** static
2236:lib/ff/ff.c   **** FRESULT validate (	/* FR_OK(0): The object is valid, !=0: Invalid */
2237:lib/ff/ff.c   **** 	void* obj		/* Pointer to the object FIL/DIR to check validity */
2238:lib/ff/ff.c   **** )
2239:lib/ff/ff.c   **** {
 281              		.loc 1 2239 0
 282              		.cfi_startproc
 283              		@ args = 0, pretend = 0, frame = 0
 284              		@ frame_needed = 0, uses_anonymous_args = 0
 285              	.LVL39:
 286 0000 08B5     		push	{r3, lr}
 287              	.LCFI2:
 288              		.cfi_def_cfa_offset 8
 289              		.cfi_offset 3, -8
 290              		.cfi_offset 14, -4
 291              	.LVL40:
2240:lib/ff/ff.c   **** 	FIL *fil = (FIL*)obj;	/* Assuming offset of fs and id in the FIL/DIR is identical */
2241:lib/ff/ff.c   **** 
2242:lib/ff/ff.c   **** 
2243:lib/ff/ff.c   **** 	if (!fil || !fil->fs || !fil->fs->fs_type || fil->fs->id != fil->id)
 292              		.loc 1 2243 0
 293 0002 80B1     		cbz	r0, .L45
 294              		.loc 1 2243 0 is_stmt 0 discriminator 1
 295 0004 0368     		ldr	r3, [r0, #0]
 296 0006 73B1     		cbz	r3, .L45
 297 0008 1A78     		ldrb	r2, [r3, #0]	@ zero_extendqisi2
 298 000a 62B1     		cbz	r2, .L45
 299 000c D988     		ldrh	r1, [r3, #6]
 300 000e 8088     		ldrh	r0, [r0, #4]
 301              	.LVL41:
 302 0010 8142     		cmp	r1, r0
 303 0012 08D1     		bne	.L45
2244:lib/ff/ff.c   **** 		return FR_INVALID_OBJECT;
2245:lib/ff/ff.c   **** 
2246:lib/ff/ff.c   **** 	ENTER_FF(fil->fs);		/* Lock file system */
2247:lib/ff/ff.c   **** 
2248:lib/ff/ff.c   **** 	if (disk_status(fil->fs->drv) & STA_NOINIT)
 304              		.loc 1 2248 0 is_stmt 1
 305 0014 5878     		ldrb	r0, [r3, #1]	@ zero_extendqisi2
 306 0016 FFF7FEFF 		bl	disk_status
 307              	.LVL42:
 308 001a 10F0010F 		tst	r0, #1
2249:lib/ff/ff.c   **** 		return FR_NOT_READY;
 309              		.loc 1 2249 0
 310 001e 0CBF     		ite	eq
 311 0020 0020     		moveq	r0, #0
 312 0022 0320     		movne	r0, #3
 313 0024 08BD     		pop	{r3, pc}
 314              	.L45:
2244:lib/ff/ff.c   **** 		return FR_INVALID_OBJECT;
 315              		.loc 1 2244 0
 316 0026 0920     		movs	r0, #9
2250:lib/ff/ff.c   **** 
2251:lib/ff/ff.c   **** 	return FR_OK;
2252:lib/ff/ff.c   **** }
 317              		.loc 1 2252 0
 318 0028 08BD     		pop	{r3, pc}
 319              		.cfi_endproc
 320              	.LFE27:
 322              		.section	.text.sync_window,"ax",%progbits
 323              		.align	1
 324              		.thumb
 325              		.thumb_func
 327              	sync_window:
 328              	.LFB4:
 735:lib/ff/ff.c   **** 	DWORD wsect;
 329              		.loc 1 735 0
 330              		.cfi_startproc
 331              		@ args = 0, pretend = 0, frame = 0
 332              		@ frame_needed = 0, uses_anonymous_args = 0
 333              	.LVL43:
 334 0000 F8B5     		push	{r3, r4, r5, r6, r7, lr}
 335              	.LCFI3:
 336              		.cfi_def_cfa_offset 24
 337              		.cfi_offset 3, -24
 338              		.cfi_offset 4, -20
 339              		.cfi_offset 5, -16
 340              		.cfi_offset 6, -12
 341              		.cfi_offset 7, -8
 342              		.cfi_offset 14, -4
 343 0002 0446     		mov	r4, r0
 740:lib/ff/ff.c   **** 		wsect = fs->winsect;	/* Current sector number */
 344              		.loc 1 740 0
 345 0004 0079     		ldrb	r0, [r0, #4]	@ zero_extendqisi2
 346              	.LVL44:
 347 0006 08B3     		cbz	r0, .L48
 348              	.LVL45:
 349              	.LBB17:
 350              	.LBB18:
 741:lib/ff/ff.c   **** 		if (disk_write(fs->drv, fs->win, wsect, 1) != RES_OK)
 351              		.loc 1 741 0
 352 0008 656B     		ldr	r5, [r4, #52]
 353              	.LVL46:
 742:lib/ff/ff.c   **** 			return FR_DISK_ERR;
 354              		.loc 1 742 0
 355 000a 04F13807 		add	r7, r4, #56
 356 000e 6078     		ldrb	r0, [r4, #1]	@ zero_extendqisi2
 357 0010 3946     		mov	r1, r7
 358 0012 2A46     		mov	r2, r5
 359 0014 0123     		movs	r3, #1
 360 0016 FFF7FEFF 		bl	disk_write
 361              	.LVL47:
 362 001a B0B9     		cbnz	r0, .L55
 744:lib/ff/ff.c   **** 		if (wsect >= fs->fatbase && wsect < (fs->fatbase + fs->fsize)) {	/* In FAT area? */
 363              		.loc 1 744 0
 364 001c 2071     		strb	r0, [r4, #4]
 745:lib/ff/ff.c   **** 			for (nf = fs->n_fats; nf >= 2; nf--) {	/* Reflect the change to all FAT copies */
 365              		.loc 1 745 0
 366 001e A36A     		ldr	r3, [r4, #40]
 367 0020 9D42     		cmp	r5, r3
 368 0022 01D2     		bcs	.L50
 369              	.L51:
 752:lib/ff/ff.c   **** }
 370              		.loc 1 752 0
 371 0024 0020     		movs	r0, #0
 372 0026 F8BD     		pop	{r3, r4, r5, r6, r7, pc}
 373              	.L50:
 745:lib/ff/ff.c   **** 			for (nf = fs->n_fats; nf >= 2; nf--) {	/* Reflect the change to all FAT copies */
 374              		.loc 1 745 0
 375 0028 226A     		ldr	r2, [r4, #32]
 376 002a 9818     		adds	r0, r3, r2
 377 002c 8542     		cmp	r5, r0
 378 002e F9D2     		bcs	.L51
 746:lib/ff/ff.c   **** 				wsect += fs->fsize;
 379              		.loc 1 746 0
 380 0030 E678     		ldrb	r6, [r4, #3]	@ zero_extendqisi2
 381              	.LVL48:
 382              	.L52:
 383 0032 012E     		cmp	r6, #1
 384 0034 F6D9     		bls	.L51
 385              	.L53:
 747:lib/ff/ff.c   **** 				disk_write(fs->drv, fs->win, wsect, 1);
 386              		.loc 1 747 0
 387 0036 216A     		ldr	r1, [r4, #32]
 388 0038 6D18     		adds	r5, r5, r1
 389              	.LVL49:
 748:lib/ff/ff.c   **** 			}
 390              		.loc 1 748 0
 391 003a 6078     		ldrb	r0, [r4, #1]	@ zero_extendqisi2
 392 003c 3946     		mov	r1, r7
 393 003e 2A46     		mov	r2, r5
 394 0040 0123     		movs	r3, #1
 395 0042 FFF7FEFF 		bl	disk_write
 396              	.LVL50:
 746:lib/ff/ff.c   **** 				wsect += fs->fsize;
 397              		.loc 1 746 0
 398 0046 013E     		subs	r6, r6, #1
 399              	.LVL51:
 400 0048 F3E7     		b	.L52
 401              	.LVL52:
 402              	.L55:
 743:lib/ff/ff.c   **** 		fs->wflag = 0;
 403              		.loc 1 743 0
 404 004a 0120     		movs	r0, #1
 405              	.LVL53:
 406              	.L48:
 407              	.LBE18:
 408              	.LBE17:
 753:lib/ff/ff.c   **** #endif
 409              		.loc 1 753 0
 410 004c F8BD     		pop	{r3, r4, r5, r6, r7, pc}
 411              		.cfi_endproc
 412              	.LFE4:
 414              		.section	.text.sync_fs,"ax",%progbits
 415              		.align	1
 416              		.thumb
 417              		.thumb_func
 419              	sync_fs:
 420              	.LFB6:
 787:lib/ff/ff.c   **** 	FRESULT res;
 421              		.loc 1 787 0
 422              		.cfi_startproc
 423              		@ args = 0, pretend = 0, frame = 0
 424              		@ frame_needed = 0, uses_anonymous_args = 0
 425              	.LVL54:
 426 0000 70B5     		push	{r4, r5, r6, lr}
 427              	.LCFI4:
 428              		.cfi_def_cfa_offset 16
 429              		.cfi_offset 4, -16
 430              		.cfi_offset 5, -12
 431              		.cfi_offset 6, -8
 432              		.cfi_offset 14, -4
 433 0002 0446     		mov	r4, r0
 791:lib/ff/ff.c   **** 	if (res == FR_OK) {
 434              		.loc 1 791 0
 435 0004 FFF7FEFF 		bl	sync_window
 436              	.LVL55:
 437 0008 0546     		mov	r5, r0
 438              	.LVL56:
 792:lib/ff/ff.c   **** 		/* Update FSInfo sector if needed */
 439              		.loc 1 792 0
 440 000a 5DBB     		cbnz	r5, .L57
 794:lib/ff/ff.c   **** 			fs->winsect = 0;
 441              		.loc 1 794 0
 442 000c 2378     		ldrb	r3, [r4, #0]	@ zero_extendqisi2
 443 000e 032B     		cmp	r3, #3
 444 0010 20D1     		bne	.L58
 794:lib/ff/ff.c   **** 			fs->winsect = 0;
 445              		.loc 1 794 0 is_stmt 0 discriminator 1
 446 0012 6079     		ldrb	r0, [r4, #5]	@ zero_extendqisi2
 447              	.LVL57:
 448 0014 F0B1     		cbz	r0, .L58
 795:lib/ff/ff.c   **** 			/* Create FSInfo structure */
 449              		.loc 1 795 0 is_stmt 1
 450 0016 6563     		str	r5, [r4, #52]
 797:lib/ff/ff.c   **** 			ST_WORD(fs->win+BS_55AA, 0xAA55);
 451              		.loc 1 797 0
 452 0018 04F13806 		add	r6, r4, #56
 453 001c 3046     		mov	r0, r6
 454 001e 2946     		mov	r1, r5
 455 0020 4FF40072 		mov	r2, #512
 456 0024 FFF7FEFF 		bl	mem_set
 457              	.LVL58:
 798:lib/ff/ff.c   **** 			ST_DWORD(fs->win+FSI_LeadSig, 0x41615252);
 458              		.loc 1 798 0
 459 0028 4AF65521 		movw	r1, #43605
 460 002c A4F83612 		strh	r1, [r4, #566]	@ movhi
 799:lib/ff/ff.c   **** 			ST_DWORD(fs->win+FSI_StrucSig, 0x61417272);
 461              		.loc 1 799 0
 462 0030 0D4A     		ldr	r2, .L62
 463 0032 A263     		str	r2, [r4, #56]
 800:lib/ff/ff.c   **** 			ST_DWORD(fs->win+FSI_Free_Count, fs->free_clust);
 464              		.loc 1 800 0
 465 0034 0D4B     		ldr	r3, .L62+4
 466 0036 C4F81C32 		str	r3, [r4, #540]
 801:lib/ff/ff.c   **** 			ST_DWORD(fs->win+FSI_Nxt_Free, fs->last_clust);
 467              		.loc 1 801 0
 468 003a 2069     		ldr	r0, [r4, #16]
 469 003c C4F82002 		str	r0, [r4, #544]
 802:lib/ff/ff.c   **** 			/* Write it into the FSInfo sector */
 470              		.loc 1 802 0
 471 0040 E168     		ldr	r1, [r4, #12]
 472 0042 C4F82412 		str	r1, [r4, #548]
 804:lib/ff/ff.c   **** 			fs->fsi_flag = 0;
 473              		.loc 1 804 0
 474 0046 6078     		ldrb	r0, [r4, #1]	@ zero_extendqisi2
 475 0048 3146     		mov	r1, r6
 476 004a 6269     		ldr	r2, [r4, #20]
 477 004c 0123     		movs	r3, #1
 478 004e FFF7FEFF 		bl	disk_write
 479              	.LVL59:
 805:lib/ff/ff.c   **** 		}
 480              		.loc 1 805 0
 481 0052 6571     		strb	r5, [r4, #5]
 482              	.L58:
 808:lib/ff/ff.c   **** 			res = FR_DISK_ERR;
 483              		.loc 1 808 0
 484 0054 6078     		ldrb	r0, [r4, #1]	@ zero_extendqisi2
 485 0056 0021     		movs	r1, #0
 486 0058 0A46     		mov	r2, r1
 487 005a FFF7FEFF 		bl	disk_ioctl
 488              	.LVL60:
 489 005e 0030     		adds	r0, r0, #0
 490 0060 18BF     		it	ne
 491 0062 0120     		movne	r0, #1
 492              	.L57:
 493              	.LVL61:
 813:lib/ff/ff.c   **** #endif
 494              		.loc 1 813 0
 495 0064 70BD     		pop	{r4, r5, r6, pc}
 496              	.L63:
 497 0066 00BF     		.align	2
 498              	.L62:
 499 0068 52526141 		.word	1096897106
 500 006c 72724161 		.word	1631679090
 501              		.cfi_endproc
 502              	.LFE6:
 504              		.section	.text.move_window,"ax",%progbits
 505              		.align	1
 506              		.thumb
 507              		.thumb_func
 509              	move_window:
 510              	.LFB5:
 762:lib/ff/ff.c   **** 	if (sector != fs->winsect) {	/* Changed current window */
 511              		.loc 1 762 0
 512              		.cfi_startproc
 513              		@ args = 0, pretend = 0, frame = 0
 514              		@ frame_needed = 0, uses_anonymous_args = 0
 515              	.LVL62:
 516 0000 38B5     		push	{r3, r4, r5, lr}
 517              	.LCFI5:
 518              		.cfi_def_cfa_offset 16
 519              		.cfi_offset 3, -16
 520              		.cfi_offset 4, -12
 521              		.cfi_offset 5, -8
 522              		.cfi_offset 14, -4
 523 0002 0446     		mov	r4, r0
 524 0004 0D46     		mov	r5, r1
 763:lib/ff/ff.c   **** #if !_FS_READONLY
 525              		.loc 1 763 0
 526 0006 436B     		ldr	r3, [r0, #52]
 527 0008 9942     		cmp	r1, r3
 528 000a 0CD0     		beq	.L67
 765:lib/ff/ff.c   **** 			return FR_DISK_ERR;
 529              		.loc 1 765 0
 530 000c FFF7FEFF 		bl	sync_window
 531              	.LVL63:
 532 0010 58B9     		cbnz	r0, .L68
 533              	.LVL64:
 534              	.LBB21:
 535              	.LBB22:
 768:lib/ff/ff.c   **** 			return FR_DISK_ERR;
 536              		.loc 1 768 0
 537 0012 6078     		ldrb	r0, [r4, #1]	@ zero_extendqisi2
 538 0014 04F13801 		add	r1, r4, #56
 539 0018 2A46     		mov	r2, r5
 540 001a 0123     		movs	r3, #1
 541 001c FFF7FEFF 		bl	disk_read
 542              	.LVL65:
 543 0020 18B9     		cbnz	r0, .L68
 770:lib/ff/ff.c   **** 	}
 544              		.loc 1 770 0
 545 0022 6563     		str	r5, [r4, #52]
 546 0024 38BD     		pop	{r3, r4, r5, pc}
 547              	.LVL66:
 548              	.L67:
 549              	.LBE22:
 550              	.LBE21:
 773:lib/ff/ff.c   **** }
 551              		.loc 1 773 0
 552 0026 0020     		movs	r0, #0
 553              	.LVL67:
 554 0028 38BD     		pop	{r3, r4, r5, pc}
 555              	.LVL68:
 556              	.L68:
 766:lib/ff/ff.c   **** #endif
 557              		.loc 1 766 0
 558 002a 0120     		movs	r0, #1
 774:lib/ff/ff.c   **** 
 559              		.loc 1 774 0
 560 002c 38BD     		pop	{r3, r4, r5, pc}
 561              		.cfi_endproc
 562              	.LFE5:
 564              		.section	.text.check_fs,"ax",%progbits
 565              		.align	1
 566              		.thumb
 567              		.thumb_func
 569              	check_fs:
 570              	.LFB25:
2046:lib/ff/ff.c   **** 	if (disk_read(fs->drv, fs->win, sect, 1) != RES_OK)	/* Load boot record */
 571              		.loc 1 2046 0
 572              		.cfi_startproc
 573              		@ args = 0, pretend = 0, frame = 0
 574              		@ frame_needed = 0, uses_anonymous_args = 0
 575              	.LVL69:
 576 0000 10B5     		push	{r4, lr}
 577              	.LCFI6:
 578              		.cfi_def_cfa_offset 8
 579              		.cfi_offset 4, -8
 580              		.cfi_offset 14, -4
 581 0002 0446     		mov	r4, r0
 582 0004 0A46     		mov	r2, r1
2047:lib/ff/ff.c   **** 		return 3;
 583              		.loc 1 2047 0
 584 0006 4078     		ldrb	r0, [r0, #1]	@ zero_extendqisi2
 585              	.LVL70:
 586 0008 04F13801 		add	r1, r4, #56
 587              	.LVL71:
 588 000c 0123     		movs	r3, #1
 589 000e FFF7FEFF 		bl	disk_read
 590              	.LVL72:
 591 0012 A0B9     		cbnz	r0, .L72
2049:lib/ff/ff.c   **** 		return 2;
 592              		.loc 1 2049 0
 593 0014 B4F83622 		ldrh	r2, [r4, #566]
 594 0018 4AF65523 		movw	r3, #43605
 595 001c 9A42     		cmp	r2, r3
 596 001e 10D1     		bne	.L73
2052:lib/ff/ff.c   **** 		return 0;
 597              		.loc 1 2052 0
 598 0020 D4F86E10 		ldr	r1, [r4, #110]
 599 0024 21F07F42 		bic	r2, r1, #-16777216
 600 0028 074B     		ldr	r3, .L75
 601 002a 9A42     		cmp	r2, r3
 602 002c 0AD0     		beq	.L71
 603              	.LVL73:
 604              	.LBB25:
 605              	.LBB26:
2054:lib/ff/ff.c   **** 		return 0;
 606              		.loc 1 2054 0
 607 002e D4F88A00 		ldr	r0, [r4, #138]
 608 0032 20F07F41 		bic	r1, r0, #-16777216
 609              	.LBE26:
 610              	.LBE25:
2055:lib/ff/ff.c   **** 
 611              		.loc 1 2055 0
 612 0036 C81A     		subs	r0, r1, r3
 613 0038 18BF     		it	ne
 614 003a 0120     		movne	r0, #1
 615 003c 10BD     		pop	{r4, pc}
 616              	.LVL74:
 617              	.L72:
2048:lib/ff/ff.c   **** 	if (LD_WORD(&fs->win[BS_55AA]) != 0xAA55)		/* Check record signature (always placed at offset 510 
 618              		.loc 1 2048 0
 619 003e 0320     		movs	r0, #3
 620 0040 10BD     		pop	{r4, pc}
 621              	.L73:
2050:lib/ff/ff.c   **** 
 622              		.loc 1 2050 0
 623 0042 0220     		movs	r0, #2
 624              	.L71:
2058:lib/ff/ff.c   **** 
 625              		.loc 1 2058 0
 626 0044 10BD     		pop	{r4, pc}
 627              	.L76:
 628 0046 00BF     		.align	2
 629              	.L75:
 630 0048 46415400 		.word	5521734
 631              		.cfi_endproc
 632              	.LFE25:
 634              		.section	.text.chk_mounted,"ax",%progbits
 635              		.align	1
 636              		.thumb
 637              		.thumb_func
 639              	chk_mounted:
 640              	.LFB26:
2073:lib/ff/ff.c   **** 	BYTE fmt, b, pi, *tbl;
 641              		.loc 1 2073 0
 642              		.cfi_startproc
 643              		@ args = 0, pretend = 0, frame = 0
 644              		@ frame_needed = 0, uses_anonymous_args = 0
 645              	.LVL75:
 646 0000 2DE9F041 		push	{r4, r5, r6, r7, r8, lr}
 647              	.LCFI7:
 648              		.cfi_def_cfa_offset 24
 649              		.cfi_offset 4, -24
 650              		.cfi_offset 5, -20
 651              		.cfi_offset 6, -16
 652              		.cfi_offset 7, -12
 653              		.cfi_offset 8, -8
 654              		.cfi_offset 14, -4
 655 0004 1546     		mov	r5, r2
2079:lib/ff/ff.c   **** 	FATFS *fs;
 656              		.loc 1 2079 0
 657 0006 0268     		ldr	r2, [r0, #0]
 658              	.LVL76:
2084:lib/ff/ff.c   **** 	if (vol <= 9 && p[1] == ':') {		/* Found a drive number, get and strip it */
 659              		.loc 1 2084 0
 660 0008 92F90030 		ldrsb	r3, [r2, #0]
 661 000c 303B     		subs	r3, r3, #48
 662              	.LVL77:
2085:lib/ff/ff.c   **** 		p += 2; *path = p;				/* Return pointer to the path name */
 663              		.loc 1 2085 0
 664 000e 092B     		cmp	r3, #9
 665 0010 06D8     		bhi	.L78
2085:lib/ff/ff.c   **** 		p += 2; *path = p;				/* Return pointer to the path name */
 666              		.loc 1 2085 0 is_stmt 0 discriminator 1
 667 0012 92F90140 		ldrsb	r4, [r2, #1]
 668 0016 3A2C     		cmp	r4, #58
 669 0018 02D1     		bne	.L78
 670              	.LVL78:
2086:lib/ff/ff.c   **** 	} else {							/* No drive number, use default drive */
 671              		.loc 1 2086 0 is_stmt 1
 672 001a 0232     		adds	r2, r2, #2
 673              	.LVL79:
 674 001c 0260     		str	r2, [r0, #0]
 675 001e 01E0     		b	.L79
 676              	.L78:
2089:lib/ff/ff.c   **** #else
 677              		.loc 1 2089 0
 678 0020 784B     		ldr	r3, .L124
 679              	.LVL80:
 680 0022 1B78     		ldrb	r3, [r3, #0]	@ zero_extendqisi2
 681              	.LVL81:
 682              	.L79:
2096:lib/ff/ff.c   **** 	if (vol >= _VOLUMES) 				/* Is the drive number valid? */
 683              		.loc 1 2096 0
 684 0024 0020     		movs	r0, #0
 685              	.LVL82:
 686 0026 0860     		str	r0, [r1, #0]
2097:lib/ff/ff.c   **** 		return FR_INVALID_DRIVE;
 687              		.loc 1 2097 0
 688 0028 002B     		cmp	r3, #0
 689 002a 40F0D880 		bne	.L96
2099:lib/ff/ff.c   **** 	if (!fs) return FR_NOT_ENABLED;		/* Is the file system object available? */
 690              		.loc 1 2099 0
 691 002e 764C     		ldr	r4, .L124+4
 692 0030 2468     		ldr	r4, [r4, #0]
 693              	.LVL83:
2100:lib/ff/ff.c   **** 
 694              		.loc 1 2100 0
 695 0032 002C     		cmp	r4, #0
 696 0034 00F0D680 		beq	.L97
2104:lib/ff/ff.c   **** 	if (fs->fs_type) {					/* If the volume has been mounted */
 697              		.loc 1 2104 0
 698 0038 0C60     		str	r4, [r1, #0]
2105:lib/ff/ff.c   **** 		stat = disk_status(fs->drv);
 699              		.loc 1 2105 0
 700 003a 2178     		ldrb	r1, [r4, #0]	@ zero_extendqisi2
 701              	.LVL84:
 702 003c 81B1     		cbz	r1, .L81
2106:lib/ff/ff.c   **** 		if (!(stat & STA_NOINIT)) {		/* and the physical drive is kept initialized (has not been changed)
 703              		.loc 1 2106 0
 704 003e 6078     		ldrb	r0, [r4, #1]	@ zero_extendqisi2
 705 0040 FFF7FEFF 		bl	disk_status
 706              	.LVL85:
2107:lib/ff/ff.c   **** 			if (!_FS_READONLY && wmode && (stat & STA_PROTECT))	/* Check write protection if needed */
 707              		.loc 1 2107 0
 708 0044 C307     		lsls	r3, r0, #31
 709 0046 0BD4     		bmi	.L81
2108:lib/ff/ff.c   **** 				return FR_WRITE_PROTECTED;
 710              		.loc 1 2108 0
 711 0048 002D     		cmp	r5, #0
 712 004a 00F0CE80 		beq	.L98
2108:lib/ff/ff.c   **** 				return FR_WRITE_PROTECTED;
 713              		.loc 1 2108 0 is_stmt 0 discriminator 1
 714 004e 00F00402 		and	r2, r0, #4
 715 0052 D3B2     		uxtb	r3, r2
2109:lib/ff/ff.c   **** 			return FR_OK;				/* The file system object is valid */
 716              		.loc 1 2109 0 is_stmt 1 discriminator 1
 717 0054 002B     		cmp	r3, #0
 718 0056 14BF     		ite	ne
 719 0058 0A20     		movne	r0, #10
 720 005a 0020     		moveq	r0, #0
 721              	.LVL86:
 722 005c BDE8F081 		pop	{r4, r5, r6, r7, r8, pc}
 723              	.L81:
2117:lib/ff/ff.c   **** 	fs->drv = LD2PD(vol);				/* Bind the logical drive and a physical drive */
 724              		.loc 1 2117 0
 725 0060 0020     		movs	r0, #0
 726 0062 2070     		strb	r0, [r4, #0]
2118:lib/ff/ff.c   **** 	stat = disk_initialize(fs->drv);	/* Initialize the physical drive */
 727              		.loc 1 2118 0
 728 0064 6070     		strb	r0, [r4, #1]
2119:lib/ff/ff.c   **** 	if (stat & STA_NOINIT)				/* Check if the initialization succeeded */
 729              		.loc 1 2119 0
 730 0066 FFF7FEFF 		bl	disk_initialize
 731              	.LVL87:
2120:lib/ff/ff.c   **** 		return FR_NOT_READY;			/* Failed to initialize due to no medium or hard error */
 732              		.loc 1 2120 0
 733 006a C107     		lsls	r1, r0, #31
 734 006c 00F1C080 		bmi	.L100
2122:lib/ff/ff.c   **** 		return FR_WRITE_PROTECTED;
 735              		.loc 1 2122 0
 736 0070 2DB1     		cbz	r5, .L82
2122:lib/ff/ff.c   **** 		return FR_WRITE_PROTECTED;
 737              		.loc 1 2122 0 is_stmt 0 discriminator 1
 738 0072 00F00403 		and	r3, r0, #4
 739 0076 DAB2     		uxtb	r2, r3
 740 0078 002A     		cmp	r2, #0
 741 007a 40F0BC80 		bne	.L101
 742              	.L82:
 743              	.LVL88:
2129:lib/ff/ff.c   **** 	if (LD2PT(vol) && !fmt) fmt = 1;	/* Force non-SFD if the volume is forced partition */
 744              		.loc 1 2129 0 is_stmt 1
 745 007e 2046     		mov	r0, r4
 746              	.LVL89:
 747 0080 0021     		movs	r1, #0
 748 0082 FFF7FEFF 		bl	check_fs
 749              	.LVL90:
2131:lib/ff/ff.c   **** 		/* Check the partition listed in the partition table */
 750              		.loc 1 2131 0
 751 0086 0128     		cmp	r0, #1
 752 0088 0CD1     		bne	.L102
 753              	.LVL91:
2136:lib/ff/ff.c   **** 			bsect = LD_DWORD(&tbl[8]);		/* Partition offset in LBA */
 754              		.loc 1 2136 0
 755 008a 94F8FA01 		ldrb	r0, [r4, #506]	@ zero_extendqisi2
 756              	.LVL92:
 757 008e 10B9     		cbnz	r0, .L84
 758              	.LVL93:
 759              	.L85:
2142:lib/ff/ff.c   **** 
 760              		.loc 1 2142 0
 761 0090 0D20     		movs	r0, #13
 762 0092 BDE8F081 		pop	{r4, r5, r6, r7, r8, pc}
 763              	.LVL94:
 764              	.L84:
2137:lib/ff/ff.c   **** 			fmt = check_fs(fs, bsect);		/* Check the partition */
 765              		.loc 1 2137 0
 766 0096 D4F8FE51 		ldr	r5, [r4, #510]
 767              	.LVL95:
2138:lib/ff/ff.c   **** 		}
 768              		.loc 1 2138 0
 769 009a 2046     		mov	r0, r4
 770 009c 2946     		mov	r1, r5
 771 009e FFF7FEFF 		bl	check_fs
 772              	.LVL96:
 773 00a2 00E0     		b	.L83
 774              	.LVL97:
 775              	.L102:
2129:lib/ff/ff.c   **** 	if (LD2PT(vol) && !fmt) fmt = 1;	/* Force non-SFD if the volume is forced partition */
 776              		.loc 1 2129 0
 777 00a4 0025     		movs	r5, #0
 778              	.LVL98:
 779              	.L83:
2141:lib/ff/ff.c   **** 	if (fmt) return FR_NO_FILESYSTEM;		/* No FAT volume is found */
 780              		.loc 1 2141 0
 781 00a6 0328     		cmp	r0, #3
 782 00a8 00F0A880 		beq	.L103
2142:lib/ff/ff.c   **** 
 783              		.loc 1 2142 0
 784 00ac 0028     		cmp	r0, #0
 785 00ae EFD1     		bne	.L85
2146:lib/ff/ff.c   **** 		return FR_NO_FILESYSTEM;
 786              		.loc 1 2146 0
 787 00b0 B4F84310 		ldrh	r1, [r4, #67]
 788 00b4 B1F5007F 		cmp	r1, #512
 789 00b8 EAD1     		bne	.L85
2149:lib/ff/ff.c   **** 	if (!fasize) fasize = LD_DWORD(fs->win+BPB_FATSz32);
 790              		.loc 1 2149 0
 791 00ba B4F84E30 		ldrh	r3, [r4, #78]
 792              	.LVL99:
2150:lib/ff/ff.c   **** 	fs->fsize = fasize;
 793              		.loc 1 2150 0
 794 00be 03B9     		cbnz	r3, .L86
2150:lib/ff/ff.c   **** 	fs->fsize = fasize;
 795              		.loc 1 2150 0 is_stmt 0 discriminator 1
 796 00c0 E36D     		ldr	r3, [r4, #92]
 797              	.LVL100:
 798              	.L86:
2151:lib/ff/ff.c   **** 
 799              		.loc 1 2151 0 is_stmt 1
 800 00c2 2362     		str	r3, [r4, #32]
2153:lib/ff/ff.c   **** 	if (b != 1 && b != 2) return FR_NO_FILESYSTEM;		/* (Must be 1 or 2) */
 801              		.loc 1 2153 0
 802 00c4 94F84860 		ldrb	r6, [r4, #72]	@ zero_extendqisi2
 803              	.LVL101:
 804 00c8 E670     		strb	r6, [r4, #3]
2154:lib/ff/ff.c   **** 	fasize *= b;										/* Number of sectors for FAT area */
 805              		.loc 1 2154 0
 806 00ca 721E     		subs	r2, r6, #1
 807 00cc 012A     		cmp	r2, #1
 808 00ce DFD8     		bhi	.L85
 809              	.LVL102:
2157:lib/ff/ff.c   **** 	if (!b || (b & (b - 1))) return FR_NO_FILESYSTEM;	/* (Must be power of 2) */
 810              		.loc 1 2157 0
 811 00d0 94F84500 		ldrb	r0, [r4, #69]	@ zero_extendqisi2
 812              	.LVL103:
 813 00d4 A070     		strb	r0, [r4, #2]
2158:lib/ff/ff.c   **** 
 814              		.loc 1 2158 0
 815 00d6 0028     		cmp	r0, #0
 816 00d8 DAD0     		beq	.L85
2158:lib/ff/ff.c   **** 
 817              		.loc 1 2158 0 is_stmt 0 discriminator 2
 818 00da 411E     		subs	r1, r0, #1
 819 00dc 0142     		tst	r1, r0
 820 00de D7D1     		bne	.L85
2160:lib/ff/ff.c   **** 	if (fs->n_rootdir % (SS(fs) / SZ_DIR)) return FR_NO_FILESYSTEM;	/* (BPB_RootEntCnt must be sector 
 821              		.loc 1 2160 0 is_stmt 1
 822 00e0 B4F84910 		ldrh	r1, [r4, #73]
 823 00e4 2181     		strh	r1, [r4, #8]	@ movhi
2161:lib/ff/ff.c   **** 
 824              		.loc 1 2161 0
 825 00e6 0A07     		lsls	r2, r1, #28
 826 00e8 D2D1     		bne	.L85
2163:lib/ff/ff.c   **** 	if (!tsect) tsect = LD_DWORD(fs->win+BPB_TotSec32);
 827              		.loc 1 2163 0
 828 00ea B4F84B20 		ldrh	r2, [r4, #75]
 829              	.LVL104:
2164:lib/ff/ff.c   **** 
 830              		.loc 1 2164 0
 831 00ee 02B9     		cbnz	r2, .L87
2164:lib/ff/ff.c   **** 
 832              		.loc 1 2164 0 is_stmt 0 discriminator 1
 833 00f0 A26D     		ldr	r2, [r4, #88]
 834              	.LVL105:
 835              	.L87:
2166:lib/ff/ff.c   **** 	if (!nrsv) return FR_NO_FILESYSTEM;					/* (BPB_RsvdSecCnt must not be 0) */
 836              		.loc 1 2166 0 is_stmt 1
 837 00f2 B4F846C0 		ldrh	ip, [r4, #70]
 838              	.LVL106:
2167:lib/ff/ff.c   **** 
 839              		.loc 1 2167 0
 840 00f6 BCF1000F 		cmp	ip, #0
 841 00fa C9D0     		beq	.L85
2155:lib/ff/ff.c   **** 
 842              		.loc 1 2155 0
 843 00fc 06FB03F8 		mul	r8, r6, r3
2170:lib/ff/ff.c   **** 	if (tsect < sysect) return FR_NO_FILESYSTEM;		/* (Invalid volume size) */
 844              		.loc 1 2170 0
 845 0100 0CEB1117 		add	r7, ip, r1, lsr #4
 846 0104 4744     		add	r7, r7, r8
 847              	.LVL107:
2171:lib/ff/ff.c   **** 	nclst = (tsect - sysect) / fs->csize;				/* Number of clusters */
 848              		.loc 1 2171 0
 849 0106 BA42     		cmp	r2, r7
 850 0108 C2D3     		bcc	.L85
2172:lib/ff/ff.c   **** 	if (!nclst) return FR_NO_FILESYSTEM;				/* (Invalid volume size) */
 851              		.loc 1 2172 0
 852 010a D21B     		subs	r2, r2, r7
 853              	.LVL108:
 854 010c B2FBF0F2 		udiv	r2, r2, r0
 855              	.LVL109:
2173:lib/ff/ff.c   **** 	fmt = FS_FAT12;
 856              		.loc 1 2173 0
 857 0110 002A     		cmp	r2, #0
 858 0112 BDD0     		beq	.L85
 859              	.LVL110:
2175:lib/ff/ff.c   **** 	if (nclst >= MIN_FAT32) fmt = FS_FAT32;
 860              		.loc 1 2175 0
 861 0114 40F6F576 		movw	r6, #4085
 862              	.LVL111:
 863 0118 B242     		cmp	r2, r6
 864 011a 06D9     		bls	.L104
 865              	.LVL112:
 866 011c 4FF6F570 		movw	r0, #65525
 867 0120 8242     		cmp	r2, r0
 868 0122 8CBF     		ite	hi
 869 0124 0326     		movhi	r6, #3
 870 0126 0226     		movls	r6, #2
 871 0128 00E0     		b	.L89
 872              	.LVL113:
 873              	.L104:
2174:lib/ff/ff.c   **** 	if (nclst >= MIN_FAT16) fmt = FS_FAT16;
 874              		.loc 1 2174 0
 875 012a 0126     		movs	r6, #1
 876              	.LVL114:
 877              	.L89:
2179:lib/ff/ff.c   **** 	fs->volbase = bsect;								/* Volume start sector */
 878              		.loc 1 2179 0
 879 012c 0232     		adds	r2, r2, #2
 880              	.LVL115:
 881 012e E261     		str	r2, [r4, #28]
2180:lib/ff/ff.c   **** 	fs->fatbase = bsect + nrsv; 						/* FAT start sector */
 882              		.loc 1 2180 0
 883 0130 6562     		str	r5, [r4, #36]
2181:lib/ff/ff.c   **** 	fs->database = bsect + sysect;						/* Data start sector */
 884              		.loc 1 2181 0
 885 0132 05EB0C00 		add	r0, r5, ip
 886 0136 A062     		str	r0, [r4, #40]
2182:lib/ff/ff.c   **** 	if (fmt == FS_FAT32) {
 887              		.loc 1 2182 0
 888 0138 7F19     		adds	r7, r7, r5
 889              	.LVL116:
 890 013a 2763     		str	r7, [r4, #48]
2183:lib/ff/ff.c   **** 		if (fs->n_rootdir) return FR_NO_FILESYSTEM;		/* (BPB_RootEntCnt must be 0) */
 891              		.loc 1 2183 0
 892 013c 032E     		cmp	r6, #3
 893 013e 05D1     		bne	.L90
2184:lib/ff/ff.c   **** 		fs->dirbase = LD_DWORD(fs->win+BPB_RootClus);	/* Root directory start cluster */
 894              		.loc 1 2184 0
 895 0140 0029     		cmp	r1, #0
 896 0142 A5D1     		bne	.L85
2185:lib/ff/ff.c   **** 		szbfat = fs->n_fatent * 4;						/* (Required FAT size) */
 897              		.loc 1 2185 0
 898 0144 606E     		ldr	r0, [r4, #100]
 899 0146 E062     		str	r0, [r4, #44]
2186:lib/ff/ff.c   **** 	} else {
 900              		.loc 1 2186 0
 901 0148 9100     		lsls	r1, r2, #2
 902              	.LVL117:
 903 014a 0EE0     		b	.L91
 904              	.LVL118:
 905              	.L90:
2188:lib/ff/ff.c   **** 		fs->dirbase = fs->fatbase + fasize;				/* Root directory start sector */
 906              		.loc 1 2188 0
 907 014c 0029     		cmp	r1, #0
 908 014e 9FD0     		beq	.L85
2189:lib/ff/ff.c   **** 		szbfat = (fmt == FS_FAT16) ?					/* (Required FAT size) */
 909              		.loc 1 2189 0
 910 0150 08EB0001 		add	r1, r8, r0
 911              	.LVL119:
 912 0154 E162     		str	r1, [r4, #44]
2191:lib/ff/ff.c   **** 	}
 913              		.loc 1 2191 0
 914 0156 022E     		cmp	r6, #2
 915 0158 01D1     		bne	.L92
2191:lib/ff/ff.c   **** 	}
 916              		.loc 1 2191 0 is_stmt 0 discriminator 1
 917 015a 5100     		lsls	r1, r2, #1
 918 015c 05E0     		b	.L91
 919              	.L92:
2191:lib/ff/ff.c   **** 	}
 920              		.loc 1 2191 0 discriminator 2
 921 015e 0320     		movs	r0, #3
 922 0160 5043     		muls	r0, r2, r0
 923 0162 02F00102 		and	r2, r2, #1
 924              	.LVL120:
 925 0166 02EB5001 		add	r1, r2, r0, lsr #1
 926              	.L91:
 927              	.LVL121:
2193:lib/ff/ff.c   **** 		return FR_NO_FILESYSTEM;
 928              		.loc 1 2193 0 is_stmt 1
 929 016a 01F2FF12 		addw	r2, r1, #511
 930 016e B3EB522F 		cmp	r3, r2, lsr #9
 931 0172 8DD3     		bcc	.L85
2198:lib/ff/ff.c   **** 	fs->last_clust = 0;
 932              		.loc 1 2198 0
 933 0174 4FF0FF33 		mov	r3, #-1
 934              	.LVL122:
 935 0178 2361     		str	r3, [r4, #16]
2199:lib/ff/ff.c   **** 
 936              		.loc 1 2199 0
 937 017a 0021     		movs	r1, #0
 938              	.LVL123:
 939 017c E160     		str	r1, [r4, #12]
2202:lib/ff/ff.c   **** 	 	fs->fsi_flag = 0;
 940              		.loc 1 2202 0
 941 017e 032E     		cmp	r6, #3
 942 0180 20D1     		bne	.L94
2203:lib/ff/ff.c   **** 		fs->fsi_sector = bsect + LD_WORD(fs->win+BPB_FSInfo);
 943              		.loc 1 2203 0
 944 0182 6171     		strb	r1, [r4, #5]
2204:lib/ff/ff.c   **** 		if (disk_read(fs->drv, fs->win, fs->fsi_sector, 1) == RES_OK &&
 945              		.loc 1 2204 0
 946 0184 B4F86800 		ldrh	r0, [r4, #104]
 947 0188 2A18     		adds	r2, r5, r0
 948              	.LVL124:
 949 018a 6261     		str	r2, [r4, #20]
2205:lib/ff/ff.c   **** 			LD_WORD(fs->win+BS_55AA) == 0xAA55 &&
 950              		.loc 1 2205 0
 951 018c 6078     		ldrb	r0, [r4, #1]	@ zero_extendqisi2
 952 018e 04F13801 		add	r1, r4, #56
 953 0192 0123     		movs	r3, #1
 954 0194 FFF7FEFF 		bl	disk_read
 955              	.LVL125:
 956 0198 A0B9     		cbnz	r0, .L94
2205:lib/ff/ff.c   **** 			LD_WORD(fs->win+BS_55AA) == 0xAA55 &&
 957              		.loc 1 2205 0 is_stmt 0 discriminator 1
 958 019a B4F83622 		ldrh	r2, [r4, #566]
 959 019e 4AF65523 		movw	r3, #43605
 960 01a2 9A42     		cmp	r2, r3
 961 01a4 0ED1     		bne	.L94
2206:lib/ff/ff.c   **** 			LD_DWORD(fs->win+FSI_LeadSig) == 0x41615252 &&
 962              		.loc 1 2206 0 is_stmt 1
 963 01a6 A16B     		ldr	r1, [r4, #56]
 964 01a8 1848     		ldr	r0, .L124+8
 965 01aa 8142     		cmp	r1, r0
 966 01ac 0AD1     		bne	.L94
2207:lib/ff/ff.c   **** 			LD_DWORD(fs->win+FSI_StrucSig) == 0x61417272) {
 967              		.loc 1 2207 0
 968 01ae D4F81C32 		ldr	r3, [r4, #540]
 969 01b2 174A     		ldr	r2, .L124+12
 970 01b4 9342     		cmp	r3, r2
 971 01b6 05D1     		bne	.L94
2209:lib/ff/ff.c   **** 				fs->free_clust = LD_DWORD(fs->win+FSI_Free_Count);
 972              		.loc 1 2209 0
 973 01b8 D4F82412 		ldr	r1, [r4, #548]
 974 01bc E160     		str	r1, [r4, #12]
2210:lib/ff/ff.c   **** 		}
 975              		.loc 1 2210 0
 976 01be D4F82002 		ldr	r0, [r4, #544]
 977 01c2 2061     		str	r0, [r4, #16]
 978              	.L94:
2214:lib/ff/ff.c   **** 	fs->id = ++Fsid;		/* File system mount ID */
 979              		.loc 1 2214 0
 980 01c4 2670     		strb	r6, [r4, #0]
2215:lib/ff/ff.c   **** 	fs->winsect = 0;		/* Invalidate sector cache */
 981              		.loc 1 2215 0
 982 01c6 134A     		ldr	r2, .L124+16
 983 01c8 1388     		ldrh	r3, [r2, #0]
 984 01ca 591C     		adds	r1, r3, #1
 985 01cc 88B2     		uxth	r0, r1
 986 01ce 1080     		strh	r0, [r2, #0]	@ movhi
 987 01d0 E080     		strh	r0, [r4, #6]	@ movhi
2216:lib/ff/ff.c   **** 	fs->wflag = 0;
 988              		.loc 1 2216 0
 989 01d2 0020     		movs	r0, #0
 990 01d4 6063     		str	r0, [r4, #52]
2217:lib/ff/ff.c   **** #if _FS_RPATH
 991              		.loc 1 2217 0
 992 01d6 2071     		strb	r0, [r4, #4]
2219:lib/ff/ff.c   **** #endif
 993              		.loc 1 2219 0
 994 01d8 A061     		str	r0, [r4, #24]
2225:lib/ff/ff.c   **** }
 995              		.loc 1 2225 0
 996 01da BDE8F081 		pop	{r4, r5, r6, r7, r8, pc}
 997              	.LVL126:
 998              	.L96:
2098:lib/ff/ff.c   **** 	fs = FatFs[vol];					/* Get corresponding file system object */
 999              		.loc 1 2098 0
 1000 01de 0B20     		movs	r0, #11
 1001 01e0 BDE8F081 		pop	{r4, r5, r6, r7, r8, pc}
 1002              	.LVL127:
 1003              	.L97:
2100:lib/ff/ff.c   **** 
 1004              		.loc 1 2100 0
 1005 01e4 0C20     		movs	r0, #12
 1006 01e6 BDE8F081 		pop	{r4, r5, r6, r7, r8, pc}
 1007              	.LVL128:
 1008              	.L98:
2110:lib/ff/ff.c   **** 		}
 1009              		.loc 1 2110 0
 1010 01ea 2846     		mov	r0, r5
 1011              	.LVL129:
 1012 01ec BDE8F081 		pop	{r4, r5, r6, r7, r8, pc}
 1013              	.LVL130:
 1014              	.L100:
2121:lib/ff/ff.c   **** 	if (!_FS_READONLY && wmode && (stat & STA_PROTECT))	/* Check disk write protection if needed */
 1015              		.loc 1 2121 0
 1016 01f0 0320     		movs	r0, #3
 1017              	.LVL131:
 1018 01f2 BDE8F081 		pop	{r4, r5, r6, r7, r8, pc}
 1019              	.LVL132:
 1020              	.L101:
2123:lib/ff/ff.c   **** #if _MAX_SS != 512						/* Get disk sector size (variable sector size cfg only) */
 1021              		.loc 1 2123 0
 1022 01f6 0A20     		movs	r0, #10
 1023              	.LVL133:
 1024 01f8 BDE8F081 		pop	{r4, r5, r6, r7, r8, pc}
 1025              	.LVL134:
 1026              	.L103:
2141:lib/ff/ff.c   **** 	if (fmt) return FR_NO_FILESYSTEM;		/* No FAT volume is found */
 1027              		.loc 1 2141 0
 1028 01fc 0120     		movs	r0, #1
 1029              	.LVL135:
2226:lib/ff/ff.c   **** 
 1030              		.loc 1 2226 0
 1031 01fe BDE8F081 		pop	{r4, r5, r6, r7, r8, pc}
 1032              	.L125:
 1033 0202 00BF     		.align	2
 1034              	.L124:
 1035 0204 00000000 		.word	.LANCHOR0
 1036 0208 00000000 		.word	.LANCHOR1
 1037 020c 52526141 		.word	1096897106
 1038 0210 72724161 		.word	1631679090
 1039 0214 00000000 		.word	.LANCHOR2
 1040              		.cfi_endproc
 1041              	.LFE26:
 1043              		.section	.text.clust2sect,"ax",%progbits
 1044              		.align	1
 1045              		.global	clust2sect
 1046              		.thumb
 1047              		.thumb_func
 1049              	clust2sect:
 1050              	.LFB7:
 828:lib/ff/ff.c   **** 	clst -= 2;
 1051              		.loc 1 828 0
 1052              		.cfi_startproc
 1053              		@ args = 0, pretend = 0, frame = 0
 1054              		@ frame_needed = 0, uses_anonymous_args = 0
 1055              		@ link register save eliminated.
 1056              	.LVL136:
 829:lib/ff/ff.c   **** 	if (clst >= (fs->n_fatent - 2)) return 0;		/* Invalid cluster# */
 1057              		.loc 1 829 0
 1058 0000 0239     		subs	r1, r1, #2
 1059              	.LVL137:
 830:lib/ff/ff.c   **** 	return clst * fs->csize + fs->database;
 1060              		.loc 1 830 0
 1061 0002 C369     		ldr	r3, [r0, #28]
 1062 0004 9A1E     		subs	r2, r3, #2
 1063 0006 9142     		cmp	r1, r2
 1064 0008 04D2     		bcs	.L128
 831:lib/ff/ff.c   **** }
 1065              		.loc 1 831 0
 1066 000a 8278     		ldrb	r2, [r0, #2]	@ zero_extendqisi2
 1067 000c 006B     		ldr	r0, [r0, #48]
 1068              	.LVL138:
 1069 000e 02FB0100 		mla	r0, r2, r1, r0
 1070 0012 7047     		bx	lr
 1071              	.LVL139:
 1072              	.L128:
 830:lib/ff/ff.c   **** 	return clst * fs->csize + fs->database;
 1073              		.loc 1 830 0
 1074 0014 0020     		movs	r0, #0
 1075              	.LVL140:
 832:lib/ff/ff.c   **** 
 1076              		.loc 1 832 0
 1077 0016 7047     		bx	lr
 1078              		.cfi_endproc
 1079              	.LFE7:
 1081              		.section	.text.get_fat,"ax",%progbits
 1082              		.align	1
 1083              		.global	get_fat
 1084              		.thumb
 1085              		.thumb_func
 1087              	get_fat:
 1088              	.LFB8:
 846:lib/ff/ff.c   **** 	UINT wc, bc;
 1089              		.loc 1 846 0
 1090              		.cfi_startproc
 1091              		@ args = 0, pretend = 0, frame = 0
 1092              		@ frame_needed = 0, uses_anonymous_args = 0
 1093              	.LVL141:
 1094 0000 F8B5     		push	{r3, r4, r5, r6, r7, lr}
 1095              	.LCFI8:
 1096              		.cfi_def_cfa_offset 24
 1097              		.cfi_offset 3, -24
 1098              		.cfi_offset 4, -20
 1099              		.cfi_offset 5, -16
 1100              		.cfi_offset 6, -12
 1101              		.cfi_offset 7, -8
 1102              		.cfi_offset 14, -4
 1103 0002 0446     		mov	r4, r0
 1104 0004 0D46     		mov	r5, r1
 851:lib/ff/ff.c   **** 		return 1;
 1105              		.loc 1 851 0
 1106 0006 0129     		cmp	r1, #1
 1107 0008 48D9     		bls	.L139
 851:lib/ff/ff.c   **** 		return 1;
 1108              		.loc 1 851 0 is_stmt 0 discriminator 1
 1109 000a C369     		ldr	r3, [r0, #28]
 1110 000c 9942     		cmp	r1, r3
 1111 000e 45D2     		bcs	.L139
 1112              	.LVL142:
 1113              	.LBB29:
 1114              	.LBB30:
 854:lib/ff/ff.c   **** 	case FS_FAT12 :
 1115              		.loc 1 854 0 is_stmt 1
 1116 0010 0178     		ldrb	r1, [r0, #0]	@ zero_extendqisi2
 1117              	.LVL143:
 1118 0012 0229     		cmp	r1, #2
 1119 0014 27D0     		beq	.L133
 1120 0016 0329     		cmp	r1, #3
 1121 0018 30D0     		beq	.L134
 1122 001a 0129     		cmp	r1, #1
 1123 001c 3BD1     		bne	.L141
 1124              	.LVL144:
 856:lib/ff/ff.c   **** 		if (move_window(fs, fs->fatbase + (bc / SS(fs)))) break;
 1125              		.loc 1 856 0
 1126 001e 05EB5506 		add	r6, r5, r5, lsr #1
 1127              	.LVL145:
 857:lib/ff/ff.c   **** 		wc = fs->win[bc % SS(fs)]; bc++;
 1128              		.loc 1 857 0
 1129 0022 826A     		ldr	r2, [r0, #40]
 1130 0024 02EB5621 		add	r1, r2, r6, lsr #9
 1131 0028 FFF7FEFF 		bl	move_window
 1132              	.LVL146:
 1133 002c 0028     		cmp	r0, #0
 1134 002e 32D1     		bne	.L141
 1135              	.L135:
 858:lib/ff/ff.c   **** 		if (move_window(fs, fs->fatbase + (bc / SS(fs)))) break;
 1136              		.loc 1 858 0
 1137 0030 F005     		lsls	r0, r6, #23
 1138 0032 04EBD057 		add	r7, r4, r0, lsr #23
 1139 0036 97F83870 		ldrb	r7, [r7, #56]	@ zero_extendqisi2
 1140              	.LVL147:
 1141 003a 0136     		adds	r6, r6, #1
 1142              	.LVL148:
 859:lib/ff/ff.c   **** 		wc |= fs->win[bc % SS(fs)] << 8;
 1143              		.loc 1 859 0
 1144 003c A36A     		ldr	r3, [r4, #40]
 1145 003e 2046     		mov	r0, r4
 1146 0040 03EB5621 		add	r1, r3, r6, lsr #9
 1147 0044 FFF7FEFF 		bl	move_window
 1148              	.LVL149:
 1149 0048 28BB     		cbnz	r0, .L141
 860:lib/ff/ff.c   **** 		return (clst & 1) ? (wc >> 4) : (wc & 0xFFF);
 1150              		.loc 1 860 0
 1151 004a F605     		lsls	r6, r6, #23
 1152              	.LVL150:
 1153 004c 04EBD654 		add	r4, r4, r6, lsr #23
 1154              	.LVL151:
 1155 0050 94F83810 		ldrb	r1, [r4, #56]	@ zero_extendqisi2
 1156 0054 47EA0120 		orr	r0, r7, r1, lsl #8
 1157              	.LVL152:
 861:lib/ff/ff.c   **** 
 1158              		.loc 1 861 0
 1159 0058 EA07     		lsls	r2, r5, #31
 1160 005a 01D5     		bpl	.L137
 1161 005c 0009     		lsrs	r0, r0, #4
 1162              	.LVL153:
 1163 005e F8BD     		pop	{r3, r4, r5, r6, r7, pc}
 1164              	.LVL154:
 1165              	.L137:
 1166 0060 0205     		lsls	r2, r0, #20
 1167 0062 100D     		lsrs	r0, r2, #20
 1168              	.LVL155:
 1169 0064 F8BD     		pop	{r3, r4, r5, r6, r7, pc}
 1170              	.LVL156:
 1171              	.L133:
 864:lib/ff/ff.c   **** 		p = &fs->win[clst * 2 % SS(fs)];
 1172              		.loc 1 864 0
 1173 0066 826A     		ldr	r2, [r0, #40]
 1174 0068 02EB1521 		add	r1, r2, r5, lsr #8
 1175 006c FFF7FEFF 		bl	move_window
 1176              	.LVL157:
 1177 0070 88B9     		cbnz	r0, .L141
 1178              	.LVL158:
 865:lib/ff/ff.c   **** 		return LD_WORD(p);
 1179              		.loc 1 865 0
 1180 0072 2D06     		lsls	r5, r5, #24
 1181              	.LVL159:
 1182 0074 04EBD554 		add	r4, r4, r5, lsr #23
 1183              	.LVL160:
 866:lib/ff/ff.c   **** 
 1184              		.loc 1 866 0
 1185 0078 208F     		ldrh	r0, [r4, #56]
 1186 007a F8BD     		pop	{r3, r4, r5, r6, r7, pc}
 1187              	.LVL161:
 1188              	.L134:
 869:lib/ff/ff.c   **** 		p = &fs->win[clst * 4 % SS(fs)];
 1189              		.loc 1 869 0
 1190 007c 836A     		ldr	r3, [r0, #40]
 1191 007e 03EBD511 		add	r1, r3, r5, lsr #7
 1192 0082 FFF7FEFF 		bl	move_window
 1193              	.LVL162:
 1194 0086 30B9     		cbnz	r0, .L141
 1195              	.LVL163:
 870:lib/ff/ff.c   **** 		return LD_DWORD(p) & 0x0FFFFFFF;
 1196              		.loc 1 870 0
 1197 0088 6D06     		lsls	r5, r5, #25
 1198              	.LVL164:
 1199 008a 04EBD554 		add	r4, r4, r5, lsr #23
 1200              	.LVL165:
 871:lib/ff/ff.c   **** 	}
 1201              		.loc 1 871 0
 1202 008e A16B     		ldr	r1, [r4, #56]
 1203 0090 21F07040 		bic	r0, r1, #-268435456
 1204 0094 F8BD     		pop	{r3, r4, r5, r6, r7, pc}
 1205              	.LVL166:
 1206              	.L141:
 874:lib/ff/ff.c   **** }
 1207              		.loc 1 874 0
 1208 0096 4FF0FF30 		mov	r0, #-1
 1209 009a F8BD     		pop	{r3, r4, r5, r6, r7, pc}
 1210              	.LVL167:
 1211              	.L139:
 1212              	.LBE30:
 1213              	.LBE29:
 852:lib/ff/ff.c   **** 
 1214              		.loc 1 852 0
 1215 009c 0120     		movs	r0, #1
 1216              	.LVL168:
 875:lib/ff/ff.c   **** 
 1217              		.loc 1 875 0
 1218 009e F8BD     		pop	{r3, r4, r5, r6, r7, pc}
 1219              		.cfi_endproc
 1220              	.LFE8:
 1222              		.section	.text.dir_sdi,"ax",%progbits
 1223              		.align	1
 1224              		.thumb
 1225              		.thumb_func
 1227              	dir_sdi:
 1228              	.LFB13:
1092:lib/ff/ff.c   **** 	DWORD clst;
 1229              		.loc 1 1092 0
 1230              		.cfi_startproc
 1231              		@ args = 0, pretend = 0, frame = 0
 1232              		@ frame_needed = 0, uses_anonymous_args = 0
 1233              	.LVL169:
 1234 0000 70B5     		push	{r4, r5, r6, lr}
 1235              	.LCFI9:
 1236              		.cfi_def_cfa_offset 16
 1237              		.cfi_offset 4, -16
 1238              		.cfi_offset 5, -12
 1239              		.cfi_offset 6, -8
 1240              		.cfi_offset 14, -4
 1241 0002 0446     		mov	r4, r0
 1242 0004 0D46     		mov	r5, r1
1097:lib/ff/ff.c   **** 	clst = dj->sclust;
 1243              		.loc 1 1097 0
 1244 0006 E180     		strh	r1, [r4, #6]	@ movhi
1098:lib/ff/ff.c   **** 	if (clst == 1 || clst >= dj->fs->n_fatent)	/* Check start cluster range */
 1245              		.loc 1 1098 0
 1246 0008 8168     		ldr	r1, [r0, #8]
 1247              	.LVL170:
1099:lib/ff/ff.c   **** 		return FR_INT_ERR;
 1248              		.loc 1 1099 0
 1249 000a 0129     		cmp	r1, #1
 1250 000c 01D1     		bne	.L143
 1251              	.LVL171:
 1252              	.L145:
1100:lib/ff/ff.c   **** 	if (!clst && dj->fs->fs_type == FS_FAT32)	/* Replace cluster# 0 with root cluster# if in FAT32 */
 1253              		.loc 1 1100 0
 1254 000e 0220     		movs	r0, #2
 1255 0010 70BD     		pop	{r4, r5, r6, pc}
 1256              	.LVL172:
 1257              	.L143:
1099:lib/ff/ff.c   **** 		return FR_INT_ERR;
 1258              		.loc 1 1099 0 discriminator 1
 1259 0012 0368     		ldr	r3, [r0, #0]
 1260 0014 DA69     		ldr	r2, [r3, #28]
 1261 0016 9142     		cmp	r1, r2
 1262 0018 F9D2     		bcs	.L145
1101:lib/ff/ff.c   **** 		clst = dj->fs->dirbase;
 1263              		.loc 1 1101 0
 1264 001a 71B9     		cbnz	r1, .L146
1101:lib/ff/ff.c   **** 		clst = dj->fs->dirbase;
 1265              		.loc 1 1101 0 is_stmt 0 discriminator 1
 1266 001c 1878     		ldrb	r0, [r3, #0]	@ zero_extendqisi2
 1267              	.LVL173:
 1268 001e 0328     		cmp	r0, #3
 1269 0020 01D1     		bne	.L147
1102:lib/ff/ff.c   **** 
 1270              		.loc 1 1102 0 is_stmt 1
 1271 0022 D96A     		ldr	r1, [r3, #44]
 1272              	.LVL174:
1104:lib/ff/ff.c   **** 		dj->clust = clst;
 1273              		.loc 1 1104 0
 1274 0024 49B9     		cbnz	r1, .L146
 1275              	.L147:
1105:lib/ff/ff.c   **** 		if (idx >= dj->fs->n_rootdir)		/* Index is out of range */
 1276              		.loc 1 1105 0
 1277 0026 0020     		movs	r0, #0
 1278 0028 E060     		str	r0, [r4, #12]
1106:lib/ff/ff.c   **** 			return FR_INT_ERR;
 1279              		.loc 1 1106 0
 1280 002a 1989     		ldrh	r1, [r3, #8]
 1281              	.LVL175:
 1282 002c A942     		cmp	r1, r5
 1283 002e EED9     		bls	.L145
1108:lib/ff/ff.c   **** 	}
 1284              		.loc 1 1108 0
 1285 0030 DB6A     		ldr	r3, [r3, #44]
 1286 0032 03EB1512 		add	r2, r3, r5, lsr #4
 1287 0036 2261     		str	r2, [r4, #16]
 1288 0038 19E0     		b	.L148
 1289              	.LVL176:
 1290              	.L146:
1111:lib/ff/ff.c   **** 		while (idx >= ic) {	/* Follow cluster chain */
 1291              		.loc 1 1111 0
 1292 003a 9E78     		ldrb	r6, [r3, #2]	@ zero_extendqisi2
 1293 003c 3601     		lsls	r6, r6, #4
 1294              	.LVL177:
 1295              	.L149:
1112:lib/ff/ff.c   **** 			clst = get_fat(dj->fs, clst);				/* Get next cluster */
 1296              		.loc 1 1112 0 discriminator 1
 1297 003e B542     		cmp	r5, r6
 1298 0040 0ED3     		bcc	.L152
 1299              	.L150:
1113:lib/ff/ff.c   **** 			if (clst == 0xFFFFFFFF) return FR_DISK_ERR;	/* Disk error */
 1300              		.loc 1 1113 0
 1301 0042 2068     		ldr	r0, [r4, #0]
 1302 0044 FFF7FEFF 		bl	get_fat
 1303              	.LVL178:
 1304 0048 0146     		mov	r1, r0
 1305              	.LVL179:
1114:lib/ff/ff.c   **** 			if (clst < 2 || clst >= dj->fs->n_fatent)	/* Reached to end of table or int error */
 1306              		.loc 1 1114 0
 1307 004a 0130     		adds	r0, r0, #1
 1308              	.LVL180:
 1309 004c 18D0     		beq	.L151
1115:lib/ff/ff.c   **** 				return FR_INT_ERR;
 1310              		.loc 1 1115 0
 1311 004e 0129     		cmp	r1, #1
 1312 0050 DDD9     		bls	.L145
1115:lib/ff/ff.c   **** 				return FR_INT_ERR;
 1313              		.loc 1 1115 0 is_stmt 0 discriminator 1
 1314 0052 2368     		ldr	r3, [r4, #0]
 1315 0054 DA69     		ldr	r2, [r3, #28]
 1316 0056 9142     		cmp	r1, r2
 1317 0058 D9D2     		bcs	.L145
1117:lib/ff/ff.c   **** 		}
 1318              		.loc 1 1117 0 is_stmt 1
 1319 005a AD1B     		subs	r5, r5, r6
 1320              	.LVL181:
 1321 005c ADB2     		uxth	r5, r5
 1322              	.LVL182:
 1323 005e EEE7     		b	.L149
 1324              	.L152:
1119:lib/ff/ff.c   **** 		dj->sect = clust2sect(dj->fs, clst) + idx / (SS(dj->fs) / SZ_DIR);	/* Sector# */
 1325              		.loc 1 1119 0
 1326 0060 E160     		str	r1, [r4, #12]
1120:lib/ff/ff.c   **** 	}
 1327              		.loc 1 1120 0
 1328 0062 2068     		ldr	r0, [r4, #0]
 1329 0064 FFF7FEFF 		bl	clust2sect
 1330              	.LVL183:
 1331 0068 00EB1511 		add	r1, r0, r5, lsr #4
 1332 006c 2161     		str	r1, [r4, #16]
 1333              	.LVL184:
 1334              	.L148:
1123:lib/ff/ff.c   **** 
 1335              		.loc 1 1123 0
 1336 006e 05F00F05 		and	r5, r5, #15
 1337              	.LVL185:
 1338 0072 6D01     		lsls	r5, r5, #5
 1339 0074 3835     		adds	r5, r5, #56
 1340 0076 2068     		ldr	r0, [r4, #0]
 1341 0078 4119     		adds	r1, r0, r5
 1342 007a 6161     		str	r1, [r4, #20]
1125:lib/ff/ff.c   **** }
 1343              		.loc 1 1125 0
 1344 007c 0020     		movs	r0, #0
 1345 007e 70BD     		pop	{r4, r5, r6, pc}
 1346              	.LVL186:
 1347              	.L151:
1114:lib/ff/ff.c   **** 			if (clst < 2 || clst >= dj->fs->n_fatent)	/* Reached to end of table or int error */
 1348              		.loc 1 1114 0
 1349 0080 0120     		movs	r0, #1
1126:lib/ff/ff.c   **** 
 1350              		.loc 1 1126 0
 1351 0082 70BD     		pop	{r4, r5, r6, pc}
 1352              		.cfi_endproc
 1353              	.LFE13:
 1355              		.section	.text.dir_remove,"ax",%progbits
 1356              		.align	1
 1357              		.thumb
 1358              		.thumb_func
 1360              	dir_remove:
 1361              	.LFB21:
1646:lib/ff/ff.c   **** 	FRESULT res;
 1362              		.loc 1 1646 0
 1363              		.cfi_startproc
 1364              		@ args = 0, pretend = 0, frame = 0
 1365              		@ frame_needed = 0, uses_anonymous_args = 0
 1366              	.LVL187:
 1367 0000 10B5     		push	{r4, lr}
 1368              	.LCFI10:
 1369              		.cfi_def_cfa_offset 8
 1370              		.cfi_offset 4, -8
 1371              		.cfi_offset 14, -4
 1372 0002 0446     		mov	r4, r0
1666:lib/ff/ff.c   **** 	if (res == FR_OK) {
 1373              		.loc 1 1666 0
 1374 0004 C188     		ldrh	r1, [r0, #6]
 1375 0006 FFF7FEFF 		bl	dir_sdi
 1376              	.LVL188:
1667:lib/ff/ff.c   **** 		res = move_window(dj->fs, dj->sect);
 1377              		.loc 1 1667 0
 1378 000a 50B9     		cbnz	r0, .L154
 1379              	.LVL189:
 1380              	.LBB33:
 1381              	.LBB34:
1668:lib/ff/ff.c   **** 		if (res == FR_OK) {
 1382              		.loc 1 1668 0
 1383 000c 2068     		ldr	r0, [r4, #0]
 1384              	.LVL190:
 1385 000e 2169     		ldr	r1, [r4, #16]
 1386 0010 FFF7FEFF 		bl	move_window
 1387              	.LVL191:
1669:lib/ff/ff.c   **** 			*dj->dir = DDE;			/* Mark the entry "deleted" */
 1388              		.loc 1 1669 0
 1389 0014 28B9     		cbnz	r0, .L154
1670:lib/ff/ff.c   **** 			dj->fs->wflag = 1;
 1390              		.loc 1 1670 0
 1391 0016 6369     		ldr	r3, [r4, #20]
 1392 0018 E522     		movs	r2, #229
 1393 001a 1A70     		strb	r2, [r3, #0]
1671:lib/ff/ff.c   **** 		}
 1394              		.loc 1 1671 0
 1395 001c 2168     		ldr	r1, [r4, #0]
 1396 001e 0123     		movs	r3, #1
 1397 0020 0B71     		strb	r3, [r1, #4]
 1398              	.LVL192:
 1399              	.L154:
 1400              	.LBE34:
 1401              	.LBE33:
1677:lib/ff/ff.c   **** #endif /* !_FS_READONLY */
 1402              		.loc 1 1677 0
 1403 0022 10BD     		pop	{r4, pc}
 1404              		.cfi_endproc
 1405              	.LFE21:
 1407              		.section	.text.put_fat,"ax",%progbits
 1408              		.align	1
 1409              		.global	put_fat
 1410              		.thumb
 1411              		.thumb_func
 1413              	put_fat:
 1414              	.LFB9:
 890:lib/ff/ff.c   **** 	UINT bc;
 1415              		.loc 1 890 0
 1416              		.cfi_startproc
 1417              		@ args = 0, pretend = 0, frame = 0
 1418              		@ frame_needed = 0, uses_anonymous_args = 0
 1419              	.LVL193:
 1420 0000 F8B5     		push	{r3, r4, r5, r6, r7, lr}
 1421              	.LCFI11:
 1422              		.cfi_def_cfa_offset 24
 1423              		.cfi_offset 3, -24
 1424              		.cfi_offset 4, -20
 1425              		.cfi_offset 5, -16
 1426              		.cfi_offset 6, -12
 1427              		.cfi_offset 7, -8
 1428              		.cfi_offset 14, -4
 1429 0002 0446     		mov	r4, r0
 1430 0004 0D46     		mov	r5, r1
 1431 0006 1646     		mov	r6, r2
 896:lib/ff/ff.c   **** 		res = FR_INT_ERR;
 1432              		.loc 1 896 0
 1433 0008 0129     		cmp	r1, #1
 1434 000a 5DD9     		bls	.L167
 896:lib/ff/ff.c   **** 		res = FR_INT_ERR;
 1435              		.loc 1 896 0 is_stmt 0 discriminator 1
 1436 000c C369     		ldr	r3, [r0, #28]
 1437 000e 9942     		cmp	r1, r3
 1438 0010 5AD2     		bcs	.L167
 1439              	.LVL194:
 1440              	.LBB37:
 1441              	.LBB38:
 900:lib/ff/ff.c   **** 		case FS_FAT12 :
 1442              		.loc 1 900 0 is_stmt 1
 1443 0012 0178     		ldrb	r1, [r0, #0]	@ zero_extendqisi2
 1444              	.LVL195:
 1445 0014 0229     		cmp	r1, #2
 1446 0016 39D0     		beq	.L160
 1447 0018 0329     		cmp	r1, #3
 1448 001a 42D0     		beq	.L161
 1449 001c 0129     		cmp	r1, #1
 1450 001e 4FD1     		bne	.L169
 1451              	.LVL196:
 902:lib/ff/ff.c   **** 			res = move_window(fs, fs->fatbase + (bc / SS(fs)));
 1452              		.loc 1 902 0
 1453 0020 05EB5507 		add	r7, r5, r5, lsr #1
 1454              	.LVL197:
 903:lib/ff/ff.c   **** 			if (res != FR_OK) break;
 1455              		.loc 1 903 0
 1456 0024 826A     		ldr	r2, [r0, #40]
 1457              	.LVL198:
 1458 0026 02EB5721 		add	r1, r2, r7, lsr #9
 1459 002a FFF7FEFF 		bl	move_window
 1460              	.LVL199:
 904:lib/ff/ff.c   **** 			p = &fs->win[bc % SS(fs)];
 1461              		.loc 1 904 0
 1462 002e 0028     		cmp	r0, #0
 1463 0030 47D1     		bne	.L158
 905:lib/ff/ff.c   **** 			*p = (clst & 1) ? ((*p & 0x0F) | ((BYTE)val << 4)) : (BYTE)val;
 1464              		.loc 1 905 0
 1465 0032 F805     		lsls	r0, r7, #23
 1466              	.LVL200:
 1467 0034 C20D     		lsrs	r2, r0, #23
 1468              	.LVL201:
 906:lib/ff/ff.c   **** 			bc++;
 1469              		.loc 1 906 0
 1470 0036 15F00105 		ands	r5, r5, #1
 1471              	.LVL202:
 1472 003a F3B2     		uxtb	r3, r6
 1473 003c 07D0     		beq	.L163
 1474 003e A118     		adds	r1, r4, r2
 1475              	.LBE38:
 1476 0040 91F83800 		ldrb	r0, [r1, #56]	@ zero_extendqisi2
 1477 0044 00F00F01 		and	r1, r0, #15
 1478              	.LBB39:
 1479 0048 41EA0313 		orr	r3, r1, r3, lsl #4
 1480 004c DBB2     		uxtb	r3, r3
 1481              	.L163:
 1482 004e A218     		adds	r2, r4, r2
 1483              	.LVL203:
 1484 0050 82F83830 		strb	r3, [r2, #56]
 907:lib/ff/ff.c   **** 			fs->wflag = 1;
 1485              		.loc 1 907 0
 1486 0054 0137     		adds	r7, r7, #1
 1487              	.LVL204:
 908:lib/ff/ff.c   **** 			res = move_window(fs, fs->fatbase + (bc / SS(fs)));
 1488              		.loc 1 908 0
 1489 0056 0120     		movs	r0, #1
 1490 0058 2071     		strb	r0, [r4, #4]
 909:lib/ff/ff.c   **** 			if (res != FR_OK) break;
 1491              		.loc 1 909 0
 1492 005a A16A     		ldr	r1, [r4, #40]
 1493 005c 2046     		mov	r0, r4
 1494 005e 01EB5721 		add	r1, r1, r7, lsr #9
 1495 0062 FFF7FEFF 		bl	move_window
 1496              	.LVL205:
 910:lib/ff/ff.c   **** 			p = &fs->win[bc % SS(fs)];
 1497              		.loc 1 910 0
 1498 0066 60BB     		cbnz	r0, .L158
 911:lib/ff/ff.c   **** 			*p = (clst & 1) ? (BYTE)(val >> 4) : ((*p & 0xF0) | ((BYTE)(val >> 8) & 0x0F));
 1499              		.loc 1 911 0
 1500 0068 FF05     		lsls	r7, r7, #23
 1501              	.LVL206:
 1502 006a FA0D     		lsrs	r2, r7, #23
 1503              	.LVL207:
 912:lib/ff/ff.c   **** 			break;
 1504              		.loc 1 912 0
 1505 006c 15B1     		cbz	r5, .L164
 1506 006e C6F30716 		ubfx	r6, r6, #4, #8
 1507              	.LVL208:
 1508 0072 07E0     		b	.L165
 1509              	.LVL209:
 1510              	.L164:
 1511 0074 A318     		adds	r3, r4, r2
 1512 0076 93F83810 		ldrb	r1, [r3, #56]	@ zero_extendqisi2
 1513 007a 21F00F07 		bic	r7, r1, #15
 1514              	.LBE39:
 1515 007e C6F30326 		ubfx	r6, r6, #8, #4
 1516              	.LVL210:
 1517              	.LBB40:
 1518 0082 3E43     		orrs	r6, r6, r7
 1519              	.L165:
 1520 0084 A718     		adds	r7, r4, r2
 1521 0086 87F83860 		strb	r6, [r7, #56]
 1522 008a 1AE0     		b	.L158
 1523              	.LVL211:
 1524              	.L160:
 916:lib/ff/ff.c   **** 			if (res != FR_OK) break;
 1525              		.loc 1 916 0
 1526 008c 826A     		ldr	r2, [r0, #40]
 1527              	.LVL212:
 1528 008e 02EB1521 		add	r1, r2, r5, lsr #8
 1529 0092 FFF7FEFF 		bl	move_window
 1530              	.LVL213:
 917:lib/ff/ff.c   **** 			p = &fs->win[clst * 2 % SS(fs)];
 1531              		.loc 1 917 0
 1532 0096 A0B9     		cbnz	r0, .L158
 1533              	.LVL214:
 918:lib/ff/ff.c   **** 			ST_WORD(p, (WORD)val);
 1534              		.loc 1 918 0
 1535 0098 2D06     		lsls	r5, r5, #24
 1536              	.LVL215:
 1537 009a 04EBD555 		add	r5, r4, r5, lsr #23
 919:lib/ff/ff.c   **** 			break;
 1538              		.loc 1 919 0
 1539 009e 2E87     		strh	r6, [r5, #56]	@ movhi
 1540 00a0 0FE0     		b	.L158
 1541              	.LVL216:
 1542              	.L161:
 923:lib/ff/ff.c   **** 			if (res != FR_OK) break;
 1543              		.loc 1 923 0
 1544 00a2 826A     		ldr	r2, [r0, #40]
 1545              	.LVL217:
 1546 00a4 02EBD511 		add	r1, r2, r5, lsr #7
 1547 00a8 FFF7FEFF 		bl	move_window
 1548              	.LVL218:
 924:lib/ff/ff.c   **** 			p = &fs->win[clst * 4 % SS(fs)];
 1549              		.loc 1 924 0
 1550 00ac 48B9     		cbnz	r0, .L158
 925:lib/ff/ff.c   **** 			val |= LD_DWORD(p) & 0xF0000000;
 1551              		.loc 1 925 0
 1552 00ae 6D06     		lsls	r5, r5, #25
 1553              	.LVL219:
 1554 00b0 ED0D     		lsrs	r5, r5, #23
 1555 00b2 3835     		adds	r5, r5, #56
 1556              	.LVL220:
 926:lib/ff/ff.c   **** 			ST_DWORD(p, val);
 1557              		.loc 1 926 0
 1558 00b4 6359     		ldr	r3, [r4, r5]
 1559 00b6 03F07041 		and	r1, r3, #-268435456
 1560 00ba 0E43     		orrs	r6, r6, r1
 1561              	.LVL221:
 927:lib/ff/ff.c   **** 			break;
 1562              		.loc 1 927 0
 1563 00bc 6651     		str	r6, [r4, r5]
 1564 00be 00E0     		b	.L158
 1565              	.LVL222:
 1566              	.L169:
 931:lib/ff/ff.c   **** 		}
 1567              		.loc 1 931 0
 1568 00c0 0220     		movs	r0, #2
 1569              	.LVL223:
 1570              	.L158:
 933:lib/ff/ff.c   **** 	}
 1571              		.loc 1 933 0
 1572 00c2 0123     		movs	r3, #1
 1573 00c4 2371     		strb	r3, [r4, #4]
 1574 00c6 F8BD     		pop	{r3, r4, r5, r6, r7, pc}
 1575              	.LVL224:
 1576              	.L167:
 1577              	.LBE40:
 1578              	.LBE37:
 897:lib/ff/ff.c   **** 
 1579              		.loc 1 897 0
 1580 00c8 0220     		movs	r0, #2
 1581              	.LVL225:
 937:lib/ff/ff.c   **** #endif /* !_FS_READONLY */
 1582              		.loc 1 937 0
 1583 00ca F8BD     		pop	{r3, r4, r5, r6, r7, pc}
 1584              		.cfi_endproc
 1585              	.LFE9:
 1587              		.section	.text.create_chain,"ax",%progbits
 1588              		.align	1
 1589              		.thumb
 1590              		.thumb_func
 1592              	create_chain:
 1593              	.LFB11:
1005:lib/ff/ff.c   **** 	DWORD cs, ncl, scl;
 1594              		.loc 1 1005 0
 1595              		.cfi_startproc
 1596              		@ args = 0, pretend = 0, frame = 0
 1597              		@ frame_needed = 0, uses_anonymous_args = 0
 1598              	.LVL226:
 1599 0000 F8B5     		push	{r3, r4, r5, r6, r7, lr}
 1600              	.LCFI12:
 1601              		.cfi_def_cfa_offset 24
 1602              		.cfi_offset 3, -24
 1603              		.cfi_offset 4, -20
 1604              		.cfi_offset 5, -16
 1605              		.cfi_offset 6, -12
 1606              		.cfi_offset 7, -8
 1607              		.cfi_offset 14, -4
 1608 0002 0546     		mov	r5, r0
1010:lib/ff/ff.c   **** 		scl = fs->last_clust;			/* Get suggested start point */
 1609              		.loc 1 1010 0
 1610 0004 0F46     		mov	r7, r1
 1611 0006 31B9     		cbnz	r1, .L171
1011:lib/ff/ff.c   **** 		if (!scl || scl >= fs->n_fatent) scl = 1;
 1612              		.loc 1 1011 0
 1613 0008 C668     		ldr	r6, [r0, #12]
 1614              	.LVL227:
1012:lib/ff/ff.c   **** 	}
 1615              		.loc 1 1012 0
 1616 000a 6EB1     		cbz	r6, .L186
1012:lib/ff/ff.c   **** 	}
 1617              		.loc 1 1012 0 is_stmt 0 discriminator 2
 1618 000c C069     		ldr	r0, [r0, #28]
 1619              	.LVL228:
 1620 000e 8642     		cmp	r6, r0
 1621 0010 28BF     		it	cs
 1622 0012 0126     		movcs	r6, #1
 1623              	.LVL229:
 1624 0014 09E0     		b	.L172
 1625              	.LVL230:
 1626              	.L171:
1015:lib/ff/ff.c   **** 		if (cs < 2) return 1;			/* It is an invalid cluster */
 1627              		.loc 1 1015 0 is_stmt 1
 1628 0016 FFF7FEFF 		bl	get_fat
 1629              	.LVL231:
1016:lib/ff/ff.c   **** 		if (cs < fs->n_fatent) return cs;	/* It is already followed by next cluster */
 1630              		.loc 1 1016 0
 1631 001a 0128     		cmp	r0, #1
 1632 001c 3BD9     		bls	.L198
 1633              	.L173:
1017:lib/ff/ff.c   **** 		scl = clst;
 1634              		.loc 1 1017 0
 1635 001e EB69     		ldr	r3, [r5, #28]
 1636 0020 9842     		cmp	r0, r3
 1637 0022 39D3     		bcc	.L174
 1638 0024 3E46     		mov	r6, r7
 1639 0026 00E0     		b	.L172
 1640              	.LVL232:
 1641              	.L186:
1012:lib/ff/ff.c   **** 	}
 1642              		.loc 1 1012 0
 1643 0028 0126     		movs	r6, #1
 1644              	.LVL233:
 1645              	.L172:
 1646 002a 3446     		mov	r4, r6
 1647              	.L180:
 1648              	.LVL234:
1023:lib/ff/ff.c   **** 		if (ncl >= fs->n_fatent) {		/* Wrap around */
 1649              		.loc 1 1023 0
 1650 002c 0134     		adds	r4, r4, #1
 1651              	.LVL235:
1024:lib/ff/ff.c   **** 			ncl = 2;
 1652              		.loc 1 1024 0
 1653 002e E969     		ldr	r1, [r5, #28]
 1654 0030 8C42     		cmp	r4, r1
 1655 0032 04D3     		bcc	.L175
 1656              	.LVL236:
1026:lib/ff/ff.c   **** 		}
 1657              		.loc 1 1026 0
 1658 0034 012E     		cmp	r6, #1
 1659 0036 01D8     		bhi	.L188
 1660              	.LVL237:
 1661              	.L179:
 1662 0038 0020     		movs	r0, #0
 1663 003a F8BD     		pop	{r3, r4, r5, r6, r7, pc}
 1664              	.LVL238:
 1665              	.L188:
1025:lib/ff/ff.c   **** 			if (ncl > scl) return 0;	/* No free cluster */
 1666              		.loc 1 1025 0
 1667 003c 0224     		movs	r4, #2
 1668              	.LVL239:
 1669              	.L175:
1028:lib/ff/ff.c   **** 		if (cs == 0) break;				/* Found a free cluster */
 1670              		.loc 1 1028 0
 1671 003e 2846     		mov	r0, r5
 1672 0040 2146     		mov	r1, r4
 1673 0042 FFF7FEFF 		bl	get_fat
 1674              	.LVL240:
1029:lib/ff/ff.c   **** 		if (cs == 0xFFFFFFFF || cs == 1)/* An error occurred */
 1675              		.loc 1 1029 0
 1676 0046 48B1     		cbz	r0, .L176
1030:lib/ff/ff.c   **** 			return cs;
 1677              		.loc 1 1030 0
 1678 0048 411C     		adds	r1, r0, #1
 1679 004a 02D1     		bne	.L177
 1680              	.LVL241:
 1681              	.L185:
1046:lib/ff/ff.c   **** 	}
 1682              		.loc 1 1046 0
 1683 004c 4FF0FF30 		mov	r0, #-1
 1684 0050 F8BD     		pop	{r3, r4, r5, r6, r7, pc}
 1685              	.LVL242:
 1686              	.L177:
1030:lib/ff/ff.c   **** 			return cs;
 1687              		.loc 1 1030 0 discriminator 1
 1688 0052 0128     		cmp	r0, #1
 1689 0054 1FD0     		beq	.L198
1032:lib/ff/ff.c   **** 	}
 1690              		.loc 1 1032 0
 1691 0056 B442     		cmp	r4, r6
 1692 0058 E8D1     		bne	.L180
 1693 005a EDE7     		b	.L179
 1694              	.L176:
1035:lib/ff/ff.c   **** 	if (res == FR_OK && clst != 0) {
 1695              		.loc 1 1035 0
 1696 005c 2846     		mov	r0, r5
 1697              	.LVL243:
 1698 005e 2146     		mov	r1, r4
 1699 0060 6FF07042 		mvn	r2, #-268435456
 1700 0064 FFF7FEFF 		bl	put_fat
 1701              	.LVL244:
1036:lib/ff/ff.c   **** 		res = put_fat(fs, clst, ncl);	/* Link it to the previous one if needed */
 1702              		.loc 1 1036 0
 1703 0068 98B9     		cbnz	r0, .L181
1036:lib/ff/ff.c   **** 		res = put_fat(fs, clst, ncl);	/* Link it to the previous one if needed */
 1704              		.loc 1 1036 0 is_stmt 0 discriminator 1
 1705 006a 47B9     		cbnz	r7, .L182
 1706              	.L184:
1040:lib/ff/ff.c   **** 		if (fs->free_clust != 0xFFFFFFFF) {
 1707              		.loc 1 1040 0 is_stmt 1
 1708 006c EC60     		str	r4, [r5, #12]
1041:lib/ff/ff.c   **** 			fs->free_clust--;
 1709              		.loc 1 1041 0
 1710 006e 2B69     		ldr	r3, [r5, #16]
 1711 0070 5A1C     		adds	r2, r3, #1
 1712 0072 0CD0     		beq	.L199
 1713              	.L183:
1042:lib/ff/ff.c   **** 			fs->fsi_flag = 1;
 1714              		.loc 1 1042 0
 1715 0074 5A1E     		subs	r2, r3, #1
 1716 0076 2A61     		str	r2, [r5, #16]
1043:lib/ff/ff.c   **** 		}
 1717              		.loc 1 1043 0
 1718 0078 0120     		movs	r0, #1
 1719              	.LVL245:
 1720 007a 6871     		strb	r0, [r5, #5]
 1721 007c 07E0     		b	.L199
 1722              	.LVL246:
 1723              	.L182:
1037:lib/ff/ff.c   **** 	}
 1724              		.loc 1 1037 0
 1725 007e 2846     		mov	r0, r5
 1726              	.LVL247:
 1727 0080 3946     		mov	r1, r7
 1728 0082 2246     		mov	r2, r4
 1729 0084 FFF7FEFF 		bl	put_fat
 1730              	.LVL248:
1039:lib/ff/ff.c   **** 		fs->last_clust = ncl;			/* Update FSINFO */
 1731              		.loc 1 1039 0
 1732 0088 0028     		cmp	r0, #0
 1733 008a EFD0     		beq	.L184
 1734 008c 01E0     		b	.L181
 1735              	.LVL249:
 1736              	.L199:
1043:lib/ff/ff.c   **** 		}
 1737              		.loc 1 1043 0
 1738 008e 2046     		mov	r0, r4
 1739 0090 F8BD     		pop	{r3, r4, r5, r6, r7, pc}
 1740              	.LVL250:
 1741              	.L181:
1046:lib/ff/ff.c   **** 	}
 1742              		.loc 1 1046 0
 1743 0092 0128     		cmp	r0, #1
 1744 0094 DAD0     		beq	.L185
 1745              	.LVL251:
 1746              	.L198:
 1747 0096 0120     		movs	r0, #1
 1748              	.L174:
1050:lib/ff/ff.c   **** #endif /* !_FS_READONLY */
 1749              		.loc 1 1050 0
 1750 0098 F8BD     		pop	{r3, r4, r5, r6, r7, pc}
 1751              		.cfi_endproc
 1752              	.LFE11:
 1754              		.section	.text.dir_next,"ax",%progbits
 1755              		.align	1
 1756              		.thumb
 1757              		.thumb_func
 1759              	dir_next:
 1760              	.LFB14:
1140:lib/ff/ff.c   **** 	DWORD clst;
 1761              		.loc 1 1140 0
 1762              		.cfi_startproc
 1763              		@ args = 0, pretend = 0, frame = 0
 1764              		@ frame_needed = 0, uses_anonymous_args = 0
 1765              	.LVL252:
 1766 0000 2DE9F843 		push	{r3, r4, r5, r6, r7, r8, r9, lr}
 1767              	.LCFI13:
 1768              		.cfi_def_cfa_offset 32
 1769              		.cfi_offset 3, -32
 1770              		.cfi_offset 4, -28
 1771              		.cfi_offset 5, -24
 1772              		.cfi_offset 6, -20
 1773              		.cfi_offset 7, -16
 1774              		.cfi_offset 8, -12
 1775              		.cfi_offset 9, -8
 1776              		.cfi_offset 14, -4
 1777 0004 0446     		mov	r4, r0
 1778 0006 0F46     		mov	r7, r1
1146:lib/ff/ff.c   **** 	if (!i || !dj->sect)	/* Report EOT when index has reached 65535 */
 1779              		.loc 1 1146 0
 1780 0008 C688     		ldrh	r6, [r0, #6]
 1781 000a 701C     		adds	r0, r6, #1
 1782              	.LVL253:
 1783 000c 86B2     		uxth	r6, r0
 1784              	.LVL254:
1147:lib/ff/ff.c   **** 		return FR_NO_FILE;
 1785              		.loc 1 1147 0
 1786 000e 16B9     		cbnz	r6, .L201
 1787              	.LVL255:
 1788              	.L203:
 1789              	.LBB41:
1148:lib/ff/ff.c   **** 
 1790              		.loc 1 1148 0
 1791 0010 0420     		movs	r0, #4
 1792 0012 BDE8F883 		pop	{r3, r4, r5, r6, r7, r8, r9, pc}
 1793              	.LVL256:
 1794              	.L201:
 1795              	.LBE41:
1147:lib/ff/ff.c   **** 		return FR_NO_FILE;
 1796              		.loc 1 1147 0 discriminator 1
 1797 0016 2369     		ldr	r3, [r4, #16]
 1798 0018 002B     		cmp	r3, #0
 1799 001a F9D0     		beq	.L203
1150:lib/ff/ff.c   **** 		dj->sect++;					/* Next sector */
 1800              		.loc 1 1150 0
 1801 001c 16F00F08 		ands	r8, r6, #15
 1802 0020 5AD1     		bne	.L205
1151:lib/ff/ff.c   **** 
 1803              		.loc 1 1151 0
 1804 0022 591C     		adds	r1, r3, #1
 1805              	.LVL257:
 1806 0024 2161     		str	r1, [r4, #16]
1153:lib/ff/ff.c   **** 			if (i >= dj->fs->n_rootdir)	/* Report EOT when end of table */
 1807              		.loc 1 1153 0
 1808 0026 E168     		ldr	r1, [r4, #12]
 1809 0028 2068     		ldr	r0, [r4, #0]
 1810              	.LVL258:
 1811 002a 19B9     		cbnz	r1, .L206
1154:lib/ff/ff.c   **** 				return FR_NO_FILE;
 1812              		.loc 1 1154 0
 1813 002c 0189     		ldrh	r1, [r0, #8]
 1814 002e B142     		cmp	r1, r6
 1815 0030 EED9     		bls	.L203
 1816 0032 51E0     		b	.L205
 1817              	.L206:
1158:lib/ff/ff.c   **** 				clst = get_fat(dj->fs, dj->clust);				/* Get next cluster */
 1818              		.loc 1 1158 0
 1819 0034 8278     		ldrb	r2, [r0, #2]	@ zero_extendqisi2
 1820 0036 531E     		subs	r3, r2, #1
 1821 0038 13EA1612 		ands	r2, r3, r6, lsr #4
 1822 003c 4CD1     		bne	.L205
1159:lib/ff/ff.c   **** 				if (clst <= 1) return FR_INT_ERR;
 1823              		.loc 1 1159 0
 1824 003e FFF7FEFF 		bl	get_fat
 1825              	.LVL259:
 1826 0042 0546     		mov	r5, r0
 1827              	.LVL260:
1160:lib/ff/ff.c   **** 				if (clst == 0xFFFFFFFF) return FR_DISK_ERR;
 1828              		.loc 1 1160 0
 1829 0044 0128     		cmp	r0, #1
 1830 0046 02D8     		bhi	.L208
 1831              	.L211:
 1832 0048 0220     		movs	r0, #2
 1833              	.LVL261:
 1834 004a BDE8F883 		pop	{r3, r4, r5, r6, r7, r8, r9, pc}
 1835              	.LVL262:
 1836              	.L208:
1161:lib/ff/ff.c   **** 				if (clst >= dj->fs->n_fatent) {					/* When it reached end of dynamic table */
 1837              		.loc 1 1161 0
 1838 004e 431C     		adds	r3, r0, #1
 1839 0050 02D1     		bne	.L209
 1840              	.LVL263:
 1841              	.L212:
 1842 0052 0120     		movs	r0, #1
 1843 0054 BDE8F883 		pop	{r3, r4, r5, r6, r7, r8, r9, pc}
 1844              	.LVL264:
 1845              	.L209:
1162:lib/ff/ff.c   **** #if !_FS_READONLY
 1846              		.loc 1 1162 0
 1847 0058 2068     		ldr	r0, [r4, #0]
 1848              	.LVL265:
 1849 005a C169     		ldr	r1, [r0, #28]
 1850 005c 8D42     		cmp	r5, r1
 1851 005e 35D3     		bcc	.L210
 1852              	.LBB42:
1165:lib/ff/ff.c   **** 					clst = create_chain(dj->fs, dj->clust);		/* Stretch cluster chain */
 1853              		.loc 1 1165 0
 1854 0060 002F     		cmp	r7, #0
 1855 0062 D5D0     		beq	.L203
1166:lib/ff/ff.c   **** 					if (clst == 0) return FR_DENIED;			/* No free cluster */
 1856              		.loc 1 1166 0
 1857 0064 E168     		ldr	r1, [r4, #12]
 1858 0066 FFF7FEFF 		bl	create_chain
 1859              	.LVL266:
1167:lib/ff/ff.c   **** 					if (clst == 1) return FR_INT_ERR;
 1860              		.loc 1 1167 0
 1861 006a 0546     		mov	r5, r0
 1862 006c 0028     		cmp	r0, #0
 1863 006e 3FD0     		beq	.L215
1168:lib/ff/ff.c   **** 					if (clst == 0xFFFFFFFF) return FR_DISK_ERR;
 1864              		.loc 1 1168 0
 1865 0070 0128     		cmp	r0, #1
 1866 0072 E9D0     		beq	.L211
1169:lib/ff/ff.c   **** 					/* Clean-up stretched table */
 1867              		.loc 1 1169 0
 1868 0074 0130     		adds	r0, r0, #1
 1869              	.LVL267:
 1870 0076 ECD0     		beq	.L212
1171:lib/ff/ff.c   **** 					mem_set(dj->fs->win, 0, SS(dj->fs));			/* Clear window buffer */
 1871              		.loc 1 1171 0
 1872 0078 2068     		ldr	r0, [r4, #0]
 1873 007a FFF7FEFF 		bl	sync_window
 1874              	.LVL268:
 1875 007e 0746     		mov	r7, r0
 1876              	.LVL269:
 1877 0080 0028     		cmp	r0, #0
 1878 0082 E6D1     		bne	.L212
1172:lib/ff/ff.c   **** 					dj->fs->winsect = clust2sect(dj->fs, clst);	/* Cluster start sector */
 1879              		.loc 1 1172 0
 1880 0084 2068     		ldr	r0, [r4, #0]
 1881 0086 3830     		adds	r0, r0, #56
 1882 0088 3946     		mov	r1, r7
 1883 008a 4FF40072 		mov	r2, #512
 1884 008e FFF7FEFF 		bl	mem_set
 1885              	.LVL270:
1173:lib/ff/ff.c   **** 					for (c = 0; c < dj->fs->csize; c++) {		/* Fill the new cluster with 0 */
 1886              		.loc 1 1173 0
 1887 0092 D4F80090 		ldr	r9, [r4, #0]
 1888 0096 4846     		mov	r0, r9
 1889 0098 2946     		mov	r1, r5
 1890 009a FFF7FEFF 		bl	clust2sect
 1891              	.LVL271:
 1892 009e C9F83400 		str	r0, [r9, #52]
 1893              	.LVL272:
 1894              	.L213:
1174:lib/ff/ff.c   **** 						dj->fs->wflag = 1;
 1895              		.loc 1 1174 0 discriminator 1
 1896 00a2 2068     		ldr	r0, [r4, #0]
 1897 00a4 8278     		ldrb	r2, [r0, #2]	@ zero_extendqisi2
 1898 00a6 BA42     		cmp	r2, r7
 1899 00a8 0DD9     		bls	.L228
 1900              	.L214:
1175:lib/ff/ff.c   **** 						if (sync_window(dj->fs)) return FR_DISK_ERR;
 1901              		.loc 1 1175 0
 1902 00aa 0121     		movs	r1, #1
 1903 00ac 0171     		strb	r1, [r0, #4]
1176:lib/ff/ff.c   **** 						dj->fs->winsect++;
 1904              		.loc 1 1176 0
 1905 00ae 2068     		ldr	r0, [r4, #0]
 1906 00b0 FFF7FEFF 		bl	sync_window
 1907              	.LVL273:
 1908 00b4 0028     		cmp	r0, #0
 1909 00b6 CCD1     		bne	.L212
1177:lib/ff/ff.c   **** 					}
 1910              		.loc 1 1177 0
 1911 00b8 2068     		ldr	r0, [r4, #0]
 1912 00ba 426B     		ldr	r2, [r0, #52]
 1913 00bc 531C     		adds	r3, r2, #1
 1914 00be 4363     		str	r3, [r0, #52]
1174:lib/ff/ff.c   **** 						dj->fs->wflag = 1;
 1915              		.loc 1 1174 0
 1916 00c0 0137     		adds	r7, r7, #1
 1917              	.LVL274:
 1918 00c2 FFB2     		uxtb	r7, r7
 1919              	.LVL275:
 1920 00c4 EDE7     		b	.L213
 1921              	.L228:
1179:lib/ff/ff.c   **** #else
 1922              		.loc 1 1179 0
 1923 00c6 436B     		ldr	r3, [r0, #52]
 1924 00c8 DF1B     		subs	r7, r3, r7
 1925              	.LVL276:
 1926 00ca 4763     		str	r7, [r0, #52]
 1927              	.L210:
 1928              	.LBE42:
1184:lib/ff/ff.c   **** 				dj->sect = clust2sect(dj->fs, clst);
 1929              		.loc 1 1184 0
 1930 00cc E560     		str	r5, [r4, #12]
1185:lib/ff/ff.c   **** 			}
 1931              		.loc 1 1185 0
 1932 00ce 2068     		ldr	r0, [r4, #0]
 1933 00d0 2946     		mov	r1, r5
 1934 00d2 FFF7FEFF 		bl	clust2sect
 1935              	.LVL277:
 1936 00d6 2061     		str	r0, [r4, #16]
 1937              	.LVL278:
 1938              	.L205:
1190:lib/ff/ff.c   **** 	dj->dir = dj->fs->win + (i % (SS(dj->fs) / SZ_DIR)) * SZ_DIR;
 1939              		.loc 1 1190 0
 1940 00d8 E680     		strh	r6, [r4, #6]	@ movhi
1191:lib/ff/ff.c   **** 
 1941              		.loc 1 1191 0
 1942 00da 4FEA4818 		lsl	r8, r8, #5
 1943 00de 08F13808 		add	r8, r8, #56
 1944 00e2 2068     		ldr	r0, [r4, #0]
 1945 00e4 00EB0802 		add	r2, r0, r8
 1946 00e8 6261     		str	r2, [r4, #20]
1193:lib/ff/ff.c   **** }
 1947              		.loc 1 1193 0
 1948 00ea 0020     		movs	r0, #0
 1949 00ec BDE8F883 		pop	{r3, r4, r5, r6, r7, r8, r9, pc}
 1950              	.LVL279:
 1951              	.L215:
 1952              	.LBB43:
1167:lib/ff/ff.c   **** 					if (clst == 1) return FR_INT_ERR;
 1953              		.loc 1 1167 0
 1954 00f0 0720     		movs	r0, #7
 1955              	.LVL280:
 1956              	.LBE43:
1194:lib/ff/ff.c   **** 
 1957              		.loc 1 1194 0
 1958 00f2 BDE8F883 		pop	{r3, r4, r5, r6, r7, r8, r9, pc}
 1959              		.cfi_endproc
 1960              	.LFE14:
 1962              		.section	.text.dir_read,"ax",%progbits
 1963              		.align	1
 1964              		.thumb
 1965              		.thumb_func
 1967              	dir_read:
 1968              	.LFB19:
1511:lib/ff/ff.c   **** 	FRESULT res;
 1969              		.loc 1 1511 0
 1970              		.cfi_startproc
 1971              		@ args = 0, pretend = 0, frame = 0
 1972              		@ frame_needed = 0, uses_anonymous_args = 0
 1973              	.LVL281:
 1974 0000 38B5     		push	{r3, r4, r5, lr}
 1975              	.LCFI14:
 1976              		.cfi_def_cfa_offset 16
 1977              		.cfi_offset 3, -16
 1978              		.cfi_offset 4, -12
 1979              		.cfi_offset 5, -8
 1980              		.cfi_offset 14, -4
 1981 0002 0446     		mov	r4, r0
 1982 0004 0D46     		mov	r5, r1
 1983              	.LVL282:
1518:lib/ff/ff.c   **** 	while (dj->sect) {
 1984              		.loc 1 1518 0
 1985 0006 0423     		movs	r3, #4
 1986              	.LVL283:
 1987              	.L230:
1519:lib/ff/ff.c   **** 		res = move_window(dj->fs, dj->sect);
 1988              		.loc 1 1519 0 discriminator 1
 1989 0008 2169     		ldr	r1, [r4, #16]
 1990 000a E1B1     		cbz	r1, .L248
 1991              	.L234:
1520:lib/ff/ff.c   **** 		if (res != FR_OK) break;
 1992              		.loc 1 1520 0
 1993 000c 2068     		ldr	r0, [r4, #0]
 1994 000e FFF7FEFF 		bl	move_window
 1995              	.LVL284:
1521:lib/ff/ff.c   **** 		dir = dj->dir;					/* Ptr to the directory entry of current index */
 1996              		.loc 1 1521 0
 1997 0012 F8B9     		cbnz	r0, .L231
1522:lib/ff/ff.c   **** 		c = dir[DIR_Name];
 1998              		.loc 1 1522 0
 1999 0014 6369     		ldr	r3, [r4, #20]
 2000              	.LVL285:
1523:lib/ff/ff.c   **** 		if (c == 0) { res = FR_NO_FILE; break; }	/* Reached to end of table */
 2001              		.loc 1 1523 0
 2002 0016 1A78     		ldrb	r2, [r3, #0]	@ zero_extendqisi2
 2003              	.LVL286:
1524:lib/ff/ff.c   **** 		a = dir[DIR_Attr] & AM_MASK;
 2004              		.loc 1 1524 0
 2005 0018 DAB1     		cbz	r2, .L236
1525:lib/ff/ff.c   **** #if _USE_LFN	/* LFN configuration */
 2006              		.loc 1 1525 0
 2007 001a D97A     		ldrb	r1, [r3, #11]	@ zero_extendqisi2
 2008 001c 01F03F03 		and	r3, r1, #63
 2009              	.LVL287:
1545:lib/ff/ff.c   **** 			break;
 2010              		.loc 1 1545 0
 2011 0020 E52A     		cmp	r2, #229
 2012 0022 08D0     		beq	.L232
1545:lib/ff/ff.c   **** 			break;
 2013              		.loc 1 1545 0 is_stmt 0 discriminator 1
 2014 0024 0F2B     		cmp	r3, #15
 2015 0026 06D0     		beq	.L232
 2016 0028 B3F10802 		subs	r2, r3, #8
 2017 002c 5142     		rsbs	r1, r2, #0
 2018 002e 51EB0203 		adcs	r3, r1, r2
 2019              	.LVL288:
 2020 0032 AB42     		cmp	r3, r5
 2021 0034 10D0     		beq	.L241
 2022              	.LVL289:
 2023              	.L232:
1548:lib/ff/ff.c   **** 		if (res != FR_OK) break;
 2024              		.loc 1 1548 0 is_stmt 1
 2025 0036 2046     		mov	r0, r4
 2026              	.LVL290:
 2027 0038 0021     		movs	r1, #0
 2028 003a FFF7FEFF 		bl	dir_next
 2029              	.LVL291:
 2030 003e 0346     		mov	r3, r0
 2031              	.LVL292:
1549:lib/ff/ff.c   **** 	}
 2032              		.loc 1 1549 0
 2033 0040 0028     		cmp	r0, #0
 2034 0042 E1D0     		beq	.L230
 2035 0044 06E0     		b	.L231
 2036              	.LVL293:
 2037              	.L248:
1519:lib/ff/ff.c   **** 		res = move_window(dj->fs, dj->sect);
 2038              		.loc 1 1519 0
 2039 0046 1846     		mov	r0, r3
 2040              	.LVL294:
1552:lib/ff/ff.c   **** 
 2041              		.loc 1 1552 0
 2042 0048 33B1     		cbz	r3, .L241
 2043              	.LVL295:
 2044              	.L235:
1552:lib/ff/ff.c   **** 
 2045              		.loc 1 1552 0 is_stmt 0 discriminator 1
 2046 004a 0020     		movs	r0, #0
 2047 004c 2061     		str	r0, [r4, #16]
 2048 004e 1846     		mov	r0, r3
 2049 0050 38BD     		pop	{r3, r4, r5, pc}
 2050              	.LVL296:
 2051              	.L236:
1524:lib/ff/ff.c   **** 		a = dir[DIR_Attr] & AM_MASK;
 2052              		.loc 1 1524 0 is_stmt 1
 2053 0052 0420     		movs	r0, #4
 2054              	.LVL297:
 2055              	.L231:
1519:lib/ff/ff.c   **** 		res = move_window(dj->fs, dj->sect);
 2056              		.loc 1 1519 0
 2057 0054 0346     		mov	r3, r0
 2058 0056 F8E7     		b	.L235
 2059              	.LVL298:
 2060              	.L241:
1555:lib/ff/ff.c   **** #endif	/* _FS_MINIMIZE <= 1 || _USE_LABEL || _FS_RPATH >= 2 */
 2061              		.loc 1 1555 0
 2062 0058 38BD     		pop	{r3, r4, r5, pc}
 2063              		.cfi_endproc
 2064              	.LFE19:
 2066              		.section	.text.follow_path,"ax",%progbits
 2067              		.align	1
 2068              		.thumb
 2069              		.thumb_func
 2071              	follow_path:
 2072              	.LFB24:
1984:lib/ff/ff.c   **** 	FRESULT res;
 2073              		.loc 1 1984 0
 2074              		.cfi_startproc
 2075              		@ args = 0, pretend = 0, frame = 0
 2076              		@ frame_needed = 0, uses_anonymous_args = 0
 2077              	.LVL299:
 2078 0000 2DE9F041 		push	{r4, r5, r6, r7, r8, lr}
 2079              	.LCFI15:
 2080              		.cfi_def_cfa_offset 24
 2081              		.cfi_offset 4, -24
 2082              		.cfi_offset 5, -20
 2083              		.cfi_offset 6, -16
 2084              		.cfi_offset 7, -12
 2085              		.cfi_offset 8, -8
 2086              		.cfi_offset 14, -4
 2087 0004 0446     		mov	r4, r0
 2088 0006 0F46     		mov	r7, r1
1990:lib/ff/ff.c   **** 		path++;	dj->sclust = 0;		/* Strip it and start from the root dir */
 2089              		.loc 1 1990 0
 2090 0008 91F90030 		ldrsb	r3, [r1, #0]
 2091 000c 2F2B     		cmp	r3, #47
 2092 000e 01D0     		beq	.L250
1990:lib/ff/ff.c   **** 		path++;	dj->sclust = 0;		/* Strip it and start from the root dir */
 2093              		.loc 1 1990 0 is_stmt 0 discriminator 1
 2094 0010 5C2B     		cmp	r3, #92
 2095 0012 02D1     		bne	.L251
 2096              	.L250:
1991:lib/ff/ff.c   **** 	} else {							/* No heading separator */
 2097              		.loc 1 1991 0 is_stmt 1
 2098 0014 0137     		adds	r7, r7, #1
 2099              	.LVL300:
 2100 0016 0021     		movs	r1, #0
 2101 0018 01E0     		b	.L344
 2102              	.LVL301:
 2103              	.L251:
1993:lib/ff/ff.c   **** 	}
 2104              		.loc 1 1993 0
 2105 001a 0068     		ldr	r0, [r0, #0]
 2106              	.LVL302:
 2107 001c 8169     		ldr	r1, [r0, #24]
 2108              	.LVL303:
 2109              	.L344:
 2110 001e A160     		str	r1, [r4, #8]
2001:lib/ff/ff.c   **** 		res = dir_sdi(dj, 0);
 2111              		.loc 1 2001 0
 2112 0020 3A78     		ldrb	r2, [r7, #0]	@ zero_extendqisi2
 2113 0022 1F2A     		cmp	r2, #31
 2114 0024 4AD8     		bhi	.L340
2002:lib/ff/ff.c   **** 		dj->dir = 0;
 2115              		.loc 1 2002 0
 2116 0026 2046     		mov	r0, r4
 2117 0028 0021     		movs	r1, #0
 2118 002a FFF7FEFF 		bl	dir_sdi
 2119              	.LVL304:
2003:lib/ff/ff.c   **** 	} else {							/* Follow path */
 2120              		.loc 1 2003 0
 2121 002e 0022     		movs	r2, #0
 2122 0030 6261     		str	r2, [r4, #20]
 2123 0032 BDE8F081 		pop	{r4, r5, r6, r7, r8, pc}
 2124              	.LVL305:
 2125              	.L339:
 2126 0036 0746     		mov	r7, r0
 2127              	.LVL306:
 2128              	.LBB54:
 2129              	.LBB55:
1820:lib/ff/ff.c   **** 	sfn = dj->fn;
 2130              		.loc 1 1820 0
 2131 0038 0678     		ldrb	r6, [r0, #0]	@ zero_extendqisi2
 2132 003a 0130     		adds	r0, r0, #1
 2133              	.LVL307:
 2134 003c 73B2     		sxtb	r3, r6
 2135 003e 2F2B     		cmp	r3, #47
 2136 0040 F9D0     		beq	.L339
 2137 0042 5C2B     		cmp	r3, #92
 2138 0044 F7D0     		beq	.L339
1821:lib/ff/ff.c   **** 	mem_set(sfn, ' ', 11);
 2139              		.loc 1 1821 0
 2140 0046 A669     		ldr	r6, [r4, #24]
 2141              	.LVL308:
1822:lib/ff/ff.c   **** 	si = i = b = 0; ni = 8;
 2142              		.loc 1 1822 0
 2143 0048 3046     		mov	r0, r6
 2144 004a 2021     		movs	r1, #32
 2145 004c 0B22     		movs	r2, #11
 2146 004e FFF7FEFF 		bl	mem_set
 2147              	.LVL309:
1825:lib/ff/ff.c   **** 		for (;;) {
 2148              		.loc 1 1825 0
 2149 0052 97F90010 		ldrsb	r1, [r7, #0]
 2150 0056 2E29     		cmp	r1, #46
 2151 0058 3AD1     		bne	.L292
 2152              	.LVL310:
1829:lib/ff/ff.c   **** 		}
 2153              		.loc 1 1829 0
 2154 005a 3170     		strb	r1, [r6, #0]
 2155              	.LVL311:
1827:lib/ff/ff.c   **** 			if (c != '.' || si >= 3) break;
 2156              		.loc 1 1827 0
 2157 005c 7878     		ldrb	r0, [r7, #1]	@ zero_extendqisi2
 2158              	.LVL312:
1828:lib/ff/ff.c   **** 			sfn[i++] = c;
 2159              		.loc 1 1828 0
 2160 005e 2E28     		cmp	r0, #46
 2161 0060 2ED1     		bne	.L293
1829:lib/ff/ff.c   **** 		}
 2162              		.loc 1 1829 0
 2163 0062 7070     		strb	r0, [r6, #1]
 2164              	.LVL313:
1827:lib/ff/ff.c   **** 			if (c != '.' || si >= 3) break;
 2165              		.loc 1 1827 0
 2166 0064 B878     		ldrb	r0, [r7, #2]	@ zero_extendqisi2
 2167              	.LVL314:
 2168 0066 0323     		movs	r3, #3
 2169              	.LVL315:
 2170              	.L259:
1831:lib/ff/ff.c   **** 		*path = &p[si];									/* Return pointer to the next segment */
 2171              		.loc 1 1831 0
 2172 0068 2F28     		cmp	r0, #47
 2173 006a 2BD1     		bne	.L347
 2174              	.L260:
1832:lib/ff/ff.c   **** 		sfn[NS] = (c <= ' ') ? NS_LAST | NS_DOT : NS_DOT;	/* Set last segment flag if end of path */
 2175              		.loc 1 1832 0
 2176 006c FF18     		adds	r7, r7, r3
 2177              	.LVL316:
1833:lib/ff/ff.c   **** 		return FR_OK;
 2178              		.loc 1 1833 0
 2179 006e 2028     		cmp	r0, #32
 2180 0070 8CBF     		ite	hi
 2181 0072 2023     		movhi	r3, #32
 2182 0074 2423     		movls	r3, #36
 2183              	.LVL317:
 2184              	.L346:
1884:lib/ff/ff.c   **** 
 2185              		.loc 1 1884 0
 2186 0076 F372     		strb	r3, [r6, #11]
 2187              	.LVL318:
 2188              	.LBE55:
 2189              	.LBE54:
 2190              	.LBB60:
 2191              	.LBB61:
1456:lib/ff/ff.c   **** 	if (res != FR_OK) return res;
 2192              		.loc 1 1456 0
 2193 0078 2046     		mov	r0, r4
 2194 007a 0021     		movs	r1, #0
 2195 007c FFF7FEFF 		bl	dir_sdi
 2196              	.LVL319:
 2197              	.L345:
1457:lib/ff/ff.c   **** 
 2198              		.loc 1 1457 0
 2199 0080 30B9     		cbnz	r0, .L279
 2200              	.L324:
1463:lib/ff/ff.c   **** 		if (res != FR_OK) break;
 2201              		.loc 1 1463 0
 2202 0082 2068     		ldr	r0, [r4, #0]
 2203              	.LVL320:
 2204 0084 2169     		ldr	r1, [r4, #16]
 2205 0086 FFF7FEFF 		bl	move_window
 2206              	.LVL321:
1464:lib/ff/ff.c   **** 		dir = dj->dir;					/* Ptr to the directory entry of current index */
 2207              		.loc 1 1464 0
 2208 008a 0028     		cmp	r0, #0
 2209 008c 00F0A680 		beq	.L348
 2210              	.LVL322:
 2211              	.L279:
 2212              	.LBE61:
 2213              	.LBE60:
2009:lib/ff/ff.c   **** 			if (res != FR_OK) {				/* Failed to find the object */
 2214              		.loc 1 2009 0
 2215 0090 A169     		ldr	r1, [r4, #24]
 2216 0092 CB7A     		ldrb	r3, [r1, #11]	@ zero_extendqisi2
 2217              	.LVL323:
2010:lib/ff/ff.c   **** 				if (res != FR_NO_FILE) break;	/* Abort if any hard error occurred */
 2218              		.loc 1 2010 0
 2219 0094 0028     		cmp	r0, #0
 2220 0096 00F0BA80 		beq	.L284
2011:lib/ff/ff.c   **** 				/* Object not found */
 2221              		.loc 1 2011 0
 2222 009a 0428     		cmp	r0, #4
 2223 009c 40F0D880 		bne	.L314
2013:lib/ff/ff.c   **** 					dj->sclust = 0; dj->dir = 0;	/* It is the root dir */
 2224              		.loc 1 2013 0
 2225 00a0 03F02002 		and	r2, r3, #32
 2226 00a4 D1B2     		uxtb	r1, r2
 2227              	.LVL324:
 2228 00a6 03F00400 		and	r0, r3, #4
 2229 00aa 0029     		cmp	r1, #0
 2230 00ac 00F0B680 		beq	.L285
2014:lib/ff/ff.c   **** 					res = FR_OK;
 2231              		.loc 1 2014 0
 2232 00b0 0023     		movs	r3, #0
 2233 00b2 A360     		str	r3, [r4, #8]
 2234 00b4 6361     		str	r3, [r4, #20]
 2235              	.LVL325:
2016:lib/ff/ff.c   **** 				} else {							/* Could not find the object */
 2236              		.loc 1 2016 0
 2237 00b6 0028     		cmp	r0, #0
 2238 00b8 40F0AD80 		bne	.L287
 2239              	.LVL326:
 2240              	.L340:
 2241 00bc 3846     		mov	r0, r7
 2242 00be BAE7     		b	.L339
 2243              	.LVL327:
 2244              	.L293:
 2245              	.LBB66:
 2246              	.LBB58:
1827:lib/ff/ff.c   **** 			if (c != '.' || si >= 3) break;
 2247              		.loc 1 1827 0
 2248 00c0 0223     		movs	r3, #2
 2249 00c2 D1E7     		b	.L259
 2250              	.LVL328:
 2251              	.L347:
1831:lib/ff/ff.c   **** 		*path = &p[si];									/* Return pointer to the next segment */
 2252              		.loc 1 1831 0
 2253 00c4 5C28     		cmp	r0, #92
 2254 00c6 D1D0     		beq	.L260
 2255 00c8 2028     		cmp	r0, #32
 2256 00ca 00F2C080 		bhi	.L261
 2257 00ce CDE7     		b	.L260
 2258              	.LVL329:
 2259              	.L292:
1825:lib/ff/ff.c   **** 		for (;;) {
 2260              		.loc 1 1825 0
 2261 00d0 0022     		movs	r2, #0
 2262 00d2 9446     		mov	ip, r2
 2263 00d4 0821     		movs	r1, #8
 2264 00d6 1546     		mov	r5, r2
 2265              	.LVL330:
 2266              	.L258:
1838:lib/ff/ff.c   **** 		if (c <= ' ' || c == '/' || c == '\\') break;	/* Break on end of segment */
 2267              		.loc 1 1838 0
 2268 00d8 17F80C80 		ldrb	r8, [r7, ip]	@ zero_extendqisi2
 2269 00dc 5FFA88F3 		uxtb	r3, r8
 2270              	.LVL331:
 2271 00e0 0CF10100 		add	r0, ip, #1
 2272              	.LVL332:
1839:lib/ff/ff.c   **** 		if (c == '.' || i >= ni) {
 2273              		.loc 1 1839 0
 2274 00e4 202B     		cmp	r3, #32
 2275 00e6 42D9     		bls	.L295
 2276 00e8 2F2B     		cmp	r3, #47
 2277 00ea 42D0     		beq	.L297
 2278 00ec 5C2B     		cmp	r3, #92
 2279 00ee 40D0     		beq	.L297
1840:lib/ff/ff.c   **** 			if (ni != 8 || c != '.') return FR_INVALID_NAME;
 2280              		.loc 1 1840 0
 2281 00f0 2E2B     		cmp	r3, #46
 2282 00f2 6CD0     		beq	.L265
 2283 00f4 8A42     		cmp	r2, r1
 2284 00f6 80F0AA80 		bcs	.L261
1845:lib/ff/ff.c   **** 			b |= 3;						/* Eliminate NT flag */
 2285              		.loc 1 1845 0
 2286 00fa 18F0800F 		tst	r8, #128
1846:lib/ff/ff.c   **** #ifdef _EXCVT
 2287              		.loc 1 1846 0
 2288 00fe 18BF     		it	ne
 2289 0100 45F00305 		orrne	r5, r5, #3
 2290              	.LVL333:
1855:lib/ff/ff.c   **** 			d = (BYTE)p[si++];			/* Get 2nd byte */
 2291              		.loc 1 1855 0
 2292 0104 03F17F08 		add	r8, r3, #127
 2293              	.LVL334:
 2294 0108 5FFA88FE 		uxtb	lr, r8
 2295 010c BEF11E0F 		cmp	lr, #30
 2296 0110 06D9     		bls	.L269
 2297 0112 03F12008 		add	r8, r3, #32
 2298 0116 5FFA88FE 		uxtb	lr, r8
 2299 011a BEF11C0F 		cmp	lr, #28
 2300 011e 1AD8     		bhi	.L270
 2301              	.L269:
1856:lib/ff/ff.c   **** 			if (!IsDBCS2(d) || i >= ni - 1)	/* Reject invalid DBC */
 2302              		.loc 1 1856 0
 2303 0120 17F80080 		ldrb	r8, [r7, r0]	@ zero_extendqisi2
 2304              	.LVL335:
 2305 0124 0CF10200 		add	r0, ip, #2
 2306              	.LVL336:
1857:lib/ff/ff.c   **** 				return FR_INVALID_NAME;
 2307              		.loc 1 1857 0
 2308 0128 A8F1400E 		sub	lr, r8, #64
 2309 012c BEF13E0F 		cmp	lr, #62
 2310 0130 05D9     		bls	.L271
 2311 0132 88F0800C 		eor	ip, r8, #128
 2312              	.LVL337:
 2313 0136 BCF17C0F 		cmp	ip, #124
 2314 013a 00F28880 		bhi	.L261
 2315              	.L271:
 2316 013e 01F1FF3E 		add	lr, r1, #-1
 2317 0142 7245     		cmp	r2, lr
 2318 0144 80F08380 		bcs	.L261
1859:lib/ff/ff.c   **** 			sfn[i++] = d;
 2319              		.loc 1 1859 0
 2320 0148 B354     		strb	r3, [r6, r2]
 2321              	.LVL338:
1860:lib/ff/ff.c   **** 		} else {						/* Single byte code */
 2322              		.loc 1 1860 0
 2323 014a B318     		adds	r3, r6, r2
 2324              	.LVL339:
 2325 014c 83F80180 		strb	r8, [r3, #1]
 2326 0150 0232     		adds	r2, r2, #2
 2327              	.LVL340:
 2328              	.L267:
1825:lib/ff/ff.c   **** 		for (;;) {
 2329              		.loc 1 1825 0
 2330 0152 8446     		mov	ip, r0
 2331 0154 C0E7     		b	.L258
 2332              	.LVL341:
 2333              	.L270:
 2334 0156 DFF8FC80 		ldr	r8, .L351
 2335              	.LVL342:
 2336              	.L273:
 2337              	.LBB56:
 2338              	.LBB57:
 576:lib/ff/ff.c   **** 	return *str;
 2339              		.loc 1 576 0
 2340 015a 18F801CF 		ldrb	ip, [r8, #1]!	@ zero_extendqisi2
 2341 015e BCF1000F 		cmp	ip, #0
 2342 0162 20D0     		beq	.L272
 2343 0164 4FFA8CFC 		sxtb	ip, ip
 2344 0168 9C45     		cmp	ip, r3
 2345 016a F6D1     		bne	.L273
 2346 016c 6FE0     		b	.L261
 2347              	.LVL343:
 2348              	.L295:
 2349              	.LBE57:
 2350              	.LBE56:
1875:lib/ff/ff.c   **** 
 2351              		.loc 1 1875 0
 2352 016e 0423     		movs	r3, #4
 2353 0170 00E0     		b	.L264
 2354              	.L297:
 2355 0172 0023     		movs	r3, #0
 2356              	.L264:
 2357              	.LVL344:
1877:lib/ff/ff.c   **** 	if (sfn[0] == DDE) sfn[0] = NDDE;	/* When first char collides with DDE, replace it with 0x05 */
 2358              		.loc 1 1877 0
 2359 0174 002A     		cmp	r2, #0
 2360 0176 6AD0     		beq	.L261
1878:lib/ff/ff.c   **** 
 2361              		.loc 1 1878 0
 2362 0178 3278     		ldrb	r2, [r6, #0]	@ zero_extendqisi2
 2363              	.LVL345:
 2364 017a E52A     		cmp	r2, #229
 2365 017c 01D1     		bne	.L275
 2366 017e 0522     		movs	r2, #5
 2367 0180 3270     		strb	r2, [r6, #0]
 2368              	.L275:
1880:lib/ff/ff.c   **** 	if ((b & 0x03) == 0x01) c |= NS_EXT;	/* NT flag (Name extension has only small capital) */
 2369              		.loc 1 1880 0
 2370 0182 0829     		cmp	r1, #8
 2371 0184 01D1     		bne	.L276
 2372 0186 A900     		lsls	r1, r5, #2
 2373              	.LVL346:
 2374 0188 CDB2     		uxtb	r5, r1
 2375              	.LVL347:
 2376              	.L276:
1881:lib/ff/ff.c   **** 	if ((b & 0x0C) == 0x04) c |= NS_BODY;	/* NT flag (Name body has only small capital) */
 2377              		.loc 1 1881 0
 2378 018a 05F00302 		and	r2, r5, #3
 2379 018e 012A     		cmp	r2, #1
 2380 0190 08BF     		it	eq
 2381 0192 43F01003 		orreq	r3, r3, #16
 2382              	.LVL348:
1882:lib/ff/ff.c   **** 
 2383              		.loc 1 1882 0
 2384 0196 05F00C05 		and	r5, r5, #12
 2385              	.LVL349:
 2386 019a 042D     		cmp	r5, #4
 2387 019c 08BF     		it	eq
 2388 019e 43F00803 		orreq	r3, r3, #8
 2389              	.LVL350:
1874:lib/ff/ff.c   **** 	c = (c <= ' ') ? NS_LAST : 0;		/* Set last segment flag if end of path */
 2390              		.loc 1 1874 0
 2391 01a2 3F18     		adds	r7, r7, r0
 2392              	.LVL351:
 2393 01a4 67E7     		b	.L346
 2394              	.LVL352:
 2395              	.L272:
1864:lib/ff/ff.c   **** 				b |= 2;
 2396              		.loc 1 1864 0
 2397 01a6 A3F14108 		sub	r8, r3, #65
 2398 01aa B8F1190F 		cmp	r8, #25
 2399 01ae 02D8     		bhi	.L349
 2400              	.L289:
1865:lib/ff/ff.c   **** 			} else {
 2401              		.loc 1 1865 0
 2402 01b0 45F00205 		orr	r5, r5, #2
 2403              	.LVL353:
 2404 01b4 08E0     		b	.L274
 2405              	.L349:
1867:lib/ff/ff.c   **** 					b |= 1; c -= 0x20;
 2406              		.loc 1 1867 0
 2407 01b6 A3F1610E 		sub	lr, r3, #97
 2408 01ba BEF1190F 		cmp	lr, #25
 2409 01be 03D8     		bhi	.L274
1868:lib/ff/ff.c   **** 				}
 2410              		.loc 1 1868 0
 2411 01c0 45F00105 		orr	r5, r5, #1
 2412              	.LVL354:
 2413 01c4 203B     		subs	r3, r3, #32
 2414              	.LVL355:
 2415 01c6 DBB2     		uxtb	r3, r3
 2416              	.LVL356:
 2417              	.L274:
1871:lib/ff/ff.c   **** 		}
 2418              		.loc 1 1871 0
 2419 01c8 B354     		strb	r3, [r6, r2]
 2420 01ca 0132     		adds	r2, r2, #1
 2421              	.LVL357:
 2422 01cc C1E7     		b	.L267
 2423              	.LVL358:
 2424              	.L265:
1841:lib/ff/ff.c   **** 			i = 8; ni = 11;
 2425              		.loc 1 1841 0
 2426 01ce 0829     		cmp	r1, #8
 2427 01d0 3DD1     		bne	.L261
 2428              	.L343:
 2429              	.LVL359:
1843:lib/ff/ff.c   **** 		}
 2430              		.loc 1 1843 0
 2431 01d2 AD00     		lsls	r5, r5, #2
 2432              	.LVL360:
 2433 01d4 EDB2     		uxtb	r5, r5
 2434              	.LVL361:
1842:lib/ff/ff.c   **** 			b <<= 2; continue;
 2435              		.loc 1 1842 0
 2436 01d6 0A46     		mov	r2, r1
 2437 01d8 0B21     		movs	r1, #11
 2438 01da BAE7     		b	.L267
 2439              	.LVL362:
 2440              	.L348:
 2441              	.LBE58:
 2442              	.LBE66:
 2443              	.LBB67:
 2444              	.LBB64:
1465:lib/ff/ff.c   **** 		c = dir[DIR_Name];
 2445              		.loc 1 1465 0
 2446 01dc 6269     		ldr	r2, [r4, #20]
 2447              	.LVL363:
1467:lib/ff/ff.c   **** #if _USE_LFN	/* LFN configuration */
 2448              		.loc 1 1467 0
 2449 01de 1178     		ldrb	r1, [r2, #0]	@ zero_extendqisi2
 2450 01e0 99B1     		cbz	r1, .L299
 2451              	.LBE64:
1490:lib/ff/ff.c   **** 			break;
 2452              		.loc 1 1490 0
 2453 01e2 D37A     		ldrb	r3, [r2, #11]	@ zero_extendqisi2
 2454              	.LBB65:
 2455 01e4 03F00801 		and	r1, r3, #8
 2456 01e8 CBB2     		uxtb	r3, r1
 2457 01ea 4BB9     		cbnz	r3, .L280
 2458 01ec A669     		ldr	r6, [r4, #24]
 2459              	.LVL364:
 2460 01ee 0346     		mov	r3, r0
 2461              	.L281:
 2462              	.LBB62:
 2463              	.LBB63:
 569:lib/ff/ff.c   **** 	return r;
 2464              		.loc 1 569 0
 2465 01f0 D55C     		ldrb	r5, [r2, r3]	@ zero_extendqisi2
 2466 01f2 F15C     		ldrb	r1, [r6, r3]	@ zero_extendqisi2
 2467              	.LVL365:
 2468 01f4 0133     		adds	r3, r3, #1
 2469 01f6 8D42     		cmp	r5, r1
 2470 01f8 02D1     		bne	.L280
 2471              	.L282:
 2472              	.LVL366:
 2473 01fa 0B2B     		cmp	r3, #11
 2474 01fc F8D1     		bne	.L281
 2475 01fe 47E7     		b	.L279
 2476              	.LVL367:
 2477              	.L280:
 2478              	.LBE63:
 2479              	.LBE62:
1493:lib/ff/ff.c   **** 	} while (res == FR_OK);
 2480              		.loc 1 1493 0
 2481 0200 2046     		mov	r0, r4
 2482              	.LVL368:
 2483 0202 0021     		movs	r1, #0
 2484 0204 FFF7FEFF 		bl	dir_next
 2485              	.LVL369:
 2486 0208 3AE7     		b	.L345
 2487              	.LVL370:
 2488              	.L299:
1467:lib/ff/ff.c   **** #if _USE_LFN	/* LFN configuration */
 2489              		.loc 1 1467 0
 2490 020a 0420     		movs	r0, #4
 2491              	.LVL371:
 2492 020c 40E7     		b	.L279
 2493              	.LVL372:
 2494              	.L284:
 2495              	.LBE65:
 2496              	.LBE67:
2022:lib/ff/ff.c   **** 			dir = dj->dir;						/* There is next segment. Follow the sub directory */
 2497              		.loc 1 2022 0
 2498 020e 03F00400 		and	r0, r3, #4
 2499 0212 C2B2     		uxtb	r2, r0
 2500 0214 42B1     		cbz	r2, .L350
 2501              	.LVL373:
 2502              	.L287:
2015:lib/ff/ff.c   **** 					if (!(ns & NS_LAST)) continue;
 2503              		.loc 1 2015 0
 2504 0216 0020     		movs	r0, #0
 2505 0218 BDE8F081 		pop	{r4, r5, r6, r7, r8, pc}
 2506              	.L285:
2018:lib/ff/ff.c   **** 				}
 2507              		.loc 1 2018 0
 2508 021c 0028     		cmp	r0, #0
 2509 021e 14BF     		ite	ne
 2510 0220 0420     		movne	r0, #4
 2511 0222 0520     		moveq	r0, #5
 2512 0224 BDE8F081 		pop	{r4, r5, r6, r7, r8, pc}
 2513              	.LVL374:
 2514              	.L350:
2023:lib/ff/ff.c   **** 			if (!(dir[DIR_Attr] & AM_DIR)) {	/* Cannot follow because it is a file */
 2515              		.loc 1 2023 0
 2516 0228 6369     		ldr	r3, [r4, #20]
 2517              	.LVL375:
2024:lib/ff/ff.c   **** 				res = FR_NO_PATH; break;
 2518              		.loc 1 2024 0
 2519 022a D97A     		ldrb	r1, [r3, #11]	@ zero_extendqisi2
 2520              	.LVL376:
 2521 022c 01F01000 		and	r0, r1, #16
 2522 0230 C2B2     		uxtb	r2, r0
 2523 0232 4AB1     		cbz	r2, .L301
 2524              	.LVL377:
 2525              	.LBB68:
 2526              	.LBB69:
1247:lib/ff/ff.c   **** 	if (fs->fs_type == FS_FAT32)
 2527              		.loc 1 1247 0
 2528 0234 5E8B     		ldrh	r6, [r3, #26]
 2529              	.LVL378:
2253:lib/ff/ff.c   **** 
2254:lib/ff/ff.c   **** 
2255:lib/ff/ff.c   **** 
2256:lib/ff/ff.c   **** 
2257:lib/ff/ff.c   **** /*--------------------------------------------------------------------------
2258:lib/ff/ff.c   **** 
2259:lib/ff/ff.c   ****    Public Functions
2260:lib/ff/ff.c   **** 
2261:lib/ff/ff.c   **** --------------------------------------------------------------------------*/
2262:lib/ff/ff.c   **** 
2263:lib/ff/ff.c   **** 
2264:lib/ff/ff.c   **** 
2265:lib/ff/ff.c   **** /*-----------------------------------------------------------------------*/
2266:lib/ff/ff.c   **** /* Mount/Unmount a Logical Drive                                         */
2267:lib/ff/ff.c   **** /*-----------------------------------------------------------------------*/
2268:lib/ff/ff.c   **** 
2269:lib/ff/ff.c   **** FRESULT f_mount (
2270:lib/ff/ff.c   **** 	BYTE vol,		/* Logical drive number to be mounted/unmounted */
2271:lib/ff/ff.c   **** 	FATFS *fs		/* Pointer to new file system object (NULL for unmount)*/
2272:lib/ff/ff.c   **** )
2273:lib/ff/ff.c   **** {
2274:lib/ff/ff.c   **** 	FATFS *rfs;
2275:lib/ff/ff.c   **** 
2276:lib/ff/ff.c   **** 
2277:lib/ff/ff.c   **** 	if (vol >= _VOLUMES)		/* Check if the drive number is valid */
2278:lib/ff/ff.c   **** 		return FR_INVALID_DRIVE;
2279:lib/ff/ff.c   **** 	rfs = FatFs[vol];			/* Get current fs object */
2280:lib/ff/ff.c   **** 
2281:lib/ff/ff.c   **** 	if (rfs) {
2282:lib/ff/ff.c   **** #if _FS_LOCK
2283:lib/ff/ff.c   **** 		clear_lock(rfs);
2284:lib/ff/ff.c   **** #endif
2285:lib/ff/ff.c   **** #if _FS_REENTRANT				/* Discard sync object of the current volume */
2286:lib/ff/ff.c   **** 		if (!ff_del_syncobj(rfs->sobj)) return FR_INT_ERR;
2287:lib/ff/ff.c   **** #endif
2288:lib/ff/ff.c   **** 		rfs->fs_type = 0;		/* Clear old fs object */
2289:lib/ff/ff.c   **** 	}
2290:lib/ff/ff.c   **** 
2291:lib/ff/ff.c   **** 	if (fs) {
2292:lib/ff/ff.c   **** 		fs->fs_type = 0;		/* Clear new fs object */
2293:lib/ff/ff.c   **** #if _FS_REENTRANT				/* Create sync object for the new volume */
2294:lib/ff/ff.c   **** 		if (!ff_cre_syncobj(vol, &fs->sobj)) return FR_INT_ERR;
2295:lib/ff/ff.c   **** #endif
2296:lib/ff/ff.c   **** 	}
2297:lib/ff/ff.c   **** 	FatFs[vol] = fs;			/* Register new fs object */
2298:lib/ff/ff.c   **** 
2299:lib/ff/ff.c   **** 	return FR_OK;
2300:lib/ff/ff.c   **** }
2301:lib/ff/ff.c   **** 
2302:lib/ff/ff.c   **** 
2303:lib/ff/ff.c   **** 
2304:lib/ff/ff.c   **** 
2305:lib/ff/ff.c   **** /*-----------------------------------------------------------------------*/
2306:lib/ff/ff.c   **** /* Open or Create a File                                                 */
2307:lib/ff/ff.c   **** /*-----------------------------------------------------------------------*/
2308:lib/ff/ff.c   **** 
2309:lib/ff/ff.c   **** FRESULT f_open (
2310:lib/ff/ff.c   **** 	FIL *fp,			/* Pointer to the blank file object */
2311:lib/ff/ff.c   **** 	const TCHAR *path,	/* Pointer to the file name */
2312:lib/ff/ff.c   **** 	BYTE mode			/* Access mode and file open mode flags */
2313:lib/ff/ff.c   **** )
2314:lib/ff/ff.c   **** {
2315:lib/ff/ff.c   **** 	FRESULT res;
2316:lib/ff/ff.c   **** 	DIR dj;
2317:lib/ff/ff.c   **** 	BYTE *dir;
2318:lib/ff/ff.c   **** 	DEF_NAMEBUF;
2319:lib/ff/ff.c   **** 
2320:lib/ff/ff.c   **** 
2321:lib/ff/ff.c   **** 	if (!fp) return FR_INVALID_OBJECT;
2322:lib/ff/ff.c   **** 	fp->fs = 0;			/* Clear file object */
2323:lib/ff/ff.c   **** 
2324:lib/ff/ff.c   **** #if !_FS_READONLY
2325:lib/ff/ff.c   **** 	mode &= FA_READ | FA_WRITE | FA_CREATE_ALWAYS | FA_OPEN_ALWAYS | FA_CREATE_NEW;
2326:lib/ff/ff.c   **** 	res = chk_mounted(&path, &dj.fs, (BYTE)(mode & ~FA_READ));
2327:lib/ff/ff.c   **** #else
2328:lib/ff/ff.c   **** 	mode &= FA_READ;
2329:lib/ff/ff.c   **** 	res = chk_mounted(&path, &dj.fs, 0);
2330:lib/ff/ff.c   **** #endif
2331:lib/ff/ff.c   **** 	if (res == FR_OK) {
2332:lib/ff/ff.c   **** 		INIT_BUF(dj);
2333:lib/ff/ff.c   **** 		res = follow_path(&dj, path);	/* Follow the file path */
2334:lib/ff/ff.c   **** 		dir = dj.dir;
2335:lib/ff/ff.c   **** #if !_FS_READONLY	/* R/W configuration */
2336:lib/ff/ff.c   **** 		if (res == FR_OK) {
2337:lib/ff/ff.c   **** 			if (!dir)	/* Current dir itself */
2338:lib/ff/ff.c   **** 				res = FR_INVALID_NAME;
2339:lib/ff/ff.c   **** #if _FS_LOCK
2340:lib/ff/ff.c   **** 			else
2341:lib/ff/ff.c   **** 				res = chk_lock(&dj, (mode & ~FA_READ) ? 1 : 0);
2342:lib/ff/ff.c   **** #endif
2343:lib/ff/ff.c   **** 		}
2344:lib/ff/ff.c   **** 		/* Create or Open a file */
2345:lib/ff/ff.c   **** 		if (mode & (FA_CREATE_ALWAYS | FA_OPEN_ALWAYS | FA_CREATE_NEW)) {
2346:lib/ff/ff.c   **** 			DWORD dw, cl;
2347:lib/ff/ff.c   **** 
2348:lib/ff/ff.c   **** 			if (res != FR_OK) {					/* No file, create new */
2349:lib/ff/ff.c   **** 				if (res == FR_NO_FILE)			/* There is no file to open, create a new entry */
2350:lib/ff/ff.c   **** #if _FS_LOCK
2351:lib/ff/ff.c   **** 					res = enq_lock() ? dir_register(&dj) : FR_TOO_MANY_OPEN_FILES;
2352:lib/ff/ff.c   **** #else
2353:lib/ff/ff.c   **** 					res = dir_register(&dj);
2354:lib/ff/ff.c   **** #endif
2355:lib/ff/ff.c   **** 				mode |= FA_CREATE_ALWAYS;		/* File is created */
2356:lib/ff/ff.c   **** 				dir = dj.dir;					/* New entry */
2357:lib/ff/ff.c   **** 			}
2358:lib/ff/ff.c   **** 			else {								/* Any object is already existing */
2359:lib/ff/ff.c   **** 				if (dir[DIR_Attr] & (AM_RDO | AM_DIR)) {	/* Cannot overwrite it (R/O or DIR) */
2360:lib/ff/ff.c   **** 					res = FR_DENIED;
2361:lib/ff/ff.c   **** 				} else {
2362:lib/ff/ff.c   **** 					if (mode & FA_CREATE_NEW)	/* Cannot create as new file */
2363:lib/ff/ff.c   **** 						res = FR_EXIST;
2364:lib/ff/ff.c   **** 				}
2365:lib/ff/ff.c   **** 			}
2366:lib/ff/ff.c   **** 			if (res == FR_OK && (mode & FA_CREATE_ALWAYS)) {	/* Truncate it if overwrite mode */
2367:lib/ff/ff.c   **** 				dw = get_fattime();					/* Created time */
2368:lib/ff/ff.c   **** 				ST_DWORD(dir+DIR_CrtTime, dw);
2369:lib/ff/ff.c   **** 				dir[DIR_Attr] = 0;					/* Reset attribute */
2370:lib/ff/ff.c   **** 				ST_DWORD(dir+DIR_FileSize, 0);		/* size = 0 */
2371:lib/ff/ff.c   **** 				cl = ld_clust(dj.fs, dir);			/* Get start cluster */
2372:lib/ff/ff.c   **** 				st_clust(dir, 0);					/* cluster = 0 */
2373:lib/ff/ff.c   **** 				dj.fs->wflag = 1;
2374:lib/ff/ff.c   **** 				if (cl) {							/* Remove the cluster chain if exist */
2375:lib/ff/ff.c   **** 					dw = dj.fs->winsect;
2376:lib/ff/ff.c   **** 					res = remove_chain(dj.fs, cl);
2377:lib/ff/ff.c   **** 					if (res == FR_OK) {
2378:lib/ff/ff.c   **** 						dj.fs->last_clust = cl - 1;	/* Reuse the cluster hole */
2379:lib/ff/ff.c   **** 						res = move_window(dj.fs, dw);
2380:lib/ff/ff.c   **** 					}
2381:lib/ff/ff.c   **** 				}
2382:lib/ff/ff.c   **** 			}
2383:lib/ff/ff.c   **** 		}
2384:lib/ff/ff.c   **** 		else {	/* Open an existing file */
2385:lib/ff/ff.c   **** 			if (res == FR_OK) {						/* Follow succeeded */
2386:lib/ff/ff.c   **** 				if (dir[DIR_Attr] & AM_DIR) {		/* It is a directory */
2387:lib/ff/ff.c   **** 					res = FR_NO_FILE;
2388:lib/ff/ff.c   **** 				} else {
2389:lib/ff/ff.c   **** 					if ((mode & FA_WRITE) && (dir[DIR_Attr] & AM_RDO)) /* R/O violation */
2390:lib/ff/ff.c   **** 						res = FR_DENIED;
2391:lib/ff/ff.c   **** 				}
2392:lib/ff/ff.c   **** 			}
2393:lib/ff/ff.c   **** 		}
2394:lib/ff/ff.c   **** 		if (res == FR_OK) {
2395:lib/ff/ff.c   **** 			if (mode & FA_CREATE_ALWAYS)			/* Set file change flag if created or overwritten */
2396:lib/ff/ff.c   **** 				mode |= FA__WRITTEN;
2397:lib/ff/ff.c   **** 			fp->dir_sect = dj.fs->winsect;			/* Pointer to the directory entry */
2398:lib/ff/ff.c   **** 			fp->dir_ptr = dir;
2399:lib/ff/ff.c   **** #if _FS_LOCK
2400:lib/ff/ff.c   **** 			fp->lockid = inc_lock(&dj, (mode & ~FA_READ) ? 1 : 0);
2401:lib/ff/ff.c   **** 			if (!fp->lockid) res = FR_INT_ERR;
2402:lib/ff/ff.c   **** #endif
2403:lib/ff/ff.c   **** 		}
2404:lib/ff/ff.c   **** 
2405:lib/ff/ff.c   **** #else				/* R/O configuration */
2406:lib/ff/ff.c   **** 		if (res == FR_OK) {					/* Follow succeeded */
2407:lib/ff/ff.c   **** 			dir = dj.dir;
2408:lib/ff/ff.c   **** 			if (!dir) {						/* Current dir itself */
2409:lib/ff/ff.c   **** 				res = FR_INVALID_NAME;
2410:lib/ff/ff.c   **** 			} else {
2411:lib/ff/ff.c   **** 				if (dir[DIR_Attr] & AM_DIR)	/* It is a directory */
2412:lib/ff/ff.c   **** 					res = FR_NO_FILE;
2413:lib/ff/ff.c   **** 			}
2414:lib/ff/ff.c   **** 		}
2415:lib/ff/ff.c   **** #endif
2416:lib/ff/ff.c   **** 		FREE_BUF();
2417:lib/ff/ff.c   **** 
2418:lib/ff/ff.c   **** 		if (res == FR_OK) {
2419:lib/ff/ff.c   **** 			fp->flag = mode;					/* File access mode */
2420:lib/ff/ff.c   **** 			fp->sclust = ld_clust(dj.fs, dir);	/* File start cluster */
2421:lib/ff/ff.c   **** 			fp->fsize = LD_DWORD(dir+DIR_FileSize);	/* File size */
2422:lib/ff/ff.c   **** 			fp->fptr = 0;						/* File pointer */
2423:lib/ff/ff.c   **** 			fp->dsect = 0;
2424:lib/ff/ff.c   **** #if _USE_FASTSEEK
2425:lib/ff/ff.c   **** 			fp->cltbl = 0;						/* Normal seek mode */
2426:lib/ff/ff.c   **** #endif
2427:lib/ff/ff.c   **** 			fp->fs = dj.fs; fp->id = dj.fs->id;	/* Validate file object */
2428:lib/ff/ff.c   **** 		}
2429:lib/ff/ff.c   **** 	}
2430:lib/ff/ff.c   **** 
2431:lib/ff/ff.c   **** 	LEAVE_FF(dj.fs, res);
2432:lib/ff/ff.c   **** }
2433:lib/ff/ff.c   **** 
2434:lib/ff/ff.c   **** 
2435:lib/ff/ff.c   **** 
2436:lib/ff/ff.c   **** 
2437:lib/ff/ff.c   **** /*-----------------------------------------------------------------------*/
2438:lib/ff/ff.c   **** /* Read File                                                             */
2439:lib/ff/ff.c   **** /*-----------------------------------------------------------------------*/
2440:lib/ff/ff.c   **** 
2441:lib/ff/ff.c   **** FRESULT f_read (
2442:lib/ff/ff.c   **** 	FIL *fp, 		/* Pointer to the file object */
2443:lib/ff/ff.c   **** 	void *buff,		/* Pointer to data buffer */
2444:lib/ff/ff.c   **** 	UINT btr,		/* Number of bytes to read */
2445:lib/ff/ff.c   **** 	UINT *br		/* Pointer to number of bytes read */
2446:lib/ff/ff.c   **** )
2447:lib/ff/ff.c   **** {
2448:lib/ff/ff.c   **** 	FRESULT res;
2449:lib/ff/ff.c   **** 	DWORD clst, sect, remain;
2450:lib/ff/ff.c   **** 	UINT rcnt, cc;
2451:lib/ff/ff.c   **** 	BYTE csect, *rbuff = (BYTE*)buff;
2452:lib/ff/ff.c   **** 
2453:lib/ff/ff.c   **** 
2454:lib/ff/ff.c   **** 	*br = 0;	/* Clear read byte counter */
2455:lib/ff/ff.c   **** 
2456:lib/ff/ff.c   **** 	res = validate(fp);							/* Check validity */
