   1              		.syntax unified
   2              		.cpu cortex-m3
   3              		.fpu softvfp
   4              		.eabi_attribute 20, 1
   5              		.eabi_attribute 21, 1
   6              		.eabi_attribute 23, 3
   7              		.eabi_attribute 24, 1
   8              		.eabi_attribute 25, 1
   9              		.eabi_attribute 26, 1
  10              		.eabi_attribute 30, 4
  11              		.eabi_attribute 34, 0
  12              		.eabi_attribute 18, 4
  13              		.thumb
  14              		.file	"stm32f10x_it.c"
  15              		.text
  16              	.Ltext0:
  17              		.cfi_sections	.debug_frame
  18              		.section	.text.NMI_Handler,"ax",%progbits
  19              		.align	1
  20              		.global	NMI_Handler
  21              		.thumb
  22              		.thumb_func
  24              	NMI_Handler:
  25              	.LFB57:
  26              		.file 1 "src/stm32f10x_it.c"
   1:src/stm32f10x_it.c **** /********************************************************************************/
   2:src/stm32f10x_it.c **** /*!
   3:src/stm32f10x_it.c **** 	@file			stm32f10x_it.c
   4:src/stm32f10x_it.c **** 	@author         Nemui Trinomius (http://nemuisan.blog.bai.ne.jp)
   5:src/stm32f10x_it.c ****     @version        3.00
   6:src/stm32f10x_it.c ****     @date           2011.03.10
   7:src/stm32f10x_it.c **** 	@brief          Cortex-M3 Processor Exceptions Handlers.				@n
   8:src/stm32f10x_it.c **** 					And STM32F10x Peripherals Interrupt Handlers.			@n
   9:src/stm32f10x_it.c **** 					Device Dependent Section.
  10:src/stm32f10x_it.c **** 
  11:src/stm32f10x_it.c ****     @section HISTORY
  12:src/stm32f10x_it.c **** 		2010.03.17	V1.00	Restart Here.
  13:src/stm32f10x_it.c **** 		2011.01.20	V2.00	Rewrite Doxygen Style.
  14:src/stm32f10x_it.c **** 		2011.03.10	V3.00	C++ Ready.
  15:src/stm32f10x_it.c **** 
  16:src/stm32f10x_it.c ****     @section LICENSE
  17:src/stm32f10x_it.c **** 		BSD License. See Copyright.txt
  18:src/stm32f10x_it.c **** */
  19:src/stm32f10x_it.c **** /********************************************************************************/
  20:src/stm32f10x_it.c **** 
  21:src/stm32f10x_it.c **** /* Includes ------------------------------------------------------------------*/
  22:src/stm32f10x_it.c **** #include "stm32f10x_it.h"
  23:src/stm32f10x_it.c **** #include "hw_config.h"
  24:src/stm32f10x_it.c **** 
  25:src/stm32f10x_it.c **** /* Defines -------------------------------------------------------------------*/
  26:src/stm32f10x_it.c **** 
  27:src/stm32f10x_it.c **** /* Variables -----------------------------------------------------------------*/
  28:src/stm32f10x_it.c **** 
  29:src/stm32f10x_it.c **** /* Constants -----------------------------------------------------------------*/
  30:src/stm32f10x_it.c **** 
  31:src/stm32f10x_it.c **** /* Function prototypes -------------------------------------------------------*/
  32:src/stm32f10x_it.c **** 
  33:src/stm32f10x_it.c **** /* Functions -----------------------------------------------------------------*/
  34:src/stm32f10x_it.c **** 
  35:src/stm32f10x_it.c **** /******************************************************************************/
  36:src/stm32f10x_it.c **** /*            Cortex-M3 Processor Exceptions Handlers                         */
  37:src/stm32f10x_it.c **** /******************************************************************************/
  38:src/stm32f10x_it.c **** 
  39:src/stm32f10x_it.c **** /**************************************************************************/
  40:src/stm32f10x_it.c **** /*! 
  41:src/stm32f10x_it.c ****     @brief	Handles NMI exception.
  42:src/stm32f10x_it.c **** 	@param	None.
  43:src/stm32f10x_it.c ****     @retval	None.
  44:src/stm32f10x_it.c **** */
  45:src/stm32f10x_it.c **** /**************************************************************************/
  46:src/stm32f10x_it.c **** void NMI_Handler(void)
  47:src/stm32f10x_it.c **** {
  27              		.loc 1 47 0
  28              		.cfi_startproc
  29              		@ args = 0, pretend = 0, frame = 0
  30              		@ frame_needed = 0, uses_anonymous_args = 0
  31              		@ link register save eliminated.
  32 0000 7047     		bx	lr
  33              		.cfi_endproc
  34              	.LFE57:
  36              		.section	.text.HardFault_Handler,"ax",%progbits
  37              		.align	1
  38              		.global	HardFault_Handler
  39              		.thumb
  40              		.thumb_func
  42              	HardFault_Handler:
  43              	.LFB58:
  48:src/stm32f10x_it.c **** }
  49:src/stm32f10x_it.c **** 
  50:src/stm32f10x_it.c **** 
  51:src/stm32f10x_it.c **** /**************************************************************************/
  52:src/stm32f10x_it.c **** /*! 
  53:src/stm32f10x_it.c ****     @brief	Handles Hard Fault exception.
  54:src/stm32f10x_it.c **** 	@param	None.
  55:src/stm32f10x_it.c ****     @retval	None.
  56:src/stm32f10x_it.c **** */
  57:src/stm32f10x_it.c **** /**************************************************************************/
  58:src/stm32f10x_it.c **** void HardFault_Handler(void)
  59:src/stm32f10x_it.c **** {
  44              		.loc 1 59 0
  45              		.cfi_startproc
  46              		@ Volatile: function does not return.
  47              		@ args = 0, pretend = 0, frame = 0
  48              		@ frame_needed = 0, uses_anonymous_args = 0
  49              		@ link register save eliminated.
  50              		.loc 1 59 0
  51              	.L3:
  52 0000 FEE7     		b	.L3
  53              		.cfi_endproc
  54              	.LFE58:
  56              		.section	.text.MemManage_Handler,"ax",%progbits
  57              		.align	1
  58              		.global	MemManage_Handler
  59              		.thumb
  60              		.thumb_func
  62              	MemManage_Handler:
  63              	.LFB59:
  60:src/stm32f10x_it.c ****   /* Go to infinite loop when Hard Fault exception occurs */
  61:src/stm32f10x_it.c ****   while (1)
  62:src/stm32f10x_it.c ****   {
  63:src/stm32f10x_it.c ****   }
  64:src/stm32f10x_it.c **** }
  65:src/stm32f10x_it.c **** 
  66:src/stm32f10x_it.c **** 
  67:src/stm32f10x_it.c **** /**************************************************************************/
  68:src/stm32f10x_it.c **** /*! 
  69:src/stm32f10x_it.c ****     @brief	Handles Memory Manage exception.
  70:src/stm32f10x_it.c **** 	@param	None.
  71:src/stm32f10x_it.c ****     @retval	None.
  72:src/stm32f10x_it.c **** */
  73:src/stm32f10x_it.c **** /**************************************************************************/
  74:src/stm32f10x_it.c **** void MemManage_Handler(void)
  75:src/stm32f10x_it.c **** {
  64              		.loc 1 75 0
  65              		.cfi_startproc
  66              		@ Volatile: function does not return.
  67              		@ args = 0, pretend = 0, frame = 0
  68              		@ frame_needed = 0, uses_anonymous_args = 0
  69              		@ link register save eliminated.
  70              		.loc 1 75 0
  71              	.L6:
  72 0000 FEE7     		b	.L6
  73              		.cfi_endproc
  74              	.LFE59:
  76              		.section	.text.BusFault_Handler,"ax",%progbits
  77              		.align	1
  78              		.global	BusFault_Handler
  79              		.thumb
  80              		.thumb_func
  82              	BusFault_Handler:
  83              	.LFB60:
  76:src/stm32f10x_it.c ****   /* Go to infinite loop when Memory Manage exception occurs */
  77:src/stm32f10x_it.c ****   while (1)
  78:src/stm32f10x_it.c ****   {
  79:src/stm32f10x_it.c ****   }
  80:src/stm32f10x_it.c **** }
  81:src/stm32f10x_it.c **** 
  82:src/stm32f10x_it.c **** 
  83:src/stm32f10x_it.c **** /**************************************************************************/
  84:src/stm32f10x_it.c **** /*! 
  85:src/stm32f10x_it.c ****     @brief	Handles Bus Fault exception.
  86:src/stm32f10x_it.c **** 	@param	None.
  87:src/stm32f10x_it.c ****     @retval	None.
  88:src/stm32f10x_it.c **** */
  89:src/stm32f10x_it.c **** /**************************************************************************/
  90:src/stm32f10x_it.c **** void BusFault_Handler(void)
  91:src/stm32f10x_it.c **** {
  84              		.loc 1 91 0
  85              		.cfi_startproc
  86              		@ Volatile: function does not return.
  87              		@ args = 0, pretend = 0, frame = 0
  88              		@ frame_needed = 0, uses_anonymous_args = 0
  89              		@ link register save eliminated.
  90              		.loc 1 91 0
  91              	.L8:
  92 0000 FEE7     		b	.L8
  93              		.cfi_endproc
  94              	.LFE60:
  96              		.section	.text.UsageFault_Handler,"ax",%progbits
  97              		.align	1
  98              		.global	UsageFault_Handler
  99              		.thumb
 100              		.thumb_func
 102              	UsageFault_Handler:
 103              	.LFB61:
  92:src/stm32f10x_it.c ****   /* Go to infinite loop when Bus Fault exception occurs */
  93:src/stm32f10x_it.c ****   while (1)
  94:src/stm32f10x_it.c ****   {
  95:src/stm32f10x_it.c ****   }
  96:src/stm32f10x_it.c **** }
  97:src/stm32f10x_it.c **** 
  98:src/stm32f10x_it.c **** 
  99:src/stm32f10x_it.c **** /**************************************************************************/
 100:src/stm32f10x_it.c **** /*! 
 101:src/stm32f10x_it.c ****     @brief	Handles Usage Fault exception.
 102:src/stm32f10x_it.c **** 	@param	None.
 103:src/stm32f10x_it.c ****     @retval	None.
 104:src/stm32f10x_it.c **** */
 105:src/stm32f10x_it.c **** /**************************************************************************/
 106:src/stm32f10x_it.c **** void UsageFault_Handler(void)
 107:src/stm32f10x_it.c **** {
 104              		.loc 1 107 0
 105              		.cfi_startproc
 106              		@ Volatile: function does not return.
 107              		@ args = 0, pretend = 0, frame = 0
 108              		@ frame_needed = 0, uses_anonymous_args = 0
 109              		@ link register save eliminated.
 110              		.loc 1 107 0
 111              	.L10:
 112 0000 FEE7     		b	.L10
 113              		.cfi_endproc
 114              	.LFE61:
 116              		.section	.text.SVC_Handler,"ax",%progbits
 117              		.align	1
 118              		.global	SVC_Handler
 119              		.thumb
 120              		.thumb_func
 122              	SVC_Handler:
 123              	.LFB62:
 108:src/stm32f10x_it.c ****   /* Go to infinite loop when Usage Fault exception occurs */
 109:src/stm32f10x_it.c ****   while (1)
 110:src/stm32f10x_it.c ****   {
 111:src/stm32f10x_it.c ****   }
 112:src/stm32f10x_it.c **** }
 113:src/stm32f10x_it.c **** 
 114:src/stm32f10x_it.c **** 
 115:src/stm32f10x_it.c **** /**************************************************************************/
 116:src/stm32f10x_it.c **** /*! 
 117:src/stm32f10x_it.c ****     @brief	Handles SVCall exception.
 118:src/stm32f10x_it.c **** 	@param	None.
 119:src/stm32f10x_it.c ****     @retval	None.
 120:src/stm32f10x_it.c **** */
 121:src/stm32f10x_it.c **** /**************************************************************************/
 122:src/stm32f10x_it.c **** void SVC_Handler(void)
 123:src/stm32f10x_it.c **** {
 124              		.loc 1 123 0
 125              		.cfi_startproc
 126              		@ args = 0, pretend = 0, frame = 0
 127              		@ frame_needed = 0, uses_anonymous_args = 0
 128              		@ link register save eliminated.
 129              		.loc 1 123 0
 130 0000 7047     		bx	lr
 131              		.cfi_endproc
 132              	.LFE62:
 134              		.section	.text.DebugMon_Handler,"ax",%progbits
 135              		.align	1
 136              		.global	DebugMon_Handler
 137              		.thumb
 138              		.thumb_func
 140              	DebugMon_Handler:
 141              	.LFB63:
 124:src/stm32f10x_it.c **** }
 125:src/stm32f10x_it.c **** 
 126:src/stm32f10x_it.c **** 
 127:src/stm32f10x_it.c **** /**************************************************************************/
 128:src/stm32f10x_it.c **** /*! 
 129:src/stm32f10x_it.c ****     @brief	Handles Debug Monitor exception.
 130:src/stm32f10x_it.c **** 	@param	None.
 131:src/stm32f10x_it.c ****     @retval	None.
 132:src/stm32f10x_it.c **** */
 133:src/stm32f10x_it.c **** /**************************************************************************/
 134:src/stm32f10x_it.c **** void DebugMon_Handler(void)
 135:src/stm32f10x_it.c **** {
 142              		.loc 1 135 0
 143              		.cfi_startproc
 144              		@ args = 0, pretend = 0, frame = 0
 145              		@ frame_needed = 0, uses_anonymous_args = 0
 146              		@ link register save eliminated.
 147              		.loc 1 135 0
 148 0000 7047     		bx	lr
 149              		.cfi_endproc
 150              	.LFE63:
 152              		.section	.text.PendSV_Handler,"ax",%progbits
 153              		.align	1
 154              		.global	PendSV_Handler
 155              		.thumb
 156              		.thumb_func
 158              	PendSV_Handler:
 159              	.LFB64:
 136:src/stm32f10x_it.c **** }
 137:src/stm32f10x_it.c **** 
 138:src/stm32f10x_it.c **** 
 139:src/stm32f10x_it.c **** /**************************************************************************/
 140:src/stm32f10x_it.c **** /*! 
 141:src/stm32f10x_it.c ****     @brief	Handles PendSVC exception.
 142:src/stm32f10x_it.c **** 	@param	None.
 143:src/stm32f10x_it.c ****     @retval	None.
 144:src/stm32f10x_it.c **** */
 145:src/stm32f10x_it.c **** /**************************************************************************/
 146:src/stm32f10x_it.c **** void PendSV_Handler(void)
 147:src/stm32f10x_it.c **** {
 160              		.loc 1 147 0
 161              		.cfi_startproc
 162              		@ args = 0, pretend = 0, frame = 0
 163              		@ frame_needed = 0, uses_anonymous_args = 0
 164              		@ link register save eliminated.
 165              		.loc 1 147 0
 166 0000 7047     		bx	lr
 167              		.cfi_endproc
 168              	.LFE64:
 170              		.section	.text.SysTick_Handler,"ax",%progbits
 171              		.align	1
 172              		.global	SysTick_Handler
 173              		.thumb
 174              		.thumb_func
 176              	SysTick_Handler:
 177              	.LFB65:
 148:src/stm32f10x_it.c **** }
 149:src/stm32f10x_it.c **** 
 150:src/stm32f10x_it.c **** 
 151:src/stm32f10x_it.c **** /**************************************************************************/
 152:src/stm32f10x_it.c **** /*! 
 153:src/stm32f10x_it.c ****     @brief	Handles SysTick Handler.
 154:src/stm32f10x_it.c **** 	@param	None.
 155:src/stm32f10x_it.c ****     @retval	None.
 156:src/stm32f10x_it.c **** */
 157:src/stm32f10x_it.c **** /**************************************************************************/
 158:src/stm32f10x_it.c **** void SysTick_Handler(void)
 159:src/stm32f10x_it.c **** {
 178              		.loc 1 159 0
 179              		.cfi_startproc
 180              		@ args = 0, pretend = 0, frame = 0
 181              		@ frame_needed = 0, uses_anonymous_args = 0
 182              		.loc 1 159 0
 183 0000 08B5     		push	{r3, lr}
 184              	.LCFI0:
 185              		.cfi_def_cfa_offset 8
 186              		.cfi_offset 3, -8
 187              		.cfi_offset 14, -4
 188              	.LBB4:
 189              	.LBB5:
 190              		.file 2 "./inc/systick.h"
   1:./inc/systick.h **** /********************************************************************************/
   2:./inc/systick.h **** /*!
   3:./inc/systick.h **** 	@file			systick.h
   4:./inc/systick.h **** 	@author         Nemui Trinomius (http://nemuisan.blog.bai.ne.jp)
   5:./inc/systick.h ****     @version        4.00
   6:./inc/systick.h ****     @date           2012.04.25
   7:./inc/systick.h **** 	@brief          delay mSec-order routine using systick timer			@n
   8:./inc/systick.h **** 					delay uSec-order routine using Timer5;
   9:./inc/systick.h **** 
  10:./inc/systick.h ****     @section HISTORY
  11:./inc/systick.h **** 		2010.03.05	V1.00	Restart Here.
  12:./inc/systick.h **** 		2011.01.20	V2.00	Using Timer5 for _delay_us(); instead of __NOP();.
  13:./inc/systick.h **** 		2011.03.10	V3.00	C++ Ready.
  14:./inc/systick.h **** 		2014.04.25  V4.00	Fixed Timer5 Clock definition fot _delay_us();
  15:./inc/systick.h **** 
  16:./inc/systick.h ****     @section LICENSE
  17:./inc/systick.h **** 		BSD License. See Copyright.txt
  18:./inc/systick.h **** */
  19:./inc/systick.h **** /********************************************************************************/
  20:./inc/systick.h **** #ifndef __SYSTICK_H
  21:./inc/systick.h **** #define __SYSTICK_H 0x0400
  22:./inc/systick.h **** 
  23:./inc/systick.h **** #ifdef __cplusplus
  24:./inc/systick.h ****  extern "C" {
  25:./inc/systick.h **** #endif
  26:./inc/systick.h **** 
  27:./inc/systick.h **** /* General Inclusion */
  28:./inc/systick.h **** #include "platform_config.h"
  29:./inc/systick.h **** 
  30:./inc/systick.h **** /* Systick Interval MilliSecond order (in Hz) */
  31:./inc/systick.h **** #define INTERVAL		1000UL
  32:./inc/systick.h **** /* Timer Interval MicroSecond order (in Hz) */
  33:./inc/systick.h **** #define USEC_INTERVAL 	1000000UL
  34:./inc/systick.h **** 
  35:./inc/systick.h **** /* Inline Static Function */
  36:./inc/systick.h **** extern __IO uint32_t TimingDelay;
  37:./inc/systick.h **** static inline void TimingDelay_Decrement(void)
  38:./inc/systick.h **** {
  39:./inc/systick.h ****   if (TimingDelay != 0x00)
 191              		.loc 2 39 0
 192 0002 084B     		ldr	r3, .L20
 193 0004 1A68     		ldr	r2, [r3, #0]
 194 0006 12B1     		cbz	r2, .L15
  40:./inc/systick.h ****   { 
  41:./inc/systick.h ****     TimingDelay--;
 195              		.loc 2 41 0
 196 0008 1868     		ldr	r0, [r3, #0]
 197 000a 411E     		subs	r1, r0, #1
 198              	.LVL0:
 199 000c 1960     		str	r1, [r3, #0]
 200              	.LVL1:
 201              	.L15:
 202              	.LBE5:
 203              	.LBE4:
 160:src/stm32f10x_it.c **** 
 161:src/stm32f10x_it.c **** 	/* used for delay routine */
 162:src/stm32f10x_it.c **** 	TimingDelay_Decrement();
 163:src/stm32f10x_it.c **** 	/* used for power managements */
 164:src/stm32f10x_it.c **** 	PWR_Mgn();
 204              		.loc 1 164 0
 205 000e FFF7FEFF 		bl	PWR_Mgn
 206              	.LVL2:
 165:src/stm32f10x_it.c **** 	/* GPS Logger Mode Special */
 166:src/stm32f10x_it.c **** 	if(TaskStat == GPS_LOGGING) ChkAckLimit();
 207              		.loc 1 166 0
 208 0012 054B     		ldr	r3, .L20+4
 209 0014 1A68     		ldr	r2, [r3, #0]
 210 0016 1AB9     		cbnz	r2, .L14
 167:src/stm32f10x_it.c **** 	
 168:src/stm32f10x_it.c **** 	/* key inputs */
 169:src/stm32f10x_it.c **** 	/* JoyInp_Chk(); */
 170:src/stm32f10x_it.c **** 	/* FatFs ralation inputs */
 171:src/stm32f10x_it.c **** 	/*ff_support_timerproc();*/
 172:src/stm32f10x_it.c **** }
 211              		.loc 1 172 0 discriminator 1
 212 0018 BDE80840 		pop	{r3, lr}
 166:src/stm32f10x_it.c **** 	
 213              		.loc 1 166 0 discriminator 1
 214 001c FFF7FEBF 		b	ChkAckLimit
 215              	.LVL3:
 216              	.L14:
 217 0020 08BD     		pop	{r3, pc}
 218              	.L21:
 219 0022 00BF     		.align	2
 220              	.L20:
 221 0024 00000000 		.word	TimingDelay
 222 0028 00000000 		.word	TaskStat
 223              		.cfi_endproc
 224              	.LFE65:
 226              		.section	.text.USB_HP_CAN1_TX_IRQHandler,"ax",%progbits
 227              		.align	1
 228              		.global	USB_HP_CAN1_TX_IRQHandler
 229              		.thumb
 230              		.thumb_func
 232              	USB_HP_CAN1_TX_IRQHandler:
 233              	.LFB66:
 173:src/stm32f10x_it.c **** 
 174:src/stm32f10x_it.c **** 
 175:src/stm32f10x_it.c **** 
 176:src/stm32f10x_it.c **** /******************************************************************************/
 177:src/stm32f10x_it.c **** /*                 STM32F10x Peripherals Interrupt Handlers                   */
 178:src/stm32f10x_it.c **** /*  Add here the Interrupt Handler for the used peripheral(s) (PPP), for the  */
 179:src/stm32f10x_it.c **** /*  available peripheral interrupt handler's name please refer to the startup */
 180:src/stm32f10x_it.c **** /*  file (startup_stm32f10x_xx.s).                                            */
 181:src/stm32f10x_it.c **** /******************************************************************************/
 182:src/stm32f10x_it.c **** 
 183:src/stm32f10x_it.c **** /**************************************************************************/
 184:src/stm32f10x_it.c **** /*! 
 185:src/stm32f10x_it.c ****     @brief	Handles USB High Priority or CAN TX interrupts requests.
 186:src/stm32f10x_it.c **** 	@param	None.
 187:src/stm32f10x_it.c ****     @retval	None.
 188:src/stm32f10x_it.c **** */
 189:src/stm32f10x_it.c **** /**************************************************************************/
 190:src/stm32f10x_it.c **** void USB_HP_CAN1_TX_IRQHandler(void)
 191:src/stm32f10x_it.c **** {
 234              		.loc 1 191 0
 235              		.cfi_startproc
 236              		@ args = 0, pretend = 0, frame = 0
 237              		@ frame_needed = 0, uses_anonymous_args = 0
 238              		@ link register save eliminated.
 192:src/stm32f10x_it.c **** 	CTR_HP();
 193:src/stm32f10x_it.c **** }
 239              		.loc 1 193 0
 192:src/stm32f10x_it.c **** 	CTR_HP();
 240              		.loc 1 192 0
 241 0000 FFF7FEBF 		b	CTR_HP
 242              	.LVL4:
 243              		.cfi_endproc
 244              	.LFE66:
 246              		.section	.text.USB_LP_CAN1_RX0_IRQHandler,"ax",%progbits
 247              		.align	1
 248              		.global	USB_LP_CAN1_RX0_IRQHandler
 249              		.thumb
 250              		.thumb_func
 252              	USB_LP_CAN1_RX0_IRQHandler:
 253              	.LFB67:
 194:src/stm32f10x_it.c **** 
 195:src/stm32f10x_it.c **** 
 196:src/stm32f10x_it.c **** /**************************************************************************/
 197:src/stm32f10x_it.c **** /*! 
 198:src/stm32f10x_it.c ****     @brief	Handles USB Low Priority or CAN TX interrupts requests.
 199:src/stm32f10x_it.c **** 	@param	None.
 200:src/stm32f10x_it.c ****     @retval	None.
 201:src/stm32f10x_it.c **** */
 202:src/stm32f10x_it.c **** /**************************************************************************/
 203:src/stm32f10x_it.c **** void USB_LP_CAN1_RX0_IRQHandler(void)
 204:src/stm32f10x_it.c **** {
 254              		.loc 1 204 0
 255              		.cfi_startproc
 256              		@ args = 0, pretend = 0, frame = 0
 257              		@ frame_needed = 0, uses_anonymous_args = 0
 258              		@ link register save eliminated.
 205:src/stm32f10x_it.c **** 	USB_Istr();
 206:src/stm32f10x_it.c **** }
 259              		.loc 1 206 0
 205:src/stm32f10x_it.c **** 	USB_Istr();
 260              		.loc 1 205 0
 261 0000 FFF7FEBF 		b	USB_Istr
 262              	.LVL5:
 263              		.cfi_endproc
 264              	.LFE67:
 266              		.section	.text.RTC_IRQHandler,"ax",%progbits
 267              		.align	1
 268              		.global	RTC_IRQHandler
 269              		.thumb
 270              		.thumb_func
 272              	RTC_IRQHandler:
 273              	.LFB68:
 207:src/stm32f10x_it.c **** 
 208:src/stm32f10x_it.c **** 
 209:src/stm32f10x_it.c **** /**************************************************************************/
 210:src/stm32f10x_it.c **** /*! 
 211:src/stm32f10x_it.c ****     @brief	Handles RealTimeClock interrupts requests.
 212:src/stm32f10x_it.c **** 	@param	None.
 213:src/stm32f10x_it.c ****     @retval	None.
 214:src/stm32f10x_it.c **** */
 215:src/stm32f10x_it.c **** /**************************************************************************/
 216:src/stm32f10x_it.c **** void RTC_IRQHandler(void)
 217:src/stm32f10x_it.c **** {
 274              		.loc 1 217 0
 275              		.cfi_startproc
 276              		@ args = 0, pretend = 0, frame = 0
 277              		@ frame_needed = 0, uses_anonymous_args = 0
 278              		@ link register save eliminated.
 279 0000 7047     		bx	lr
 280              		.cfi_endproc
 281              	.LFE68:
 283              		.text
 284              	.Letext0:
 285              		.file 3 "c:\\devz\\arm\\bleeding-edge\\bin\\../lib/gcc/arm-none-eabi/4.7.3/include/stdint-gcc.h"
 286              		.file 4 "./lib/CMSIS/Include/core_cm3.h"
 287              		.file 5 "./inc/hw_config.h"
 288              		.file 6 "./inc/power.h"
 289              		.file 7 "./inc/gps_support.h"
 290              		.file 8 "./lib/STM32_USB-FS-Device_Driver/inc/usb_int.h"
 291              		.file 9 "./lib/USB_Functions/usb_istr.h"